 edge_coreclr

 Timestamp is 5bbfe374 (Thu Oct 11 16:57:40 2018)

 Preferred load address is 10000000

 Start         Length     Name                   Class
 0001:00000000 00000030H .text$di                CODE
 0001:00000030 00023ee0H .text$mn                CODE
 0001:00023f10 00002810H .text$x                 CODE
 0001:00026720 000001c9H .text$yd                CODE
 0002:00000000 0000042cH .idata$5                DATA
 0002:0000042c 00000004H .00cfg                  DATA
 0002:00000430 00000004H .CRT$XCA                DATA
 0002:00000434 00000004H .CRT$XCL                DATA
 0002:00000438 0000000cH .CRT$XCU                DATA
 0002:00000444 00000004H .CRT$XCZ                DATA
 0002:00000448 00000004H .CRT$XIA                DATA
 0002:0000044c 00000004H .CRT$XIZ                DATA
 0002:00000450 00000004H .CRT$XPA                DATA
 0002:00000454 00000004H .CRT$XPZ                DATA
 0002:00000458 00000004H .CRT$XTA                DATA
 0002:0000045c 00000004H .CRT$XTZ                DATA
 0002:00000460 00000000H .gfids$y                DATA
 0002:00000460 00006490H .rdata                  DATA
 0002:000068f0 00000d30H .rdata$r                DATA
 0002:00007620 00000248H .rdata$sxdata           DATA
 0002:00007868 00000324H .rdata$zzzdbg           DATA
 0002:00007b8c 00000004H .rtc$IAA                DATA
 0002:00007b90 00000004H .rtc$IZZ                DATA
 0002:00007b94 00000004H .rtc$TAA                DATA
 0002:00007b98 00000008H .rtc$TZZ                DATA
 0002:00007ba0 00002e20H .xdata$x                DATA
 0002:0000a9c0 0000005cH .edata                  DATA
 0002:0000aa1c 00000104H .idata$2                DATA
 0002:0000ab20 00000014H .idata$3                DATA
 0002:0000ab34 0000042cH .idata$4                DATA
 0002:0000af60 00002b00H .idata$6                DATA
 0003:00000000 000000e8H .data                   DATA
 0003:000000e8 00000f20H .data$r                 DATA
 0003:00001008 00000404H .bss                    DATA
 0004:00000000 00000060H .rsrc$01                DATA
 0004:00000060 00000180H .rsrc$02                DATA

  Address         Publics by Value              Rva+Base       Lib:Object

 0000:00000000       ___guard_longjmp_count     00000000     <absolute>
 0000:00000000       ___guard_iat_count         00000000     <absolute>
 0000:00000000       ___guard_fids_count        00000000     <absolute>
 0000:00000000       ___guard_longjmp_table     00000000     <absolute>
 0000:00000000       ___hybrid_code_map_count   00000000     <absolute>
 0000:00000000       ___hybrid_auxiliary_iat    00000000     <absolute>
 0000:00000000       ___dynamic_value_reloc_table 00000000     <absolute>
 0000:00000000       ___guard_fids_table        00000000     <absolute>
 0000:00000000       ___volatile_metadata       00000000     <absolute>
 0000:00000000       ___guard_iat_table         00000000     <absolute>
 0000:00000000       ___enclave_config          00000000     <absolute>
 0000:00000000       ___hybrid_code_map         00000000     <absolute>
 0000:00000092       ___safe_se_handler_count   00000092     <absolute>
 0000:00000100       ___guard_flags             00000100     <absolute>
 0000:00000000       ___ImageBase               10000000     <linker-defined>
 0001:00000030       ___local_stdio_printf_options 10001030 f i v8synchronizationcontext.obj
 0001:00000040       _printf                    10001040 f i v8synchronizationcontext.obj
 0001:00000070       ??1HandleScope@Nan@@QAE@XZ 10001070 f i v8synchronizationcontext.obj
 0001:00000070       ??1EscapableHandleScope@Nan@@QAE@XZ 10001070 f i callbackhelper.obj
 0001:00000080       ?continueOnV8Thread@@YAXPAUuv_async_s@@H@Z 10001080 f   v8synchronizationcontext.obj
 0001:00000160       ?RegisterAction@V8SynchronizationContext@@SAPAUuv_edge_async_s@@P6AXPAX@Z0@Z 10001160 f   v8synchronizationcontext.obj
 0001:00000230       ??_V@YAXPAX@Z              10001230 f   MSVCRT:delete_array.obj
 0001:00000230       ?close_uv_edge_async_cb@@YAXPAUuv_handle_s@@@Z 10001230 f   v8synchronizationcontext.obj
 0001:00000320       ??1AsyncResource@Nan@@QAE@XZ 10001320 f i callbackhelper.obj
 0001:00000370       ?Call@Callback@Nan@@QBE?AV?$Local@VValue@v8@@@v8@@HQAV34@@Z 10001370 f i callbackhelper.obj
 0001:00000530       ??1?$Persistent@VFunction@v8@@V?$NonCopyablePersistentTraits@VFunction@v8@@@2@@Nan@@QAE@XZ 10001530 f i callbackhelper.obj
 0001:00000570       @_guard_check_icall_nop@4  10001570 f   MSVCRT:guard_support.obj
 0001:00000570       ??1?$_String_alloc@U?$_String_base_types@_WV?$allocator@_W@std@@@std@@@std@@QAE@XZ 10001570 f   coreclrembedding.obj
 0001:00000580       ?Initialize@CallbackHelper@@SAXXZ 10001580 f   callbackhelper.obj
 0001:00000720       ?New@?$Factory@VFunctionTemplate@v8@@@imp@Nan@@SA?AV?$Local@VFunctionTemplate@v8@@@v8@@P6AXABV?$FunctionCallbackInfo@VValue@v8@@@3@@ZV?$Local@VValue@v8@@@5@V?$Local@VSignature@v8@@@5@@Z 10001720 f i edge.obj
 0001:000008b0       ?initializeClrFunc@@YAXABV?$FunctionCallbackInfo@VValue@v8@@@Nan@@@Z 100018b0 f   edge.obj
 0001:000008c0       ?init@@YAXV?$Local@VObject@v8@@@v8@@@Z 100018c0 f   edge.obj
 0001:00000ae0       ??0deps_json_t@@QAE@_NABV?$basic_string@_WU?$char_traits@_W@std@@V?$allocator@_W@2@@std@@ABV?$unordered_map@V?$basic_string@_WU?$char_traits@_W@std@@V?$allocator@_W@2@@std@@V?$vector@V?$basic_string@_WU?$char_traits@_W@std@@V?$allocator@_W@2@@std@@V?$allocator@V?$basic_string@_WU?$char_traits@_W@std@@V?$allocator@_W@2@@std@@@2@@2@U?$hash@V?$basic_string@_WU?$char_traits@_W@std@@V?$allocator@_W@2@@std@@@2@U?$equal_to@V?$basic_string@_WU?$char_traits@_W@std@@V?$allocator@_W@2@@std@@@2@V?$allocator@U?$pair@$$CBV?$basic_string@_WU?$char_traits@_W@std@@V?$allocator@_W@2@@std@@V?$vector@V?$basic_string@_WU?$char_traits@_W@std@@V?$allocator@_W@2@@std@@V?$allocator@V?$basic_string@_WU?$char_traits@_W@std@@V?$allocator@_W@2@@std@@@2@@2@@std@@@2@@2@@Z 10001ae0 f i coreclrembedding.obj
 0001:00000c80       ?get_entries@deps_json_t@@QAEABV?$vector@Udeps_entry_t@@V?$allocator@Udeps_entry_t@@@std@@@std@@W4asset_types@deps_entry_t@@@Z 10001c80 f i coreclrembedding.obj
 0001:00000cb0       ??1deps_assets_t@deps_json_t@@QAE@XZ 10001cb0 f i coreclrembedding.obj
 0001:00000cc0       ??1rid_specific_assets_t@deps_json_t@@QAE@XZ 10001cc0 f i coreclrembedding.obj
 0001:00000cd0       ??1?$unordered_map@V?$basic_string@_WU?$char_traits@_W@std@@V?$allocator@_W@2@@std@@HU?$hash@V?$basic_string@_WU?$char_traits@_W@std@@V?$allocator@_W@2@@std@@@2@U?$equal_to@V?$basic_string@_WU?$char_traits@_W@std@@V?$allocator@_W@2@@std@@@2@V?$allocator@U?$pair@$$CBV?$basic_string@_WU?$char_traits@_W@std@@V?$allocator@_W@2@@std@@H@std@@@2@@std@@QAE@XZ 10001cd0 f i coreclrembedding.obj
 0001:00000ce0       ??1deps_json_t@@QAE@XZ     10001ce0 f i coreclrembedding.obj
 0001:00000d50       ??1?$_Hash@V?$_Umap_traits@V?$basic_string@_WU?$char_traits@_W@std@@V?$allocator@_W@2@@std@@HV?$_Uhash_compare@V?$basic_string@_WU?$char_traits@_W@std@@V?$allocator@_W@2@@std@@U?$hash@V?$basic_string@_WU?$char_traits@_W@std@@V?$allocator@_W@2@@std@@@2@U?$equal_to@V?$basic_string@_WU?$char_traits@_W@std@@V?$allocator@_W@2@@std@@@2@@2@V?$allocator@U?$pair@$$CBV?$basic_string@_WU?$char_traits@_W@std@@V?$allocator@_W@2@@std@@H@std@@@2@$0A@@std@@@std@@QAE@XZ 10001d50 f i coreclrembedding.obj
 0001:00000e40       ??1?$_Hash@V?$_Umap_traits@V?$basic_string@_WU?$char_traits@_W@std@@V?$allocator@_W@2@@std@@V?$vector@V?$basic_string@_WU?$char_traits@_W@std@@V?$allocator@_W@2@@std@@V?$allocator@V?$basic_string@_WU?$char_traits@_W@std@@V?$allocator@_W@2@@std@@@2@@2@V?$_Uhash_compare@V?$basic_string@_WU?$char_traits@_W@std@@V?$allocator@_W@2@@std@@U?$hash@V?$basic_string@_WU?$char_traits@_W@std@@V?$allocator@_W@2@@std@@@2@U?$equal_to@V?$basic_string@_WU?$char_traits@_W@std@@V?$allocator@_W@2@@std@@@2@@2@V?$allocator@U?$pair@$$CBV?$basic_string@_WU?$char_traits@_W@std@@V?$allocator@_W@2@@std@@V?$vector@V?$basic_string@_WU?$char_traits@_W@std@@V?$allocator@_W@2@@std@@V?$allocator@V?$basic_string@_WU?$char_traits@_W@std@@V?$allocator@_W@2@@std@@@2@@2@@std@@@2@$0A@@std@@@std@@QAE@XZ 10001e40 f i coreclrembedding.obj
 0001:00000ef0       ??1?$_Hash@V?$_Umap_traits@V?$basic_string@_WU?$char_traits@_W@std@@V?$allocator@_W@2@@std@@Uassets_t@deps_json_t@@V?$_Uhash_compare@V?$basic_string@_WU?$char_traits@_W@std@@V?$allocator@_W@2@@std@@U?$hash@V?$basic_string@_WU?$char_traits@_W@std@@V?$allocator@_W@2@@std@@@2@U?$equal_to@V?$basic_string@_WU?$char_traits@_W@std@@V?$allocator@_W@2@@std@@@2@@2@V?$allocator@U?$pair@$$CBV?$basic_string@_WU?$char_traits@_W@std@@V?$allocator@_W@2@@std@@Uassets_t@deps_json_t@@@std@@@2@$0A@@std@@@std@@QAE@XZ 10001ef0 f i coreclrembedding.obj
 0001:00000f70       ??1?$_Hash@V?$_Umap_traits@V?$basic_string@_WU?$char_traits@_W@std@@V?$allocator@_W@2@@std@@Urid_assets_t@deps_json_t@@V?$_Uhash_compare@V?$basic_string@_WU?$char_traits@_W@std@@V?$allocator@_W@2@@std@@U?$hash@V?$basic_string@_WU?$char_traits@_W@std@@V?$allocator@_W@2@@std@@@2@U?$equal_to@V?$basic_string@_WU?$char_traits@_W@std@@V?$allocator@_W@2@@std@@@2@@2@V?$allocator@U?$pair@$$CBV?$basic_string@_WU?$char_traits@_W@std@@V?$allocator@_W@2@@std@@Urid_assets_t@deps_json_t@@@std@@@2@$0A@@std@@@std@@QAE@XZ 10001f70 f i coreclrembedding.obj
 0001:00001020       ??0corehost_init_t@@QAE@ABV?$basic_string@_WU?$char_traits@_W@std@@V?$allocator@_W@2@@std@@ABV?$vector@V?$basic_string@_WU?$char_traits@_W@std@@V?$allocator@_W@2@@std@@V?$allocator@V?$basic_string@_WU?$char_traits@_W@std@@V?$allocator@_W@2@@std@@@2@@2@0W4host_mode_t@@ABVruntime_config_t@@@Z 10002020 f i coreclrembedding.obj
 0001:00001260       ?get_host_init_data@corehost_init_t@@QAEABUhost_interface_t@@XZ 10002260 f i coreclrembedding.obj
 0001:00001310       ?make_cstr_arr@corehost_init_t@@CAXABV?$vector@V?$basic_string@_WU?$char_traits@_W@std@@V?$allocator@_W@2@@std@@V?$allocator@V?$basic_string@_WU?$char_traits@_W@std@@V?$allocator@_W@2@@std@@@2@@std@@PAV?$vector@PB_WV?$allocator@PB_W@std@@@3@@Z 10002310 f i coreclrembedding.obj
 0001:000013a0       ?init@hostpolicy_init_t@@SA_NPAUhost_interface_t@@PAU1@@Z 100023a0 f i coreclrembedding.obj
 0001:00001650       ?make_clrstr_arr@hostpolicy_init_t@@CAXHPAPB_WPAV?$vector@V?$vector@DV?$allocator@D@std@@@std@@V?$allocator@V?$vector@DV?$allocator@D@std@@@std@@@2@@std@@@Z 10002650 f i coreclrembedding.obj
 0001:000017c0       ??1probe_config_t@@QAE@XZ  100027c0 f i coreclrembedding.obj
 0001:000017c0       ??1?$basic_string@_WU?$char_traits@_W@std@@V?$allocator@_W@2@@std@@QAE@XZ 100027c0 f i coreclrembedding.obj
 0001:000017c0       ?_Tidy_deallocate@?$basic_string@_WU?$char_traits@_W@std@@V?$allocator@_W@2@@std@@QAEXXZ 100027c0 f i coreclrembedding.obj
 0001:00001820       ??0deps_resolver_t@@QAE@ABUhostpolicy_init_t@@ABUarguments_t@@@Z 10002820 f i coreclrembedding.obj
 0001:00001da0       ?valid@deps_resolver_t@@QAE_NPAV?$basic_string@_WU?$char_traits@_W@std@@V?$allocator@_W@2@@std@@@Z 10002da0 f i coreclrembedding.obj
 0001:00001f70       ?get_fx_deps_file@deps_resolver_t@@QBEABV?$basic_string@_WU?$char_traits@_W@std@@V?$allocator@_W@2@@std@@XZ 10002f70 f i coreclrembedding.obj
 0001:00001f80       ?get_deps_file@deps_resolver_t@@QBEABV?$basic_string@_WU?$char_traits@_W@std@@V?$allocator@_W@2@@std@@XZ 10002f80 f i coreclrembedding.obj
 0001:00001f90       ?get_api_sets@deps_resolver_t@@QBEABV?$unordered_set@V?$basic_string@_WU?$char_traits@_W@std@@V?$allocator@_W@2@@std@@U?$hash@V?$basic_string@_WU?$char_traits@_W@std@@V?$allocator@_W@2@@std@@@2@U?$equal_to@V?$basic_string@_WU?$char_traits@_W@std@@V?$allocator@_W@2@@std@@@2@V?$allocator@V?$basic_string@_WU?$char_traits@_W@std@@V?$allocator@_W@2@@std@@@2@@std@@XZ 10002f90 f i coreclrembedding.obj
 0001:00001fa0       ??1?$unordered_map@V?$basic_string@_WU?$char_traits@_W@std@@V?$allocator@_W@2@@std@@V12@U?$hash@V?$basic_string@_WU?$char_traits@_W@std@@V?$allocator@_W@2@@std@@@2@U?$equal_to@V?$basic_string@_WU?$char_traits@_W@std@@V?$allocator@_W@2@@std@@@2@V?$allocator@U?$pair@$$CBV?$basic_string@_WU?$char_traits@_W@std@@V?$allocator@_W@2@@std@@V12@@std@@@2@@std@@QAE@XZ 10002fa0 f i coreclrembedding.obj
 0001:00001fb0       ??1?$unordered_set@V?$basic_string@_WU?$char_traits@_W@std@@V?$allocator@_W@2@@std@@U?$hash@V?$basic_string@_WU?$char_traits@_W@std@@V?$allocator@_W@2@@std@@@2@U?$equal_to@V?$basic_string@_WU?$char_traits@_W@std@@V?$allocator@_W@2@@std@@@2@V?$allocator@V?$basic_string@_WU?$char_traits@_W@std@@V?$allocator@_W@2@@std@@@2@@std@@QAE@XZ 10002fb0 f i coreclrembedding.obj
 0001:00001fc0       ??1?$_Hash@V?$_Umap_traits@V?$basic_string@_WU?$char_traits@_W@std@@V?$allocator@_W@2@@std@@V12@V?$_Uhash_compare@V?$basic_string@_WU?$char_traits@_W@std@@V?$allocator@_W@2@@std@@U?$hash@V?$basic_string@_WU?$char_traits@_W@std@@V?$allocator@_W@2@@std@@@2@U?$equal_to@V?$basic_string@_WU?$char_traits@_W@std@@V?$allocator@_W@2@@std@@@2@@2@V?$allocator@U?$pair@$$CBV?$basic_string@_WU?$char_traits@_W@std@@V?$allocator@_W@2@@std@@V12@@std@@@2@$0A@@std@@@std@@QAE@XZ 10002fc0 f i coreclrembedding.obj
 0001:00002070       ??1?$_Hash@V?$_Uset_traits@V?$basic_string@_WU?$char_traits@_W@std@@V?$allocator@_W@2@@std@@V?$_Uhash_compare@V?$basic_string@_WU?$char_traits@_W@std@@V?$allocator@_W@2@@std@@U?$hash@V?$basic_string@_WU?$char_traits@_W@std@@V?$allocator@_W@2@@std@@@2@U?$equal_to@V?$basic_string@_WU?$char_traits@_W@std@@V?$allocator@_W@2@@std@@@2@@2@V?$allocator@V?$basic_string@_WU?$char_traits@_W@std@@V?$allocator@_W@2@@std@@@2@$0A@@std@@@std@@QAE@XZ 10003070 f i coreclrembedding.obj
 0001:00002160       ?GetOSVersion@@YA?AV?$basic_string@_WU?$char_traits@_W@std@@V?$allocator@_W@2@@std@@XZ 10003160 f   coreclrembedding.obj
 0001:00002280       ?Initialize@CoreClrEmbedding@@SAJH@Z 10003280 f   coreclrembedding.obj
 0001:00003fa0       ??1runtime_config_t@@QAE@XZ 10004fa0 f i coreclrembedding.obj
 0001:00004310       ??1corehost_init_t@@QAE@XZ 10005310 f i coreclrembedding.obj
 0001:00004570       ??0hostpolicy_init_t@@QAE@XZ 10005570 f i coreclrembedding.obj
 0001:000045e0       ??1hostpolicy_init_t@@QAE@XZ 100055e0 f i coreclrembedding.obj
 0001:000047c0       ??1arguments_t@@QAE@XZ     100057c0 f i coreclrembedding.obj
 0001:000049c0       ??1deps_resolver_t@@QAE@XZ 100059c0 f i coreclrembedding.obj
 0001:00004e60       ??0probe_paths_t@@QAE@XZ   10005e60 f i coreclrembedding.obj
 0001:00004eb0       ??1probe_paths_t@@QAE@XZ   10005eb0 f i coreclrembedding.obj
 0001:00005040       ??0deps_entry_t@@QAE@ABU0@@Z 10006040 f i coreclrembedding.obj
 0001:00005100       ??1deps_entry_t@@QAE@XZ    10006100 f i coreclrembedding.obj
 0001:000052e0       ?FreeMarshalData@CoreClrEmbedding@@SAXPAXH@Z 100062e0 f   coreclrembedding.obj
 0001:00005300       ??0?$initializer_list@PBD@std@@QAE@PBQBD0@Z 10006300 f i coreclrembedding.obj
 0001:00005320       ??A?$vector@PBDV?$allocator@PBD@std@@@std@@QAEAAPBDI@Z 10006320 f i coreclrembedding.obj
 0001:00005330       ?size@?$vector@PBDV?$allocator@PBD@std@@@std@@QBEIXZ 10006330 f i coreclrembedding.obj
 0001:00005340       ?data@?$vector@PBDV?$allocator@PBD@std@@@std@@QAEPAPBDXZ 10006340 f i coreclrembedding.obj
 0001:00005340       ?_Unchecked_begin@?$vector@Udeps_entry_t@@V?$allocator@Udeps_entry_t@@@std@@@std@@QBEPBUdeps_entry_t@@XZ 10006340 f i coreclrembedding.obj
 0001:00005340       ??C?$unique_ptr@Vdeps_json_t@@U?$default_delete@Vdeps_json_t@@@std@@@std@@QBEPAVdeps_json_t@@XZ 10006340 f i coreclrembedding.obj
 0001:00005340       ?data@?$vector@DV?$allocator@D@std@@@std@@QAEPADXZ 10006340 f i coreclrembedding.obj
 0001:00005350       ?push_back@?$vector@PBDV?$allocator@PBD@std@@@std@@QAEXABQBD@Z 10006350 f i coreclrembedding.obj
 0001:00005350       ?push_back@?$vector@PBDV?$allocator@PBD@std@@@std@@QAEX$$QAPBD@Z 10006350 f i coreclrembedding.obj
 0001:00005380       ??1?$vector@V?$_List_unchecked_iterator@V?$_List_val@U?$_List_simple_types@U?$pair@$$CBV?$basic_string@_WU?$char_traits@_W@std@@V?$allocator@_W@2@@std@@Urid_assets_t@deps_json_t@@@std@@@std@@@std@@@std@@V?$allocator@V?$_List_unchecked_iterator@V?$_List_val@U?$_List_simple_types@U?$pair@$$CBV?$basic_string@_WU?$char_traits@_W@std@@V?$allocator@_W@2@@std@@Urid_assets_t@deps_json_t@@@std@@@std@@@std@@@std@@@2@@std@@QAE@XZ 10006380 f i coreclrembedding.obj
 0001:00005380       ??1?$vector@V?$_List_unchecked_const_iterator@V?$_List_val@U?$_List_simple_types@V?$basic_string@_WU?$char_traits@_W@std@@V?$allocator@_W@2@@std@@@std@@@std@@U_Iterator_base0@2@@std@@V?$allocator@V?$_List_unchecked_const_iterator@V?$_List_val@U?$_List_simple_types@V?$basic_string@_WU?$char_traits@_W@std@@V?$allocator@_W@2@@std@@@std@@@std@@U_Iterator_base0@2@@std@@@2@@std@@QAE@XZ 10006380 f i coreclrembedding.obj
 0001:00005380       ??1?$vector@V?$_List_unchecked_iterator@V?$_List_val@U?$_List_simple_types@U?$pair@$$CBV?$basic_string@_WU?$char_traits@_W@std@@V?$allocator@_W@2@@std@@Uassets_t@deps_json_t@@@std@@@std@@@std@@@std@@V?$allocator@V?$_List_unchecked_iterator@V?$_List_val@U?$_List_simple_types@U?$pair@$$CBV?$basic_string@_WU?$char_traits@_W@std@@V?$allocator@_W@2@@std@@Uassets_t@deps_json_t@@@std@@@std@@@std@@@std@@@2@@std@@QAE@XZ 10006380 f i coreclrembedding.obj
 0001:00005380       ??1?$vector@V?$_List_unchecked_iterator@V?$_List_val@U?$_List_simple_types@U?$pair@$$CBV?$basic_string@_WU?$char_traits@_W@std@@V?$allocator@_W@2@@std@@H@std@@@std@@@std@@@std@@V?$allocator@V?$_List_unchecked_iterator@V?$_List_val@U?$_List_simple_types@U?$pair@$$CBV?$basic_string@_WU?$char_traits@_W@std@@V?$allocator@_W@2@@std@@H@std@@@std@@@std@@@std@@@2@@std@@QAE@XZ 10006380 f i coreclrembedding.obj
 0001:00005380       ??1?$vector@V?$_List_unchecked_iterator@V?$_List_val@U?$_List_simple_types@U?$pair@$$CBV?$basic_string@_WU?$char_traits@_W@std@@V?$allocator@_W@2@@std@@V?$vector@V?$basic_string@_WU?$char_traits@_W@std@@V?$allocator@_W@2@@std@@V?$allocator@V?$basic_string@_WU?$char_traits@_W@std@@V?$allocator@_W@2@@std@@@2@@2@@std@@@std@@@std@@@std@@V?$allocator@V?$_List_unchecked_iterator@V?$_List_val@U?$_List_simple_types@U?$pair@$$CBV?$basic_string@_WU?$char_traits@_W@std@@V?$allocator@_W@2@@std@@V?$vector@V?$basic_string@_WU?$char_traits@_W@std@@V?$allocator@_W@2@@std@@V?$allocator@V?$basic_string@_WU?$char_traits@_W@std@@V?$allocator@_W@2@@std@@@2@@2@@std@@@std@@@std@@@std@@@2@@std@@QAE@XZ 10006380 f i coreclrembedding.obj
 0001:00005380       ??1?$vector@V?$_List_unchecked_iterator@V?$_List_val@U?$_List_simple_types@U?$pair@$$CBV?$basic_string@_WU?$char_traits@_W@std@@V?$allocator@_W@2@@std@@V12@@std@@@std@@@std@@@std@@V?$allocator@V?$_List_unchecked_iterator@V?$_List_val@U?$_List_simple_types@U?$pair@$$CBV?$basic_string@_WU?$char_traits@_W@std@@V?$allocator@_W@2@@std@@V12@@std@@@std@@@std@@@std@@@2@@std@@QAE@XZ 10006380 f i coreclrembedding.obj
 0001:00005380       ??1?$vector@PB_WV?$allocator@PB_W@std@@@std@@QAE@XZ 10006380 f i coreclrembedding.obj
 0001:00005380       ??1?$vector@PBDV?$allocator@PBD@std@@@std@@QAE@XZ 10006380 f i coreclrembedding.obj
 0001:000053e0       ??0?$vector@PBDV?$allocator@PBD@std@@@std@@QAE@V?$initializer_list@PBD@1@ABV?$allocator@PBD@1@@Z 100063e0 f i coreclrembedding.obj
 0001:00005410       ??0?$allocator@PBD@std@@QAE@XZ 10006410 f i coreclrembedding.obj
 0001:00005420       ??1?$vector@Uprobe_config_t@@V?$allocator@Uprobe_config_t@@@std@@@std@@QAE@XZ 10006420 f i coreclrembedding.obj
 0001:000054a0       ??1?$unique_ptr@Vdeps_json_t@@U?$default_delete@Vdeps_json_t@@@std@@@std@@QAE@XZ 100064a0 f i coreclrembedding.obj
 0001:00005520       ??4?$unique_ptr@Vdeps_json_t@@U?$default_delete@Vdeps_json_t@@@std@@@std@@QAEAAV01@$$QAV01@@Z 10006520 f i coreclrembedding.obj
 0001:000055c0       ??A?$vector@V?$vector@DV?$allocator@D@std@@@std@@V?$allocator@V?$vector@DV?$allocator@D@std@@@std@@@2@@std@@QAEAAV?$vector@DV?$allocator@D@std@@@1@I@Z 100065c0 f i coreclrembedding.obj
 0001:000055d0       ?size@?$vector@V?$vector@DV?$allocator@D@std@@@std@@V?$allocator@V?$vector@DV?$allocator@D@std@@@std@@@2@@std@@QBEIXZ 100065d0 f i coreclrembedding.obj
 0001:000055f0       ??R<lambda_6c3b6c2159c8e7d845ab7f290b8f9fcb>@@QBEPAV?$vector@DV?$allocator@D@std@@@std@@PAV12@I@Z 100065f0 f i coreclrembedding.obj
 0001:00005630       ??9?$_List_unchecked_const_iterator@V?$_List_val@U?$_List_simple_types@V?$basic_string@_WU?$char_traits@_W@std@@V?$allocator@_W@2@@std@@@std@@@std@@U_Iterator_base0@2@@std@@QBE_NABV01@@Z 10006630 f i coreclrembedding.obj
 0001:00005640       ??E?$_List_unchecked_const_iterator@V?$_List_val@U?$_List_simple_types@V?$basic_string@_WU?$char_traits@_W@std@@V?$allocator@_W@2@@std@@@std@@@std@@U_Iterator_base0@2@@std@@QAEAAV01@XZ 10006640 f i coreclrembedding.obj
 0001:00005650       ??D?$_List_unchecked_const_iterator@V?$_List_val@U?$_List_simple_types@V?$basic_string@_WU?$char_traits@_W@std@@V?$allocator@_W@2@@std@@@std@@@std@@U_Iterator_base0@2@@std@@QBEABV?$basic_string@_WU?$char_traits@_W@std@@V?$allocator@_W@2@@1@XZ 10006650 f i coreclrembedding.obj
 0001:00005660       ??1?$vector@V?$basic_string@DU?$char_traits@D@std@@V?$allocator@D@2@@std@@V?$allocator@V?$basic_string@DU?$char_traits@D@std@@V?$allocator@D@2@@std@@@2@@std@@QAE@XZ 10006660 f i coreclrembedding.obj
 0001:00005720       ??1?$list@U?$pair@$$CBV?$basic_string@_WU?$char_traits@_W@std@@V?$allocator@_W@2@@std@@V12@@std@@V?$allocator@U?$pair@$$CBV?$basic_string@_WU?$char_traits@_W@std@@V?$allocator@_W@2@@std@@V12@@std@@@2@@std@@QAE@XZ 10006720 f i coreclrembedding.obj
 0001:00005770       ??0?$unordered_map@V?$basic_string@_WU?$char_traits@_W@std@@V?$allocator@_W@2@@std@@V12@U?$hash@V?$basic_string@_WU?$char_traits@_W@std@@V?$allocator@_W@2@@std@@@2@U?$equal_to@V?$basic_string@_WU?$char_traits@_W@std@@V?$allocator@_W@2@@std@@@2@V?$allocator@U?$pair@$$CBV?$basic_string@_WU?$char_traits@_W@std@@V?$allocator@_W@2@@std@@V12@@std@@@2@@std@@QAE@XZ 10006770 f i coreclrembedding.obj
 0001:00005830       ?_Unchecked_end@?$list@V?$basic_string@_WU?$char_traits@_W@std@@V?$allocator@_W@2@@std@@V?$allocator@V?$basic_string@_WU?$char_traits@_W@std@@V?$allocator@_W@2@@std@@@2@@std@@QBE?AV?$_List_unchecked_const_iterator@V?$_List_val@U?$_List_simple_types@V?$basic_string@_WU?$char_traits@_W@std@@V?$allocator@_W@2@@std@@@std@@@std@@U_Iterator_base0@2@@2@XZ 10006830 f i coreclrembedding.obj
 0001:00005840       ?_Unchecked_begin@?$list@V?$basic_string@_WU?$char_traits@_W@std@@V?$allocator@_W@2@@std@@V?$allocator@V?$basic_string@_WU?$char_traits@_W@std@@V?$allocator@_W@2@@std@@@2@@std@@QBE?AV?$_List_unchecked_const_iterator@V?$_List_val@U?$_List_simple_types@V?$basic_string@_WU?$char_traits@_W@std@@V?$allocator@_W@2@@std@@@std@@@std@@U_Iterator_base0@2@@2@XZ 10006840 f i coreclrembedding.obj
 0001:00005850       ??1?$list@V?$basic_string@_WU?$char_traits@_W@std@@V?$allocator@_W@2@@std@@V?$allocator@V?$basic_string@_WU?$char_traits@_W@std@@V?$allocator@_W@2@@std@@@2@@std@@QAE@XZ 10006850 f i coreclrembedding.obj
 0001:000058f0       ??1?$list@U?$pair@$$CBV?$basic_string@_WU?$char_traits@_W@std@@V?$allocator@_W@2@@std@@V?$vector@V?$basic_string@_WU?$char_traits@_W@std@@V?$allocator@_W@2@@std@@V?$allocator@V?$basic_string@_WU?$char_traits@_W@std@@V?$allocator@_W@2@@std@@@2@@2@@std@@V?$allocator@U?$pair@$$CBV?$basic_string@_WU?$char_traits@_W@std@@V?$allocator@_W@2@@std@@V?$vector@V?$basic_string@_WU?$char_traits@_W@std@@V?$allocator@_W@2@@std@@V?$allocator@V?$basic_string@_WU?$char_traits@_W@std@@V?$allocator@_W@2@@std@@@2@@2@@std@@@2@@std@@QAE@XZ 100068f0 f i coreclrembedding.obj
 0001:00005940       ??1?$list@U?$pair@$$CBV?$basic_string@_WU?$char_traits@_W@std@@V?$allocator@_W@2@@std@@H@std@@V?$allocator@U?$pair@$$CBV?$basic_string@_WU?$char_traits@_W@std@@V?$allocator@_W@2@@std@@H@std@@@2@@std@@QAE@XZ 10006940 f i coreclrembedding.obj
 0001:000059e0       ?_Unchecked_end@?$vector@Udeps_entry_t@@V?$allocator@Udeps_entry_t@@@std@@@std@@QBEPBUdeps_entry_t@@XZ 100069e0 f i coreclrembedding.obj
 0001:000059f0       ??1?$vector@Udeps_entry_t@@V?$allocator@Udeps_entry_t@@@std@@@std@@QAE@XZ 100069f0 f i coreclrembedding.obj
 0001:00005a00       ??0?$vector@DV?$allocator@D@std@@@std@@QAE@XZ 10006a00 f i coreclrembedding.obj
 0001:00005a00       ??0?$vector@Udeps_entry_t@@V?$allocator@Udeps_entry_t@@@std@@@std@@QAE@XZ 10006a00 f i coreclrembedding.obj
 0001:00005a00       ??0vec_t@deps_json_t@@QAE@XZ 10006a00 f i deps_format.obj
 0001:00005a00       ??0?$vector@V?$basic_string@_WU?$char_traits@_W@std@@V?$allocator@_W@2@@std@@V?$allocator@V?$basic_string@_WU?$char_traits@_W@std@@V?$allocator@_W@2@@std@@@2@@std@@QAE@XZ 10006a00 f i coreclrembedding.obj
 0001:00005a20       ??1?$list@U?$pair@$$CBV?$basic_string@_WU?$char_traits@_W@std@@V?$allocator@_W@2@@std@@Urid_assets_t@deps_json_t@@@std@@V?$allocator@U?$pair@$$CBV?$basic_string@_WU?$char_traits@_W@std@@V?$allocator@_W@2@@std@@Urid_assets_t@deps_json_t@@@std@@@2@@std@@QAE@XZ 10006a20 f i coreclrembedding.obj
 0001:00005a70       ??1?$list@U?$pair@$$CBV?$basic_string@_WU?$char_traits@_W@std@@V?$allocator@_W@2@@std@@Uassets_t@deps_json_t@@@std@@V?$allocator@U?$pair@$$CBV?$basic_string@_WU?$char_traits@_W@std@@V?$allocator@_W@2@@std@@Uassets_t@deps_json_t@@@std@@@2@@std@@QAE@XZ 10006a70 f i coreclrembedding.obj
 0001:00005a90       ??0?$unordered_map@V?$basic_string@_WU?$char_traits@_W@std@@V?$allocator@_W@2@@std@@Uassets_t@deps_json_t@@U?$hash@V?$basic_string@_WU?$char_traits@_W@std@@V?$allocator@_W@2@@std@@@2@U?$equal_to@V?$basic_string@_WU?$char_traits@_W@std@@V?$allocator@_W@2@@std@@@2@V?$allocator@U?$pair@$$CBV?$basic_string@_WU?$char_traits@_W@std@@V?$allocator@_W@2@@std@@Uassets_t@deps_json_t@@@std@@@2@@std@@QAE@XZ 10006a90 f i coreclrembedding.obj
 0001:00005b50       ??0?$unordered_map@V?$basic_string@_WU?$char_traits@_W@std@@V?$allocator@_W@2@@std@@V?$vector@V?$basic_string@_WU?$char_traits@_W@std@@V?$allocator@_W@2@@std@@V?$allocator@V?$basic_string@_WU?$char_traits@_W@std@@V?$allocator@_W@2@@std@@@2@@2@U?$hash@V?$basic_string@_WU?$char_traits@_W@std@@V?$allocator@_W@2@@std@@@2@U?$equal_to@V?$basic_string@_WU?$char_traits@_W@std@@V?$allocator@_W@2@@std@@@2@V?$allocator@U?$pair@$$CBV?$basic_string@_WU?$char_traits@_W@std@@V?$allocator@_W@2@@std@@V?$vector@V?$basic_string@_WU?$char_traits@_W@std@@V?$allocator@_W@2@@std@@V?$allocator@V?$basic_string@_WU?$char_traits@_W@std@@V?$allocator@_W@2@@std@@@2@@2@@std@@@2@@std@@QAE@XZ 10006b50 f i coreclrembedding.obj
 0001:00005c10       ??4?$vector@V?$basic_string@_WU?$char_traits@_W@std@@V?$allocator@_W@2@@std@@V?$allocator@V?$basic_string@_WU?$char_traits@_W@std@@V?$allocator@_W@2@@std@@@2@@std@@QAEAAV01@ABV01@@Z 10006c10 f i coreclrembedding.obj
 0001:00005c30       ?push_back@?$vector@V?$basic_string@_WU?$char_traits@_W@std@@V?$allocator@_W@2@@std@@V?$allocator@V?$basic_string@_WU?$char_traits@_W@std@@V?$allocator@_W@2@@std@@@2@@std@@QAEXABV?$basic_string@_WU?$char_traits@_W@std@@V?$allocator@_W@2@@2@@Z 10006c30 f i coreclrembedding.obj
 0001:00005c60       ??1vec_t@deps_json_t@@QAE@XZ 10006c60 f i coreclrembedding.obj
 0001:00005c60       ??1?$vector@V?$basic_string@_WU?$char_traits@_W@std@@V?$allocator@_W@2@@std@@V?$allocator@V?$basic_string@_WU?$char_traits@_W@std@@V?$allocator@_W@2@@std@@@2@@std@@QAE@XZ 10006c60 f i coreclrembedding.obj
 0001:00005c70       ??0?$vector@V?$basic_string@_WU?$char_traits@_W@std@@V?$allocator@_W@2@@std@@V?$allocator@V?$basic_string@_WU?$char_traits@_W@std@@V?$allocator@_W@2@@std@@@2@@std@@QAE@ABV01@@Z 10006c70 f i coreclrembedding.obj
 0001:00005d20       ??1?$vector@DV?$allocator@D@std@@@std@@QAE@XZ 10006d20 f i coreclrembedding.obj
 0001:00005d20       ?_Tidy@?$vector@DV?$allocator@D@std@@@std@@AAEXXZ 10006d20 f i coreclrembedding.obj
 0001:00005d70       ??0?$unordered_set@V?$basic_string@_WU?$char_traits@_W@std@@V?$allocator@_W@2@@std@@U?$hash@V?$basic_string@_WU?$char_traits@_W@std@@V?$allocator@_W@2@@std@@@2@U?$equal_to@V?$basic_string@_WU?$char_traits@_W@std@@V?$allocator@_W@2@@std@@@2@V?$allocator@V?$basic_string@_WU?$char_traits@_W@std@@V?$allocator@_W@2@@std@@@2@@std@@QAE@XZ 10006d70 f i coreclrembedding.obj
 0001:00005e30       ?substr@?$basic_string@_WU?$char_traits@_W@std@@V?$allocator@_W@2@@std@@QBE?AV12@II@Z 10006e30 f i coreclrembedding.obj
 0001:00005e80       ?find@?$basic_string@_WU?$char_traits@_W@std@@V?$allocator@_W@2@@std@@QBEI_WI@Z 10006e80 f i coreclrembedding.obj
 0001:00005ed0       ?empty@?$basic_string@_WU?$char_traits@_W@std@@V?$allocator@_W@2@@std@@QBE_NXZ 10006ed0 f i coreclrembedding.obj
 0001:00005ee0       ?reserve@?$basic_string@_WU?$char_traits@_W@std@@V?$allocator@_W@2@@std@@QAEXI@Z 10006ee0 f i coreclrembedding.obj
 0001:00005f80       ?c_str@?$basic_string@_WU?$char_traits@_W@std@@V?$allocator@_W@2@@std@@QBEPB_WXZ 10006f80 f i coreclrembedding.obj
 0001:00005f90       ?clear@?$basic_string@_WU?$char_traits@_W@std@@V?$allocator@_W@2@@std@@QAEXXZ 10006f90 f i coreclrembedding.obj
 0001:00005fb0       ?append@?$basic_string@_WU?$char_traits@_W@std@@V?$allocator@_W@2@@std@@QAEAAV12@ABV12@@Z 10006fb0 f i coreclrembedding.obj
 0001:00005fd0       ??4?$basic_string@_WU?$char_traits@_W@std@@V?$allocator@_W@2@@std@@QAEAAV01@ABV01@@Z 10006fd0 f i coreclrembedding.obj
 0001:00006000       ??4?$basic_string@_WU?$char_traits@_W@std@@V?$allocator@_W@2@@std@@QAEAAV01@$$QAV01@@Z 10007000 f i coreclrembedding.obj
 0001:00006000       ?assign@?$basic_string@_WU?$char_traits@_W@std@@V?$allocator@_W@2@@std@@QAEAAV12@$$QAV12@@Z 10007000 f i coreclrembedding.obj
 0001:00006040       ??0?$basic_string@_WU?$char_traits@_W@std@@V?$allocator@_W@2@@std@@QAE@$$QAV01@@Z 10007040 f i coreclrembedding.obj
 0001:00006080       ??0?$basic_string@_WU?$char_traits@_W@std@@V?$allocator@_W@2@@std@@QAE@QB_W@Z 10007080 f i coreclrembedding.obj
 0001:000060c0       ??0?$basic_string@_WU?$char_traits@_W@std@@V?$allocator@_W@2@@std@@QAE@XZ 100070c0 f i coreclrembedding.obj
 0001:000060e0       ??0?$basic_string@_WU?$char_traits@_W@std@@V?$allocator@_W@2@@std@@QAE@ABV01@@Z 100070e0 f i coreclrembedding.obj
 0001:000061b0       ??1?$basic_string@DU?$char_traits@D@std@@V?$allocator@D@2@@std@@QAE@XZ 100071b0 f i coreclrembedding.obj
 0001:000061b0       ?_Tidy_deallocate@?$basic_string@DU?$char_traits@D@std@@V?$allocator@D@2@@std@@QAEXXZ 100071b0 f i coreclrembedding.obj
 0001:00006200       ?_Xlength@?$vector@DV?$allocator@D@std@@@std@@CAXXZ 10007200 f i json_parsing.obj
 0001:00006200       ?_Xlength@?$vector@V?$vector@DV?$allocator@D@std@@@std@@V?$allocator@V?$vector@DV?$allocator@D@std@@@std@@@2@@std@@CAXXZ 10007200 f i coreclrembedding.obj
 0001:00006200       ?_Xlength@?$vector@Udeps_entry_t@@V?$allocator@Udeps_entry_t@@@std@@@std@@CAXXZ 10007200 f i deps_format.obj
 0001:00006200       ?_Xlength@?$vector@V?$_List_unchecked_iterator@V?$_List_val@U?$_List_simple_types@U?$pair@$$CBV?$basic_string@_WU?$char_traits@_W@std@@V?$allocator@_W@2@@std@@Uassets_t@deps_json_t@@@std@@@std@@@std@@@std@@V?$allocator@V?$_List_unchecked_iterator@V?$_List_val@U?$_List_simple_types@U?$pair@$$CBV?$basic_string@_WU?$char_traits@_W@std@@V?$allocator@_W@2@@std@@Uassets_t@deps_json_t@@@std@@@std@@@std@@@std@@@2@@std@@CAXXZ 10007200 f i coreclrembedding.obj
 0001:00006200       ?_Xlength@?$vector@PBDV?$allocator@PBD@std@@@std@@CAXXZ 10007200 f i coreclrembedding.obj
 0001:00006200       ?_Xlength@?$vector@V?$_List_unchecked_iterator@V?$_List_val@U?$_List_simple_types@U?$pair@$$CBV?$basic_string@_WU?$char_traits@_W@std@@V?$allocator@_W@2@@std@@Urid_assets_t@deps_json_t@@@std@@@std@@@std@@@std@@V?$allocator@V?$_List_unchecked_iterator@V?$_List_val@U?$_List_simple_types@U?$pair@$$CBV?$basic_string@_WU?$char_traits@_W@std@@V?$allocator@_W@2@@std@@Urid_assets_t@deps_json_t@@@std@@@std@@@std@@@std@@@2@@std@@CAXXZ 10007200 f i coreclrembedding.obj
 0001:00006200       ?_Xlength@?$vector@V?$basic_string@_WU?$char_traits@_W@std@@V?$allocator@_W@2@@std@@V?$allocator@V?$basic_string@_WU?$char_traits@_W@std@@V?$allocator@_W@2@@std@@@2@@std@@CAXXZ 10007200 f i coreclrembedding.obj
 0001:00006200       ?_Xlength@?$vector@V?$_List_unchecked_const_iterator@V?$_List_val@U?$_List_simple_types@V?$basic_string@_WU?$char_traits@_W@std@@V?$allocator@_W@2@@std@@@std@@@std@@U_Iterator_base0@2@@std@@V?$allocator@V?$_List_unchecked_const_iterator@V?$_List_val@U?$_List_simple_types@V?$basic_string@_WU?$char_traits@_W@std@@V?$allocator@_W@2@@std@@@std@@@std@@U_Iterator_base0@2@@std@@@2@@std@@CAXXZ 10007200 f i coreclrembedding.obj
 0001:00006200       ?_Xlength@?$vector@_WV?$allocator@_W@std@@@std@@CAXXZ 10007200 f i json_parsing.obj
 0001:00006200       ?_Xlength@?$vector@U?$pair@V?$basic_string@_WU?$char_traits@_W@std@@V?$allocator@_W@2@@std@@Vvalue@json@web@@@std@@V?$allocator@U?$pair@V?$basic_string@_WU?$char_traits@_W@std@@V?$allocator@_W@2@@std@@Vvalue@json@web@@@std@@@2@@std@@CAXXZ 10007200 f i json.obj
 0001:00006200       ?_Xlength@?$vector@Vvalue@json@web@@V?$allocator@Vvalue@json@web@@@std@@@std@@CAXXZ 10007200 f i json.obj
 0001:00006200       ?_Xlength@?$vector@Uprobe_config_t@@V?$allocator@Uprobe_config_t@@@std@@@std@@CAXXZ 10007200 f i deps_resolver.obj
 0001:00006200       ?_Xlength@?$vector@V?$_List_unchecked_iterator@V?$_List_val@U?$_List_simple_types@U?$pair@$$CBV?$basic_string@_WU?$char_traits@_W@std@@V?$allocator@_W@2@@std@@V?$vector@V?$basic_string@_WU?$char_traits@_W@std@@V?$allocator@_W@2@@std@@V?$allocator@V?$basic_string@_WU?$char_traits@_W@std@@V?$allocator@_W@2@@std@@@2@@2@@std@@@std@@@std@@@std@@V?$allocator@V?$_List_unchecked_iterator@V?$_List_val@U?$_List_simple_types@U?$pair@$$CBV?$basic_string@_WU?$char_traits@_W@std@@V?$allocator@_W@2@@std@@V?$vector@V?$basic_string@_WU?$char_traits@_W@std@@V?$allocator@_W@2@@std@@V?$allocator@V?$basic_string@_WU?$char_traits@_W@std@@V?$allocator@_W@2@@std@@@2@@2@@std@@@std@@@std@@@std@@@2@@std@@CAXXZ 10007200 f i coreclrembedding.obj
 0001:00006200       ?_Xlength@?$vector@V?$_List_unchecked_iterator@V?$_List_val@U?$_List_simple_types@U?$pair@$$CBV?$basic_string@_WU?$char_traits@_W@std@@V?$allocator@_W@2@@std@@H@std@@@std@@@std@@@std@@V?$allocator@V?$_List_unchecked_iterator@V?$_List_val@U?$_List_simple_types@U?$pair@$$CBV?$basic_string@_WU?$char_traits@_W@std@@V?$allocator@_W@2@@std@@H@std@@@std@@@std@@@std@@@2@@std@@CAXXZ 10007200 f i coreclrembedding.obj
 0001:00006200       ?_Xlength@?$vector@V?$_List_unchecked_iterator@V?$_List_val@U?$_List_simple_types@U?$pair@$$CBV?$basic_string@_WU?$char_traits@_W@std@@V?$allocator@_W@2@@std@@V12@@std@@@std@@@std@@@std@@V?$allocator@V?$_List_unchecked_iterator@V?$_List_val@U?$_List_simple_types@U?$pair@$$CBV?$basic_string@_WU?$char_traits@_W@std@@V?$allocator@_W@2@@std@@V12@@std@@@std@@@std@@@std@@@2@@std@@CAXXZ 10007200 f i coreclrembedding.obj
 0001:00006200       ?_Xlength@?$vector@PB_WV?$allocator@PB_W@std@@@std@@CAXXZ 10007200 f i coreclrembedding.obj
 0001:00006210       ?_Reallocate_exactly@?$vector@PB_WV?$allocator@PB_W@std@@@std@@AAEXI@Z 10007210 f i coreclrembedding.obj
 0001:000062e0       ?_Tidy@?$vector@Udeps_entry_t@@V?$allocator@Udeps_entry_t@@@std@@@std@@AAEXXZ 100072e0 f i coreclrembedding.obj
 0001:00006370       ?_Tidy@?$vector@V?$basic_string@_WU?$char_traits@_W@std@@V?$allocator@_W@2@@std@@V?$allocator@V?$basic_string@_WU?$char_traits@_W@std@@V?$allocator@_W@2@@std@@@2@@std@@AAEXXZ 10007370 f i coreclrembedding.obj
 0001:000063f0       ?_Buy@?$vector@V?$basic_string@_WU?$char_traits@_W@std@@V?$allocator@_W@2@@std@@V?$allocator@V?$basic_string@_WU?$char_traits@_W@std@@V?$allocator@_W@2@@std@@@2@@std@@AAE_NI@Z 100073f0 f i coreclrembedding.obj
 0001:000064b0       ?_Reallocate_exactly@?$vector@V?$basic_string@_WU?$char_traits@_W@std@@V?$allocator@_W@2@@std@@V?$allocator@V?$basic_string@_WU?$char_traits@_W@std@@V?$allocator@_W@2@@std@@@2@@std@@AAEXI@Z 100074b0 f i coreclrembedding.obj
 0001:00006550       ?_Tidy_init@?$basic_string@_WU?$char_traits@_W@std@@V?$allocator@_W@2@@std@@QAEXXZ 10007550 f i coreclrembedding.obj
 0001:00006570       ?assign@?$basic_string@_WU?$char_traits@_W@std@@V?$allocator@_W@2@@std@@QAEAAV12@QB_WI@Z 10007570 f i coreclrembedding.obj
 0001:000066c0       ?append@?$basic_string@_WU?$char_traits@_W@std@@V?$allocator@_W@2@@std@@QAEAAV12@QB_WI@Z 100076c0 f i coreclrembedding.obj
 0001:00006730       ?_Construct_lv_contents@?$basic_string@_WU?$char_traits@_W@std@@V?$allocator@_W@2@@std@@QAEXABV12@@Z 10007730 f i coreclrembedding.obj
 0001:000067f0       ??0?$basic_string@_WU?$char_traits@_W@std@@V?$allocator@_W@2@@std@@QAE@ABV01@IIABV?$allocator@_W@1@@Z 100077f0 f i coreclrembedding.obj
 0001:00006850       ?_Init@?$_Hash@V?$_Uset_traits@V?$basic_string@_WU?$char_traits@_W@std@@V?$allocator@_W@2@@std@@V?$_Uhash_compare@V?$basic_string@_WU?$char_traits@_W@std@@V?$allocator@_W@2@@std@@U?$hash@V?$basic_string@_WU?$char_traits@_W@std@@V?$allocator@_W@2@@std@@@2@U?$equal_to@V?$basic_string@_WU?$char_traits@_W@std@@V?$allocator@_W@2@@std@@@2@@2@V?$allocator@V?$basic_string@_WU?$char_traits@_W@std@@V?$allocator@_W@2@@std@@@2@$0A@@std@@@std@@IAEXI@Z 10007850 f i coreclrembedding.obj
 0001:00006850       ?_Init@?$_Hash@V?$_Umap_traits@V?$basic_string@_WU?$char_traits@_W@std@@V?$allocator@_W@2@@std@@V?$vector@V?$basic_string@_WU?$char_traits@_W@std@@V?$allocator@_W@2@@std@@V?$allocator@V?$basic_string@_WU?$char_traits@_W@std@@V?$allocator@_W@2@@std@@@2@@2@V?$_Uhash_compare@V?$basic_string@_WU?$char_traits@_W@std@@V?$allocator@_W@2@@std@@U?$hash@V?$basic_string@_WU?$char_traits@_W@std@@V?$allocator@_W@2@@std@@@2@U?$equal_to@V?$basic_string@_WU?$char_traits@_W@std@@V?$allocator@_W@2@@std@@@2@@2@V?$allocator@U?$pair@$$CBV?$basic_string@_WU?$char_traits@_W@std@@V?$allocator@_W@2@@std@@V?$vector@V?$basic_string@_WU?$char_traits@_W@std@@V?$allocator@_W@2@@std@@V?$allocator@V?$basic_string@_WU?$char_traits@_W@std@@V?$allocator@_W@2@@std@@@2@@2@@std@@@2@$0A@@std@@@std@@IAEXI@Z 10007850 f i coreclrembedding.obj
 0001:00006850       ?_Init@?$_Hash@V?$_Umap_traits@V?$basic_string@_WU?$char_traits@_W@std@@V?$allocator@_W@2@@std@@HV?$_Uhash_compare@V?$basic_string@_WU?$char_traits@_W@std@@V?$allocator@_W@2@@std@@U?$hash@V?$basic_string@_WU?$char_traits@_W@std@@V?$allocator@_W@2@@std@@@2@U?$equal_to@V?$basic_string@_WU?$char_traits@_W@std@@V?$allocator@_W@2@@std@@@2@@2@V?$allocator@U?$pair@$$CBV?$basic_string@_WU?$char_traits@_W@std@@V?$allocator@_W@2@@std@@H@std@@@2@$0A@@std@@@std@@IAEXI@Z 10007850 f i coreclrembedding.obj
 0001:00006850       ?_Init@?$_Hash@V?$_Umap_traits@V?$basic_string@_WU?$char_traits@_W@std@@V?$allocator@_W@2@@std@@Uassets_t@deps_json_t@@V?$_Uhash_compare@V?$basic_string@_WU?$char_traits@_W@std@@V?$allocator@_W@2@@std@@U?$hash@V?$basic_string@_WU?$char_traits@_W@std@@V?$allocator@_W@2@@std@@@2@U?$equal_to@V?$basic_string@_WU?$char_traits@_W@std@@V?$allocator@_W@2@@std@@@2@@2@V?$allocator@U?$pair@$$CBV?$basic_string@_WU?$char_traits@_W@std@@V?$allocator@_W@2@@std@@Uassets_t@deps_json_t@@@std@@@2@$0A@@std@@@std@@IAEXI@Z 10007850 f i coreclrembedding.obj
 0001:00006850       ?_Init@?$_Hash@V?$_Umap_traits@V?$basic_string@_WU?$char_traits@_W@std@@V?$allocator@_W@2@@std@@Urid_assets_t@deps_json_t@@V?$_Uhash_compare@V?$basic_string@_WU?$char_traits@_W@std@@V?$allocator@_W@2@@std@@U?$hash@V?$basic_string@_WU?$char_traits@_W@std@@V?$allocator@_W@2@@std@@@2@U?$equal_to@V?$basic_string@_WU?$char_traits@_W@std@@V?$allocator@_W@2@@std@@@2@@2@V?$allocator@U?$pair@$$CBV?$basic_string@_WU?$char_traits@_W@std@@V?$allocator@_W@2@@std@@Urid_assets_t@deps_json_t@@@std@@@2@$0A@@std@@@std@@IAEXI@Z 10007850 f i coreclrembedding.obj
 0001:00006850       ?_Init@?$_Hash@V?$_Umap_traits@V?$basic_string@_WU?$char_traits@_W@std@@V?$allocator@_W@2@@std@@V12@V?$_Uhash_compare@V?$basic_string@_WU?$char_traits@_W@std@@V?$allocator@_W@2@@std@@U?$hash@V?$basic_string@_WU?$char_traits@_W@std@@V?$allocator@_W@2@@std@@@2@U?$equal_to@V?$basic_string@_WU?$char_traits@_W@std@@V?$allocator@_W@2@@std@@@2@@2@V?$allocator@U?$pair@$$CBV?$basic_string@_WU?$char_traits@_W@std@@V?$allocator@_W@2@@std@@V12@@std@@@2@$0A@@std@@@std@@IAEXI@Z 10007850 f i coreclrembedding.obj
 0001:000068b0       ?_Change_array@?$vector@PBDV?$allocator@PBD@std@@@std@@AAEXQAPBDII@Z 100078b0 f i coreclrembedding.obj
 0001:000068b0       ?_Change_array@?$vector@PB_WV?$allocator@PB_W@std@@@std@@AAEXQAPB_WII@Z 100078b0 f i coreclrembedding.obj
 0001:00006910       ?_Destroy@?$vector@Udeps_entry_t@@V?$allocator@Udeps_entry_t@@@std@@@std@@AAEXPAUdeps_entry_t@@0@Z 10007910 f i coreclrembedding.obj
 0001:00006940       ?deallocate@?$allocator@Udeps_entry_t@@@std@@QAEXQAUdeps_entry_t@@I@Z 10007940 f i coreclrembedding.obj
 0001:00006980       ?clear@?$list@U?$pair@$$CBV?$basic_string@_WU?$char_traits@_W@std@@V?$allocator@_W@2@@std@@Uassets_t@deps_json_t@@@std@@V?$allocator@U?$pair@$$CBV?$basic_string@_WU?$char_traits@_W@std@@V?$allocator@_W@2@@std@@Uassets_t@deps_json_t@@@std@@@2@@std@@QAEXXZ 10007980 f i coreclrembedding.obj
 0001:000069c0       ?_Change_array@?$vector@V?$basic_string@_WU?$char_traits@_W@std@@V?$allocator@_W@2@@std@@V?$allocator@V?$basic_string@_WU?$char_traits@_W@std@@V?$allocator@_W@2@@std@@@2@@std@@AAEXQAV?$basic_string@_WU?$char_traits@_W@std@@V?$allocator@_W@2@@2@II@Z 100079c0 f i coreclrembedding.obj
 0001:00006a50       ?_Destroy@?$vector@V?$basic_string@_WU?$char_traits@_W@std@@V?$allocator@_W@2@@std@@V?$allocator@V?$basic_string@_WU?$char_traits@_W@std@@V?$allocator@_W@2@@std@@@2@@std@@AAEXPAV?$basic_string@_WU?$char_traits@_W@std@@V?$allocator@_W@2@@2@0@Z 10007a50 f i coreclrembedding.obj
 0001:00006a70       ?deallocate@?$allocator@V?$basic_string@_WU?$char_traits@_W@std@@V?$allocator@_W@2@@std@@@std@@QAEXQAV?$basic_string@_WU?$char_traits@_W@std@@V?$allocator@_W@2@@2@I@Z 10007a70 f i coreclrembedding.obj
 0001:00006ab0       ?assign@?$vector@V?$_List_unchecked_iterator@V?$_List_val@U?$_List_simple_types@U?$pair@$$CBV?$basic_string@_WU?$char_traits@_W@std@@V?$allocator@_W@2@@std@@H@std@@@std@@@std@@@std@@V?$allocator@V?$_List_unchecked_iterator@V?$_List_val@U?$_List_simple_types@U?$pair@$$CBV?$basic_string@_WU?$char_traits@_W@std@@V?$allocator@_W@2@@std@@H@std@@@std@@@std@@@std@@@2@@std@@QAEXIABV?$_List_unchecked_iterator@V?$_List_val@U?$_List_simple_types@U?$pair@$$CBV?$basic_string@_WU?$char_traits@_W@std@@V?$allocator@_W@2@@std@@H@std@@@std@@@std@@@2@@Z 10007ab0 f i coreclrembedding.obj
 0001:00006ab0       ?assign@?$vector@V?$_List_unchecked_iterator@V?$_List_val@U?$_List_simple_types@U?$pair@$$CBV?$basic_string@_WU?$char_traits@_W@std@@V?$allocator@_W@2@@std@@V?$vector@V?$basic_string@_WU?$char_traits@_W@std@@V?$allocator@_W@2@@std@@V?$allocator@V?$basic_string@_WU?$char_traits@_W@std@@V?$allocator@_W@2@@std@@@2@@2@@std@@@std@@@std@@@std@@V?$allocator@V?$_List_unchecked_iterator@V?$_List_val@U?$_List_simple_types@U?$pair@$$CBV?$basic_string@_WU?$char_traits@_W@std@@V?$allocator@_W@2@@std@@V?$vector@V?$basic_string@_WU?$char_traits@_W@std@@V?$allocator@_W@2@@std@@V?$allocator@V?$basic_string@_WU?$char_traits@_W@std@@V?$allocator@_W@2@@std@@@2@@2@@std@@@std@@@std@@@std@@@2@@std@@QAEXIABV?$_List_unchecked_iterator@V?$_List_val@U?$_List_simple_types@U?$pair@$$CBV?$basic_string@_WU?$char_traits@_W@std@@V?$allocator@_W@2@@std@@V?$vector@V?$basic_string@_WU?$char_traits@_W@std@@V?$allocator@_W@2@@std@@V?$allocator@V?$basic_string@_WU?$char_traits@_W@std@@V?$allocator@_W@2@@std@@@2@@2@@std@@@std@@@std@@@2@@Z 10007ab0 f i coreclrembedding.obj
 0001:00006ab0       ?assign@?$vector@V?$_List_unchecked_iterator@V?$_List_val@U?$_List_simple_types@U?$pair@$$CBV?$basic_string@_WU?$char_traits@_W@std@@V?$allocator@_W@2@@std@@Urid_assets_t@deps_json_t@@@std@@@std@@@std@@@std@@V?$allocator@V?$_List_unchecked_iterator@V?$_List_val@U?$_List_simple_types@U?$pair@$$CBV?$basic_string@_WU?$char_traits@_W@std@@V?$allocator@_W@2@@std@@Urid_assets_t@deps_json_t@@@std@@@std@@@std@@@std@@@2@@std@@QAEXIABV?$_List_unchecked_iterator@V?$_List_val@U?$_List_simple_types@U?$pair@$$CBV?$basic_string@_WU?$char_traits@_W@std@@V?$allocator@_W@2@@std@@Urid_assets_t@deps_json_t@@@std@@@std@@@std@@@2@@Z 10007ab0 f i coreclrembedding.obj
 0001:00006ab0       ?assign@?$vector@V?$_List_unchecked_const_iterator@V?$_List_val@U?$_List_simple_types@V?$basic_string@_WU?$char_traits@_W@std@@V?$allocator@_W@2@@std@@@std@@@std@@U_Iterator_base0@2@@std@@V?$allocator@V?$_List_unchecked_const_iterator@V?$_List_val@U?$_List_simple_types@V?$basic_string@_WU?$char_traits@_W@std@@V?$allocator@_W@2@@std@@@std@@@std@@U_Iterator_base0@2@@std@@@2@@std@@QAEXIABV?$_List_unchecked_const_iterator@V?$_List_val@U?$_List_simple_types@V?$basic_string@_WU?$char_traits@_W@std@@V?$allocator@_W@2@@std@@@std@@@std@@U_Iterator_base0@2@@2@@Z 10007ab0 f i coreclrembedding.obj
 0001:00006ab0       ?assign@?$vector@V?$_List_unchecked_iterator@V?$_List_val@U?$_List_simple_types@U?$pair@$$CBV?$basic_string@_WU?$char_traits@_W@std@@V?$allocator@_W@2@@std@@Uassets_t@deps_json_t@@@std@@@std@@@std@@@std@@V?$allocator@V?$_List_unchecked_iterator@V?$_List_val@U?$_List_simple_types@U?$pair@$$CBV?$basic_string@_WU?$char_traits@_W@std@@V?$allocator@_W@2@@std@@Uassets_t@deps_json_t@@@std@@@std@@@std@@@std@@@2@@std@@QAEXIABV?$_List_unchecked_iterator@V?$_List_val@U?$_List_simple_types@U?$pair@$$CBV?$basic_string@_WU?$char_traits@_W@std@@V?$allocator@_W@2@@std@@Uassets_t@deps_json_t@@@std@@@std@@@std@@@2@@Z 10007ab0 f i coreclrembedding.obj
 0001:00006ab0       ?assign@?$vector@V?$_List_unchecked_iterator@V?$_List_val@U?$_List_simple_types@U?$pair@$$CBV?$basic_string@_WU?$char_traits@_W@std@@V?$allocator@_W@2@@std@@V12@@std@@@std@@@std@@@std@@V?$allocator@V?$_List_unchecked_iterator@V?$_List_val@U?$_List_simple_types@U?$pair@$$CBV?$basic_string@_WU?$char_traits@_W@std@@V?$allocator@_W@2@@std@@V12@@std@@@std@@@std@@@std@@@2@@std@@QAEXIABV?$_List_unchecked_iterator@V?$_List_val@U?$_List_simple_types@U?$pair@$$CBV?$basic_string@_WU?$char_traits@_W@std@@V?$allocator@_W@2@@std@@V12@@std@@@std@@@std@@@2@@Z 10007ab0 f i coreclrembedding.obj
 0001:00006c10       ?_Freenode@?$_List_buy@V?$basic_string@_WU?$char_traits@_W@std@@V?$allocator@_W@2@@std@@V?$allocator@V?$basic_string@_WU?$char_traits@_W@std@@V?$allocator@_W@2@@std@@@2@@std@@QAEXPAU?$_List_node@V?$basic_string@_WU?$char_traits@_W@std@@V?$allocator@_W@2@@std@@PAX@2@@Z 10007c10 f i coreclrembedding.obj
 0001:00006c80       ?_Freenode@?$_List_buy@U?$pair@$$CBV?$basic_string@_WU?$char_traits@_W@std@@V?$allocator@_W@2@@std@@H@std@@V?$allocator@U?$pair@$$CBV?$basic_string@_WU?$char_traits@_W@std@@V?$allocator@_W@2@@std@@H@std@@@2@@std@@QAEXPAU?$_List_node@U?$pair@$$CBV?$basic_string@_WU?$char_traits@_W@std@@V?$allocator@_W@2@@std@@H@std@@PAX@2@@Z 10007c80 f i coreclrembedding.obj
 0001:00006cf0       ?_Reallocate_exactly@?$vector@V?$_List_unchecked_iterator@V?$_List_val@U?$_List_simple_types@U?$pair@$$CBV?$basic_string@_WU?$char_traits@_W@std@@V?$allocator@_W@2@@std@@Uassets_t@deps_json_t@@@std@@@std@@@std@@@std@@V?$allocator@V?$_List_unchecked_iterator@V?$_List_val@U?$_List_simple_types@U?$pair@$$CBV?$basic_string@_WU?$char_traits@_W@std@@V?$allocator@_W@2@@std@@Uassets_t@deps_json_t@@@std@@@std@@@std@@@std@@@2@@std@@AAEXI@Z 10007cf0 f i coreclrembedding.obj
 0001:00006cf0       ?_Reallocate_exactly@?$vector@V?$_List_unchecked_iterator@V?$_List_val@U?$_List_simple_types@U?$pair@$$CBV?$basic_string@_WU?$char_traits@_W@std@@V?$allocator@_W@2@@std@@V?$vector@V?$basic_string@_WU?$char_traits@_W@std@@V?$allocator@_W@2@@std@@V?$allocator@V?$basic_string@_WU?$char_traits@_W@std@@V?$allocator@_W@2@@std@@@2@@2@@std@@@std@@@std@@@std@@V?$allocator@V?$_List_unchecked_iterator@V?$_List_val@U?$_List_simple_types@U?$pair@$$CBV?$basic_string@_WU?$char_traits@_W@std@@V?$allocator@_W@2@@std@@V?$vector@V?$basic_string@_WU?$char_traits@_W@std@@V?$allocator@_W@2@@std@@V?$allocator@V?$basic_string@_WU?$char_traits@_W@std@@V?$allocator@_W@2@@std@@@2@@2@@std@@@std@@@std@@@std@@@2@@std@@AAEXI@Z 10007cf0 f i coreclrembedding.obj
 0001:00006cf0       ?_Reallocate_exactly@?$vector@V?$_List_unchecked_iterator@V?$_List_val@U?$_List_simple_types@U?$pair@$$CBV?$basic_string@_WU?$char_traits@_W@std@@V?$allocator@_W@2@@std@@H@std@@@std@@@std@@@std@@V?$allocator@V?$_List_unchecked_iterator@V?$_List_val@U?$_List_simple_types@U?$pair@$$CBV?$basic_string@_WU?$char_traits@_W@std@@V?$allocator@_W@2@@std@@H@std@@@std@@@std@@@std@@@2@@std@@AAEXI@Z 10007cf0 f i coreclrembedding.obj
 0001:00006cf0       ?_Reallocate_exactly@?$vector@V?$_List_unchecked_iterator@V?$_List_val@U?$_List_simple_types@U?$pair@$$CBV?$basic_string@_WU?$char_traits@_W@std@@V?$allocator@_W@2@@std@@Urid_assets_t@deps_json_t@@@std@@@std@@@std@@@std@@V?$allocator@V?$_List_unchecked_iterator@V?$_List_val@U?$_List_simple_types@U?$pair@$$CBV?$basic_string@_WU?$char_traits@_W@std@@V?$allocator@_W@2@@std@@Urid_assets_t@deps_json_t@@@std@@@std@@@std@@@std@@@2@@std@@AAEXI@Z 10007cf0 f i coreclrembedding.obj
 0001:00006cf0       ?_Reallocate_exactly@?$vector@V?$_List_unchecked_const_iterator@V?$_List_val@U?$_List_simple_types@V?$basic_string@_WU?$char_traits@_W@std@@V?$allocator@_W@2@@std@@@std@@@std@@U_Iterator_base0@2@@std@@V?$allocator@V?$_List_unchecked_const_iterator@V?$_List_val@U?$_List_simple_types@V?$basic_string@_WU?$char_traits@_W@std@@V?$allocator@_W@2@@std@@@std@@@std@@U_Iterator_base0@2@@std@@@2@@std@@AAEXI@Z 10007cf0 f i coreclrembedding.obj
 0001:00006cf0       ?_Reallocate_exactly@?$vector@V?$_List_unchecked_iterator@V?$_List_val@U?$_List_simple_types@U?$pair@$$CBV?$basic_string@_WU?$char_traits@_W@std@@V?$allocator@_W@2@@std@@V12@@std@@@std@@@std@@@std@@V?$allocator@V?$_List_unchecked_iterator@V?$_List_val@U?$_List_simple_types@U?$pair@$$CBV?$basic_string@_WU?$char_traits@_W@std@@V?$allocator@_W@2@@std@@V12@@std@@@std@@@std@@@std@@@2@@std@@AAEXI@Z 10007cf0 f i coreclrembedding.obj
 0001:00006df0       ?_Xran@?$_String_val@U?$_Simple_types@_W@std@@@std@@SAXXZ 10007df0 f i coreclrembedding.obj
 0001:00006df0       ?_Xran@?$_String_val@U?$_Simple_types@D@std@@@std@@SAXXZ 10007df0 f i fx_muxer.obj
 0001:00006e00       ??$?H_WU?$char_traits@_W@std@@V?$allocator@_W@1@@std@@YA?AV?$basic_string@_WU?$char_traits@_W@std@@V?$allocator@_W@2@@0@QB_WABV10@@Z 10007e00 f i coreclrembedding.obj
 0001:00006ee0       ??$?H_WU?$char_traits@_W@std@@V?$allocator@_W@1@@std@@YA?AV?$basic_string@_WU?$char_traits@_W@std@@V?$allocator@_W@2@@0@ABV10@QB_W@Z 10007ee0 f i coreclrembedding.obj
 0001:00006fb0       ??$?H_WU?$char_traits@_W@std@@V?$allocator@_W@1@@std@@YA?AV?$basic_string@_WU?$char_traits@_W@std@@V?$allocator@_W@2@@0@$$QAV10@ABV10@@Z 10007fb0 f i coreclrembedding.obj
 0001:00007010       ??$?H_WU?$char_traits@_W@std@@V?$allocator@_W@1@@std@@YA?AV?$basic_string@_WU?$char_traits@_W@std@@V?$allocator@_W@2@@0@$$QAV10@0@Z 10008010 f i coreclrembedding.obj
 0001:000070a0       ??$?8_WU?$char_traits@_W@std@@V?$allocator@_W@1@@std@@YA_NABV?$basic_string@_WU?$char_traits@_W@std@@V?$allocator@_W@2@@0@QB_W@Z 100080a0 f i coreclrembedding.obj
 0001:000070f0       ??$_Emplace_reallocate@PB_W@?$vector@PB_WV?$allocator@PB_W@std@@@std@@QAEPAPB_WQAPB_W$$QAPB_W@Z 100080f0 f i coreclrembedding.obj
 0001:000070f0       ??$_Emplace_reallocate@PBD@?$vector@PBDV?$allocator@PBD@std@@@std@@QAEPAPBDQAPBD$$QAPBD@Z 100080f0 f i coreclrembedding.obj
 0001:000070f0       ??$_Emplace_reallocate@ABQBD@?$vector@PBDV?$allocator@PBD@std@@@std@@QAEPAPBDQAPBDABQBD@Z 100080f0 f i coreclrembedding.obj
 0001:00007220       ??$_Range_construct_or_tidy@PBQBD@?$vector@PBDV?$allocator@PBD@std@@@std@@AAEXPBQBD0Uforward_iterator_tag@1@@Z 10008220 f i coreclrembedding.obj
 0001:000072d0       ??$_Resize@V<lambda_6c3b6c2159c8e7d845ab7f290b8f9fcb>@@@?$vector@V?$vector@DV?$allocator@D@std@@@std@@V?$allocator@V?$vector@DV?$allocator@D@std@@@std@@@2@@std@@AAEXIV<lambda_6c3b6c2159c8e7d845ab7f290b8f9fcb>@@@Z 100082d0 f i coreclrembedding.obj
 0001:000074c0       ??$_Emplace_reallocate@V?$basic_string@_WU?$char_traits@_W@std@@V?$allocator@_W@2@@std@@@?$vector@V?$basic_string@_WU?$char_traits@_W@std@@V?$allocator@_W@2@@std@@V?$allocator@V?$basic_string@_WU?$char_traits@_W@std@@V?$allocator@_W@2@@std@@@2@@std@@QAEPAV?$basic_string@_WU?$char_traits@_W@std@@V?$allocator@_W@2@@1@QAV21@$$QAV21@@Z 100084c0 f i coreclrembedding.obj
 0001:00007630       ??$_Emplace_reallocate@ABV?$basic_string@_WU?$char_traits@_W@std@@V?$allocator@_W@2@@std@@@?$vector@V?$basic_string@_WU?$char_traits@_W@std@@V?$allocator@_W@2@@std@@V?$allocator@V?$basic_string@_WU?$char_traits@_W@std@@V?$allocator@_W@2@@std@@@2@@std@@QAEPAV?$basic_string@_WU?$char_traits@_W@std@@V?$allocator@_W@2@@1@QAV21@ABV21@@Z 10008630 f i coreclrembedding.obj
 0001:000077d0       ??$_Ucopy@PBV?$basic_string@_WU?$char_traits@_W@std@@V?$allocator@_W@2@@std@@@?$vector@V?$basic_string@_WU?$char_traits@_W@std@@V?$allocator@_W@2@@std@@V?$allocator@V?$basic_string@_WU?$char_traits@_W@std@@V?$allocator@_W@2@@std@@@2@@std@@AAEPAV?$basic_string@_WU?$char_traits@_W@std@@V?$allocator@_W@2@@1@PBV21@0PAV21@@Z 100087d0 f i fx_muxer.obj
 0001:000077d0       ??$_Ucopy@PAV?$basic_string@_WU?$char_traits@_W@std@@V?$allocator@_W@2@@std@@@?$vector@V?$basic_string@_WU?$char_traits@_W@std@@V?$allocator@_W@2@@std@@V?$allocator@V?$basic_string@_WU?$char_traits@_W@std@@V?$allocator@_W@2@@std@@@2@@std@@AAEPAV?$basic_string@_WU?$char_traits@_W@std@@V?$allocator@_W@2@@1@PAV21@00@Z 100087d0 f i coreclrembedding.obj
 0001:00007850       ??$_Reallocate_grow_by@V<lambda_4755c59c3a9e60a5b049353a7584df55>@@$$V@?$basic_string@_WU?$char_traits@_W@std@@V?$allocator@_W@2@@std@@QAEAAV01@IV<lambda_4755c59c3a9e60a5b049353a7584df55>@@@Z 10008850 f i coreclrembedding.obj
 0001:00007980       ??$_Reallocate_grow_by@V<lambda_2fb699096920f2dc628cb0826b07831d>@@PB_WI@?$basic_string@_WU?$char_traits@_W@std@@V?$allocator@_W@2@@std@@QAEAAV01@IV<lambda_2fb699096920f2dc628cb0826b07831d>@@PB_WI@Z 10008980 f i coreclrembedding.obj
 0001:00007b00       ??$_Destroy_range@V?$allocator@Uprobe_config_t@@@std@@@std@@YAXPAUprobe_config_t@@0AAV?$allocator@Uprobe_config_t@@@0@@Z 10008b00 f i coreclrembedding.obj
 0001:00007b70       ??$_Destroy_range@V?$allocator@V?$vector@DV?$allocator@D@std@@@std@@@std@@@std@@YAXPAV?$vector@DV?$allocator@D@std@@@0@0AAV?$allocator@V?$vector@DV?$allocator@D@std@@@std@@@0@@Z 10008b70 f i coreclrembedding.obj
 0001:00007be0       ??$_Destroy_range@V?$allocator@V?$basic_string@_WU?$char_traits@_W@std@@V?$allocator@_W@2@@std@@@std@@@std@@YAXPAV?$basic_string@_WU?$char_traits@_W@std@@V?$allocator@_W@2@@0@0AAV?$allocator@V?$basic_string@_WU?$char_traits@_W@std@@V?$allocator@_W@2@@std@@@0@@Z 10008be0 f i coreclrembedding.obj
 0001:00007c50       ??$_Fill_unchecked@PAV?$_List_unchecked_iterator@V?$_List_val@U?$_List_simple_types@U?$pair@$$CBV?$basic_string@_WU?$char_traits@_W@std@@V?$allocator@_W@2@@std@@Uassets_t@deps_json_t@@@std@@@std@@@std@@@std@@V12@@std@@YAXPAV?$_List_unchecked_iterator@V?$_List_val@U?$_List_simple_types@U?$pair@$$CBV?$basic_string@_WU?$char_traits@_W@std@@V?$allocator@_W@2@@std@@Uassets_t@deps_json_t@@@std@@@std@@@std@@@0@0ABV10@@Z 10008c50 f i coreclrembedding.obj
 0001:00007c50       ??$_Fill_unchecked@PAV?$_List_unchecked_iterator@V?$_List_val@U?$_List_simple_types@U?$pair@$$CBV?$basic_string@_WU?$char_traits@_W@std@@V?$allocator@_W@2@@std@@Urid_assets_t@deps_json_t@@@std@@@std@@@std@@@std@@V12@@std@@YAXPAV?$_List_unchecked_iterator@V?$_List_val@U?$_List_simple_types@U?$pair@$$CBV?$basic_string@_WU?$char_traits@_W@std@@V?$allocator@_W@2@@std@@Urid_assets_t@deps_json_t@@@std@@@std@@@std@@@0@0ABV10@@Z 10008c50 f i coreclrembedding.obj
 0001:00007c50       ??$_Fill_unchecked@PAV?$_List_unchecked_iterator@V?$_List_val@U?$_List_simple_types@U?$pair@$$CBV?$basic_string@_WU?$char_traits@_W@std@@V?$allocator@_W@2@@std@@V?$vector@V?$basic_string@_WU?$char_traits@_W@std@@V?$allocator@_W@2@@std@@V?$allocator@V?$basic_string@_WU?$char_traits@_W@std@@V?$allocator@_W@2@@std@@@2@@2@@std@@@std@@@std@@@std@@V12@@std@@YAXPAV?$_List_unchecked_iterator@V?$_List_val@U?$_List_simple_types@U?$pair@$$CBV?$basic_string@_WU?$char_traits@_W@std@@V?$allocator@_W@2@@std@@V?$vector@V?$basic_string@_WU?$char_traits@_W@std@@V?$allocator@_W@2@@std@@V?$allocator@V?$basic_string@_WU?$char_traits@_W@std@@V?$allocator@_W@2@@std@@@2@@2@@std@@@std@@@std@@@0@0ABV10@@Z 10008c50 f i coreclrembedding.obj
 0001:00007c50       ??$_Fill_unchecked@PAV?$_List_unchecked_iterator@V?$_List_val@U?$_List_simple_types@U?$pair@$$CBV?$basic_string@_WU?$char_traits@_W@std@@V?$allocator@_W@2@@std@@V12@@std@@@std@@@std@@@std@@V12@@std@@YAXPAV?$_List_unchecked_iterator@V?$_List_val@U?$_List_simple_types@U?$pair@$$CBV?$basic_string@_WU?$char_traits@_W@std@@V?$allocator@_W@2@@std@@V12@@std@@@std@@@std@@@0@0ABV10@@Z 10008c50 f i coreclrembedding.obj
 0001:00007c50       ??$_Fill_unchecked@PAV?$_List_unchecked_const_iterator@V?$_List_val@U?$_List_simple_types@V?$basic_string@_WU?$char_traits@_W@std@@V?$allocator@_W@2@@std@@@std@@@std@@U_Iterator_base0@2@@std@@V12@@std@@YAXPAV?$_List_unchecked_const_iterator@V?$_List_val@U?$_List_simple_types@V?$basic_string@_WU?$char_traits@_W@std@@V?$allocator@_W@2@@std@@@std@@@std@@U_Iterator_base0@2@@0@0ABV10@@Z 10008c50 f i coreclrembedding.obj
 0001:00007c50       ??$_Fill_unchecked@PAV?$_List_unchecked_iterator@V?$_List_val@U?$_List_simple_types@U?$pair@$$CBV?$basic_string@_WU?$char_traits@_W@std@@V?$allocator@_W@2@@std@@H@std@@@std@@@std@@@std@@V12@@std@@YAXPAV?$_List_unchecked_iterator@V?$_List_val@U?$_List_simple_types@U?$pair@$$CBV?$basic_string@_WU?$char_traits@_W@std@@V?$allocator@_W@2@@std@@H@std@@@std@@@std@@@0@0ABV10@@Z 10008c50 f i coreclrembedding.obj
 0001:00007cd0       ??$_Uninitialized_move@PAV?$basic_string@_WU?$char_traits@_W@std@@V?$allocator@_W@2@@std@@PAV12@V?$allocator@V?$basic_string@_WU?$char_traits@_W@std@@V?$allocator@_W@2@@std@@@2@@std@@YAPAV?$basic_string@_WU?$char_traits@_W@std@@V?$allocator@_W@2@@0@QAV10@0PAV10@AAV?$allocator@V?$basic_string@_WU?$char_traits@_W@std@@V?$allocator@_W@2@@std@@@0@@Z 10008cd0 f i coreclrembedding.obj
 0001:00007d30       ??1?$pair@$$CBV?$basic_string@_WU?$char_traits@_W@std@@V?$allocator@_W@2@@std@@V12@@std@@QAE@XZ 10008d30 f i coreclrembedding.obj
 0001:00007dd0       ??1?$pair@$$CBV?$basic_string@_WU?$char_traits@_W@std@@V?$allocator@_W@2@@std@@V?$vector@V?$basic_string@_WU?$char_traits@_W@std@@V?$allocator@_W@2@@std@@V?$allocator@V?$basic_string@_WU?$char_traits@_W@std@@V?$allocator@_W@2@@std@@@2@@2@@std@@QAE@XZ 10008dd0 f i coreclrembedding.obj
 0001:00007e30       ??1?$pair@$$CBV?$basic_string@_WU?$char_traits@_W@std@@V?$allocator@_W@2@@std@@Urid_assets_t@deps_json_t@@@std@@QAE@XZ 10008e30 f i coreclrembedding.obj
 0001:00007e90       ??1?$pair@$$CBV?$basic_string@_WU?$char_traits@_W@std@@V?$allocator@_W@2@@std@@Uassets_t@deps_json_t@@@std@@QAE@XZ 10008e90 f i coreclrembedding.obj
 0001:00007f30       ??0?$_String_val@U?$_Simple_types@_W@std@@@std@@QAE@XZ 10008f30 f i coreclrembedding.obj
 0001:00007f50       ?_Xlen@?$basic_string@_WU?$char_traits@_W@std@@V?$allocator@_W@2@@std@@SAXXZ 10008f50 f i coreclrembedding.obj
 0001:00007f50       ?_Xlen@?$basic_string@DU?$char_traits@D@std@@V?$allocator@D@2@@std@@SAXXZ 10008f50 f i fx_muxer.obj
 0001:00007f60       ?insert@?$basic_string@_WU?$char_traits@_W@std@@V?$allocator@_W@2@@std@@QAEAAV12@IQB_WI@Z 10008f60 f i coreclrembedding.obj
 0001:00008020       ??$_Assign_range@PAV?$basic_string@_WU?$char_traits@_W@std@@V?$allocator@_W@2@@std@@@?$vector@V?$basic_string@_WU?$char_traits@_W@std@@V?$allocator@_W@2@@std@@V?$allocator@V?$basic_string@_WU?$char_traits@_W@std@@V?$allocator@_W@2@@std@@@2@@std@@AAEXPAV?$basic_string@_WU?$char_traits@_W@std@@V?$allocator@_W@2@@1@0Uforward_iterator_tag@1@@Z 10009020 f i coreclrembedding.obj
 0001:00008020       ??$_Assign_range@PBV?$basic_string@_WU?$char_traits@_W@std@@V?$allocator@_W@2@@std@@@?$vector@V?$basic_string@_WU?$char_traits@_W@std@@V?$allocator@_W@2@@std@@V?$allocator@V?$basic_string@_WU?$char_traits@_W@std@@V?$allocator@_W@2@@std@@@2@@std@@AAEXPBV?$basic_string@_WU?$char_traits@_W@std@@V?$allocator@_W@2@@1@0Uforward_iterator_tag@1@@Z 10009020 f i deps_resolver.obj
 0001:00008180       ??$?0V?$allocator@_W@std@@$$V@?$_Compressed_pair@V?$allocator@_W@std@@V?$_String_val@U?$_Simple_types@_W@std@@@2@$00@std@@QAE@U_One_then_variadic_args_t@1@$$QAV?$allocator@_W@1@@Z 10009180 f i coreclrembedding.obj
 0001:000081a0       ??$_Reallocate_grow_by@V<lambda_09fe38f6114539daa867a3e4d6874f49>@@IPB_WI@?$basic_string@_WU?$char_traits@_W@std@@V?$allocator@_W@2@@std@@QAEAAV01@IV<lambda_09fe38f6114539daa867a3e4d6874f49>@@IPB_WI@Z 100091a0 f i coreclrembedding.obj
 0001:00008300       ??1?$_Uninitialized_backout_al@PAV?$basic_string@_WU?$char_traits@_W@std@@V?$allocator@_W@2@@std@@V?$allocator@V?$basic_string@_WU?$char_traits@_W@std@@V?$allocator@_W@2@@std@@@2@@std@@QAE@XZ 10009300 f i coreclrembedding.obj
 0001:00008310       ?_Buynode0@?$_List_alloc@U?$_List_base_types@V?$basic_string@_WU?$char_traits@_W@std@@V?$allocator@_W@2@@std@@V?$allocator@V?$basic_string@_WU?$char_traits@_W@std@@V?$allocator@_W@2@@std@@@2@@std@@@std@@QAEPAU?$_List_node@V?$basic_string@_WU?$char_traits@_W@std@@V?$allocator@_W@2@@std@@PAX@2@PAU32@0@Z 10009310 f i coreclrembedding.obj
 0001:00008340       ?_Buynode0@?$_List_alloc@U?$_List_base_types@U?$pair@$$CBV?$basic_string@_WU?$char_traits@_W@std@@V?$allocator@_W@2@@std@@V12@@std@@V?$allocator@U?$pair@$$CBV?$basic_string@_WU?$char_traits@_W@std@@V?$allocator@_W@2@@std@@V12@@std@@@2@@std@@@std@@QAEPAU?$_List_node@U?$pair@$$CBV?$basic_string@_WU?$char_traits@_W@std@@V?$allocator@_W@2@@std@@V12@@std@@PAX@2@PAU32@0@Z 10009340 f i coreclrembedding.obj
 0001:00008370       ?_Buynode0@?$_List_alloc@U?$_List_base_types@U?$pair@$$CBV?$basic_string@_WU?$char_traits@_W@std@@V?$allocator@_W@2@@std@@V?$vector@V?$basic_string@_WU?$char_traits@_W@std@@V?$allocator@_W@2@@std@@V?$allocator@V?$basic_string@_WU?$char_traits@_W@std@@V?$allocator@_W@2@@std@@@2@@2@@std@@V?$allocator@U?$pair@$$CBV?$basic_string@_WU?$char_traits@_W@std@@V?$allocator@_W@2@@std@@V?$vector@V?$basic_string@_WU?$char_traits@_W@std@@V?$allocator@_W@2@@std@@V?$allocator@V?$basic_string@_WU?$char_traits@_W@std@@V?$allocator@_W@2@@std@@@2@@2@@std@@@2@@std@@@std@@QAEPAU?$_List_node@U?$pair@$$CBV?$basic_string@_WU?$char_traits@_W@std@@V?$allocator@_W@2@@std@@V?$vector@V?$basic_string@_WU?$char_traits@_W@std@@V?$allocator@_W@2@@std@@V?$allocator@V?$basic_string@_WU?$char_traits@_W@std@@V?$allocator@_W@2@@std@@@2@@2@@std@@PAX@2@PAU32@0@Z 10009370 f i coreclrembedding.obj
 0001:000083a0       ?_Buynode0@?$_List_alloc@U?$_List_base_types@U?$pair@$$CBV?$basic_string@_WU?$char_traits@_W@std@@V?$allocator@_W@2@@std@@H@std@@V?$allocator@U?$pair@$$CBV?$basic_string@_WU?$char_traits@_W@std@@V?$allocator@_W@2@@std@@H@std@@@2@@std@@@std@@QAEPAU?$_List_node@U?$pair@$$CBV?$basic_string@_WU?$char_traits@_W@std@@V?$allocator@_W@2@@std@@H@std@@PAX@2@PAU32@0@Z 100093a0 f i coreclrembedding.obj
 0001:000083d0       ?_Buynode0@?$_List_alloc@U?$_List_base_types@U?$pair@$$CBV?$basic_string@_WU?$char_traits@_W@std@@V?$allocator@_W@2@@std@@Urid_assets_t@deps_json_t@@@std@@V?$allocator@U?$pair@$$CBV?$basic_string@_WU?$char_traits@_W@std@@V?$allocator@_W@2@@std@@Urid_assets_t@deps_json_t@@@std@@@2@@std@@@std@@QAEPAU?$_List_node@U?$pair@$$CBV?$basic_string@_WU?$char_traits@_W@std@@V?$allocator@_W@2@@std@@Urid_assets_t@deps_json_t@@@std@@PAX@2@PAU32@0@Z 100093d0 f i coreclrembedding.obj
 0001:00008400       ?_Buynode0@?$_List_alloc@U?$_List_base_types@U?$pair@$$CBV?$basic_string@_WU?$char_traits@_W@std@@V?$allocator@_W@2@@std@@Uassets_t@deps_json_t@@@std@@V?$allocator@U?$pair@$$CBV?$basic_string@_WU?$char_traits@_W@std@@V?$allocator@_W@2@@std@@Uassets_t@deps_json_t@@@std@@@2@@std@@@std@@QAEPAU?$_List_node@U?$pair@$$CBV?$basic_string@_WU?$char_traits@_W@std@@V?$allocator@_W@2@@std@@Uassets_t@deps_json_t@@@std@@PAX@2@PAU32@0@Z 10009400 f i coreclrembedding.obj
 0001:00008430       ?deallocate@?$allocator@U?$_List_node@V?$basic_string@_WU?$char_traits@_W@std@@V?$allocator@_W@2@@std@@PAX@std@@@std@@QAEXQAU?$_List_node@V?$basic_string@_WU?$char_traits@_W@std@@V?$allocator@_W@2@@std@@PAX@2@I@Z 10009430 f i coreclrembedding.obj
 0001:00008450       ?deallocate@?$allocator@U?$_List_node@U?$pair@$$CBV?$basic_string@_WU?$char_traits@_W@std@@V?$allocator@_W@2@@std@@V12@@std@@PAX@std@@@std@@QAEXQAU?$_List_node@U?$pair@$$CBV?$basic_string@_WU?$char_traits@_W@std@@V?$allocator@_W@2@@std@@V12@@std@@PAX@2@I@Z 10009450 f i coreclrembedding.obj
 0001:00008470       ?deallocate@?$allocator@U?$_List_node@U?$pair@$$CBV?$basic_string@_WU?$char_traits@_W@std@@V?$allocator@_W@2@@std@@V?$vector@V?$basic_string@_WU?$char_traits@_W@std@@V?$allocator@_W@2@@std@@V?$allocator@V?$basic_string@_WU?$char_traits@_W@std@@V?$allocator@_W@2@@std@@@2@@2@@std@@PAX@std@@@std@@QAEXQAU?$_List_node@U?$pair@$$CBV?$basic_string@_WU?$char_traits@_W@std@@V?$allocator@_W@2@@std@@V?$vector@V?$basic_string@_WU?$char_traits@_W@std@@V?$allocator@_W@2@@std@@V?$allocator@V?$basic_string@_WU?$char_traits@_W@std@@V?$allocator@_W@2@@std@@@2@@2@@std@@PAX@2@I@Z 10009470 f i coreclrembedding.obj
 0001:00008490       ?deallocate@?$allocator@U?$_List_node@U?$pair@$$CBV?$basic_string@_WU?$char_traits@_W@std@@V?$allocator@_W@2@@std@@H@std@@PAX@std@@@std@@QAEXQAU?$_List_node@U?$pair@$$CBV?$basic_string@_WU?$char_traits@_W@std@@V?$allocator@_W@2@@std@@H@std@@PAX@2@I@Z 10009490 f i coreclrembedding.obj
 0001:000084b0       ?deallocate@?$allocator@U?$_List_node@U?$pair@$$CBV?$basic_string@_WU?$char_traits@_W@std@@V?$allocator@_W@2@@std@@Urid_assets_t@deps_json_t@@@std@@PAX@std@@@std@@QAEXQAU?$_List_node@U?$pair@$$CBV?$basic_string@_WU?$char_traits@_W@std@@V?$allocator@_W@2@@std@@Urid_assets_t@deps_json_t@@@std@@PAX@2@I@Z 100094b0 f i coreclrembedding.obj
 0001:000084d0       ?deallocate@?$allocator@U?$_List_node@U?$pair@$$CBV?$basic_string@_WU?$char_traits@_W@std@@V?$allocator@_W@2@@std@@Uassets_t@deps_json_t@@@std@@PAX@std@@@std@@QAEXQAU?$_List_node@U?$pair@$$CBV?$basic_string@_WU?$char_traits@_W@std@@V?$allocator@_W@2@@std@@Uassets_t@deps_json_t@@@std@@PAX@2@I@Z 100094d0 f i coreclrembedding.obj
 0001:000084f0       ??$_Copy_unchecked@PAV?$basic_string@_WU?$char_traits@_W@std@@V?$allocator@_W@2@@std@@PAV12@@std@@YAPAV?$basic_string@_WU?$char_traits@_W@std@@V?$allocator@_W@2@@0@PAV10@00@Z 100094f0 f i coreclrembedding.obj
 0001:000084f0       ??$_Copy_unchecked@PBV?$basic_string@_WU?$char_traits@_W@std@@V?$allocator@_W@2@@std@@PAV12@@std@@YAPAV?$basic_string@_WU?$char_traits@_W@std@@V?$allocator@_W@2@@0@PBV10@0PAV10@@Z 100094f0 f i deps_resolver.obj
 0001:00008530       ?coreClrFuncProxy@@YAXABV?$FunctionCallbackInfo@VValue@v8@@@Nan@@@Z 10009530 f   coreclrfunc.obj
 0001:00008620       ?InitializeInstance@CoreClrFunc@@CA?AV?$Local@VFunction@v8@@@v8@@PAX@Z 10009620 f   coreclrfunc.obj
 0001:00008980       ?Call@CoreClrFunc@@QAE?AV?$Local@VValue@v8@@@v8@@V23@0@Z 10009980 f   coreclrfunc.obj
 0001:00008d10       ?Initialize@CoreClrFunc@@SAXABV?$FunctionCallbackInfo@VValue@v8@@@Nan@@@Z 10009d10 f   coreclrfunc.obj
 0001:00009140       ?FreeMarshalData@CoreClrFunc@@SAXPAXH@Z 1000a140 f   coreclrfunc.obj
 0001:00009240       ?CopyV8StringBytes@CoreClrFunc@@CAPADV?$Local@VString@v8@@@v8@@@Z 1000a240 f   coreclrfunc.obj
 0001:000092d0       ?MarshalV8ExceptionToCLR@CoreClrFunc@@SAXV?$Local@VValue@v8@@@v8@@PAPAX@Z 1000a2d0 f   coreclrfunc.obj
 0001:00009400       ?MarshalV8ToCLR@CoreClrFunc@@SAXV?$Local@VValue@v8@@@v8@@PAPAXPAH@Z 1000a400 f   coreclrfunc.obj
 0001:00009980       ?MarshalCLRToV8@CoreClrFunc@@SA?AV?$Local@VValue@v8@@@v8@@PAXH@Z 1000a980 f   coreclrfunc.obj
 0001:00009e00       ??$coreClrFuncProxyNearDeath@X@@YAXABV?$WeakCallbackInfo@X@Nan@@@Z 1000ae00 f i coreclrfunc.obj
 0001:00009e40       ??$New@VDate@v8@@N@Nan@@YA?AV?$MaybeLocal@VDate@v8@@@v8@@N@Z 1000ae40 f i coreclrfunc.obj
 0001:00009ee0       ??$invokeparameter@$00@?$WeakCallbackInfo@X@Nan@@CAXABV?$WeakCallbackInfo@V?$WeakCallbackInfo@X@Nan@@@v8@@@Z 1000aee0 f i coreclrfunc.obj
 0001:00009f50       ??$invokeparameter@$0A@@?$WeakCallbackInfo@X@Nan@@CAXABV?$WeakCallbackInfo@V?$WeakCallbackInfo@X@Nan@@@v8@@@Z 1000af50 f i coreclrfunc.obj
 0001:00009fb0       ?Call@CoreClrNodejsFunc@@SAXPAXHPAV1@0P6GX0H0H@Z@Z 1000afb0 f   coreclrnodejsfunc.obj
 0001:0000a070       ??0CoreClrFuncInvokeContext@@QAE@V?$Local@VValue@v8@@@v8@@PAX@Z 1000b070 f   coreclrfuncinvokecontext.obj
 0001:0000a120       ?TaskComplete@CoreClrFuncInvokeContext@@SAXPAXHHPAV1@@Z 1000b120 f   coreclrfuncinvokecontext.obj
 0001:0000a190       ?InvokeCallback@CoreClrFuncInvokeContext@@SAXPAX@Z 1000b190 f   coreclrfuncinvokecontext.obj
 0001:0000a3c0       ??1TryCatch@Nan@@QAE@XZ    1000b3c0 f i coreclrfuncinvokecontext.obj
 0001:0000a3d0       ?coreClrV8FuncCallback@@YAXABV?$FunctionCallbackInfo@VValue@v8@@@Nan@@@Z 1000b3d0 f   coreclrnodejsfuncinvokecontext.obj
 0001:0000a590       ?InvokeCallback@CoreClrNodejsFuncInvokeContext@@SAXPAX@Z 1000b590 f   coreclrnodejsfuncinvokecontext.obj
 0001:0000a9a0       ?throwV8Exception@@YA?AV?$Local@VValue@v8@@@v8@@V12@@Z 1000b9a0 f   utils.obj
 0001:0000aa20       ?throwV8Exception@@YA?AV?$Local@VValue@v8@@@v8@@PBDZZ 1000ba20 f   utils.obj
 0001:0000ab60       ?strcasecmp@pal@@YAHPB_W0@Z 1000bb60 f i pal_utils.obj
 0001:0000ab70       ?strncasecmp@pal@@YAHPB_W0H@Z 1000bb70 f i pal_utils.obj
 0001:0000ab80       ?library_exists_in_dir@@YA_NABV?$basic_string@_WU?$char_traits@_W@std@@V?$allocator@_W@2@@std@@0PAV12@@Z 1000bb80 f   pal_utils.obj
 0001:0000ac60       ?coreclr_exists_in_dir@@YA_NABV?$basic_string@_WU?$char_traits@_W@std@@V?$allocator@_W@2@@std@@@Z 1000bc60 f   pal_utils.obj
 0001:0000ad30       ?append_path@@YAXPAV?$basic_string@_WU?$char_traits@_W@std@@V?$allocator@_W@2@@std@@PB_W@Z 1000bd30 f   pal_utils.obj
 0001:0000ae90       ?strip_file_ext@@YA?AV?$basic_string@_WU?$char_traits@_W@std@@V?$allocator@_W@2@@std@@ABV12@@Z 1000be90 f   pal_utils.obj
 0001:0000afa0       ?get_filename_without_ext@@YA?AV?$basic_string@_WU?$char_traits@_W@std@@V?$allocator@_W@2@@std@@ABV12@@Z 1000bfa0 f   pal_utils.obj
 0001:0000b080       ?get_directory@@YA?AV?$basic_string@_WU?$char_traits@_W@std@@V?$allocator@_W@2@@std@@ABV12@@Z 1000c080 f   pal_utils.obj
 0001:0000b110       ?replace_char@@YAXPAV?$basic_string@_WU?$char_traits@_W@std@@V?$allocator@_W@2@@std@@_W1@Z 1000c110 f   pal_utils.obj
 0001:0000b180       ?skip_utf8_bom@@YA_NPAV?$basic_ifstream@DU?$char_traits@D@std@@@std@@@Z 1000c180 f   pal_utils.obj
 0001:0000b1f0       ?equal_range@?$_Hash@V?$_Umap_traits@V?$basic_string@_WU?$char_traits@_W@std@@V?$allocator@_W@2@@std@@V?$vector@V?$basic_string@_WU?$char_traits@_W@std@@V?$allocator@_W@2@@std@@V?$allocator@V?$basic_string@_WU?$char_traits@_W@std@@V?$allocator@_W@2@@std@@@2@@2@V?$_Uhash_compare@V?$basic_string@_WU?$char_traits@_W@std@@V?$allocator@_W@2@@std@@U?$hash@V?$basic_string@_WU?$char_traits@_W@std@@V?$allocator@_W@2@@std@@@2@U?$equal_to@V?$basic_string@_WU?$char_traits@_W@std@@V?$allocator@_W@2@@std@@@2@@2@V?$allocator@U?$pair@$$CBV?$basic_string@_WU?$char_traits@_W@std@@V?$allocator@_W@2@@std@@V?$vector@V?$basic_string@_WU?$char_traits@_W@std@@V?$allocator@_W@2@@std@@V?$allocator@V?$basic_string@_WU?$char_traits@_W@std@@V?$allocator@_W@2@@std@@@2@@2@@std@@@2@$0A@@std@@@std@@QBE?AU?$pair@V?$_List_const_iterator@V?$_List_val@U?$_List_simple_types@U?$pair@$$CBV?$basic_string@_WU?$char_traits@_W@std@@V?$allocator@_W@2@@std@@V?$vector@V?$basic_string@_WU?$char_traits@_W@std@@V?$allocator@_W@2@@std@@V?$allocator@V?$basic_string@_WU?$char_traits@_W@std@@V?$allocator@_W@2@@std@@@2@@2@@std@@@std@@@std@@@std@@V12@@2@ABV?$basic_string@_WU?$char_traits@_W@std@@V?$allocator@_W@2@@2@@Z 1000c1f0 f i pal_utils.obj
 0001:0000b1f0       ?equal_range@?$_Hash@V?$_Uset_traits@V?$basic_string@_WU?$char_traits@_W@std@@V?$allocator@_W@2@@std@@V?$_Uhash_compare@V?$basic_string@_WU?$char_traits@_W@std@@V?$allocator@_W@2@@std@@U?$hash@V?$basic_string@_WU?$char_traits@_W@std@@V?$allocator@_W@2@@std@@@2@U?$equal_to@V?$basic_string@_WU?$char_traits@_W@std@@V?$allocator@_W@2@@std@@@2@@2@V?$allocator@V?$basic_string@_WU?$char_traits@_W@std@@V?$allocator@_W@2@@std@@@2@$0A@@std@@@std@@QBE?AU?$pair@V?$_List_const_iterator@V?$_List_val@U?$_List_simple_types@V?$basic_string@_WU?$char_traits@_W@std@@V?$allocator@_W@2@@std@@@std@@@std@@@std@@V12@@2@ABV?$basic_string@_WU?$char_traits@_W@std@@V?$allocator@_W@2@@2@@Z 1000c1f0 f i deps_resolver.obj
 0001:0000b1f0       ?equal_range@?$_Hash@V?$_Umap_traits@V?$basic_string@_WU?$char_traits@_W@std@@V?$allocator@_W@2@@std@@V12@V?$_Uhash_compare@V?$basic_string@_WU?$char_traits@_W@std@@V?$allocator@_W@2@@std@@U?$hash@V?$basic_string@_WU?$char_traits@_W@std@@V?$allocator@_W@2@@std@@@2@U?$equal_to@V?$basic_string@_WU?$char_traits@_W@std@@V?$allocator@_W@2@@std@@@2@@2@V?$allocator@U?$pair@$$CBV?$basic_string@_WU?$char_traits@_W@std@@V?$allocator@_W@2@@std@@V12@@std@@@2@$0A@@std@@@std@@QBE?AU?$pair@V?$_List_const_iterator@V?$_List_val@U?$_List_simple_types@U?$pair@$$CBV?$basic_string@_WU?$char_traits@_W@std@@V?$allocator@_W@2@@std@@V12@@std@@@std@@@std@@@std@@V12@@2@ABV?$basic_string@_WU?$char_traits@_W@std@@V?$allocator@_W@2@@2@@Z 1000c1f0 f i deps_resolver.obj
 0001:0000b1f0       ?equal_range@?$_Hash@V?$_Umap_traits@V?$basic_string@_WU?$char_traits@_W@std@@V?$allocator@_W@2@@std@@Urid_assets_t@deps_json_t@@V?$_Uhash_compare@V?$basic_string@_WU?$char_traits@_W@std@@V?$allocator@_W@2@@std@@U?$hash@V?$basic_string@_WU?$char_traits@_W@std@@V?$allocator@_W@2@@std@@@2@U?$equal_to@V?$basic_string@_WU?$char_traits@_W@std@@V?$allocator@_W@2@@std@@@2@@2@V?$allocator@U?$pair@$$CBV?$basic_string@_WU?$char_traits@_W@std@@V?$allocator@_W@2@@std@@Urid_assets_t@deps_json_t@@@std@@@2@$0A@@std@@@std@@QBE?AU?$pair@V?$_List_const_iterator@V?$_List_val@U?$_List_simple_types@U?$pair@$$CBV?$basic_string@_WU?$char_traits@_W@std@@V?$allocator@_W@2@@std@@Urid_assets_t@deps_json_t@@@std@@@std@@@std@@@std@@V12@@2@ABV?$basic_string@_WU?$char_traits@_W@std@@V?$allocator@_W@2@@2@@Z 1000c1f0 f i deps_format.obj
 0001:0000b1f0       ?equal_range@?$_Hash@V?$_Umap_traits@V?$basic_string@_WU?$char_traits@_W@std@@V?$allocator@_W@2@@std@@Uassets_t@deps_json_t@@V?$_Uhash_compare@V?$basic_string@_WU?$char_traits@_W@std@@V?$allocator@_W@2@@std@@U?$hash@V?$basic_string@_WU?$char_traits@_W@std@@V?$allocator@_W@2@@std@@@2@U?$equal_to@V?$basic_string@_WU?$char_traits@_W@std@@V?$allocator@_W@2@@std@@@2@@2@V?$allocator@U?$pair@$$CBV?$basic_string@_WU?$char_traits@_W@std@@V?$allocator@_W@2@@std@@Uassets_t@deps_json_t@@@std@@@2@$0A@@std@@@std@@QBE?AU?$pair@V?$_List_const_iterator@V?$_List_val@U?$_List_simple_types@U?$pair@$$CBV?$basic_string@_WU?$char_traits@_W@std@@V?$allocator@_W@2@@std@@Uassets_t@deps_json_t@@@std@@@std@@@std@@@std@@V12@@2@ABV?$basic_string@_WU?$char_traits@_W@std@@V?$allocator@_W@2@@2@@Z 1000c1f0 f i deps_format.obj
 0001:0000b370       ?lower_bound@?$_Hash@V?$_Umap_traits@V?$basic_string@_WU?$char_traits@_W@std@@V?$allocator@_W@2@@std@@Urid_assets_t@deps_json_t@@V?$_Uhash_compare@V?$basic_string@_WU?$char_traits@_W@std@@V?$allocator@_W@2@@std@@U?$hash@V?$basic_string@_WU?$char_traits@_W@std@@V?$allocator@_W@2@@std@@@2@U?$equal_to@V?$basic_string@_WU?$char_traits@_W@std@@V?$allocator@_W@2@@std@@@2@@2@V?$allocator@U?$pair@$$CBV?$basic_string@_WU?$char_traits@_W@std@@V?$allocator@_W@2@@std@@Urid_assets_t@deps_json_t@@@std@@@2@$0A@@std@@@std@@QBE?AV?$_List_const_iterator@V?$_List_val@U?$_List_simple_types@U?$pair@$$CBV?$basic_string@_WU?$char_traits@_W@std@@V?$allocator@_W@2@@std@@Urid_assets_t@deps_json_t@@@std@@@std@@@std@@@2@ABV?$basic_string@_WU?$char_traits@_W@std@@V?$allocator@_W@2@@2@@Z 1000c370 f i deps_format.obj
 0001:0000b370       ?lower_bound@?$_Hash@V?$_Umap_traits@V?$basic_string@_WU?$char_traits@_W@std@@V?$allocator@_W@2@@std@@V?$vector@V?$basic_string@_WU?$char_traits@_W@std@@V?$allocator@_W@2@@std@@V?$allocator@V?$basic_string@_WU?$char_traits@_W@std@@V?$allocator@_W@2@@std@@@2@@2@V?$_Uhash_compare@V?$basic_string@_WU?$char_traits@_W@std@@V?$allocator@_W@2@@std@@U?$hash@V?$basic_string@_WU?$char_traits@_W@std@@V?$allocator@_W@2@@std@@@2@U?$equal_to@V?$basic_string@_WU?$char_traits@_W@std@@V?$allocator@_W@2@@std@@@2@@2@V?$allocator@U?$pair@$$CBV?$basic_string@_WU?$char_traits@_W@std@@V?$allocator@_W@2@@std@@V?$vector@V?$basic_string@_WU?$char_traits@_W@std@@V?$allocator@_W@2@@std@@V?$allocator@V?$basic_string@_WU?$char_traits@_W@std@@V?$allocator@_W@2@@std@@@2@@2@@std@@@2@$0A@@std@@@std@@QAE?AV?$_List_iterator@V?$_List_val@U?$_List_simple_types@U?$pair@$$CBV?$basic_string@_WU?$char_traits@_W@std@@V?$allocator@_W@2@@std@@V?$vector@V?$basic_string@_WU?$char_traits@_W@std@@V?$allocator@_W@2@@std@@V?$allocator@V?$basic_string@_WU?$char_traits@_W@std@@V?$allocator@_W@2@@std@@@2@@2@@std@@@std@@@std@@@2@ABV?$basic_string@_WU?$char_traits@_W@std@@V?$allocator@_W@2@@2@@Z 1000c370 f i pal_utils.obj
 0001:0000b370       ?lower_bound@?$_Hash@V?$_Umap_traits@V?$basic_string@_WU?$char_traits@_W@std@@V?$allocator@_W@2@@std@@V12@V?$_Uhash_compare@V?$basic_string@_WU?$char_traits@_W@std@@V?$allocator@_W@2@@std@@U?$hash@V?$basic_string@_WU?$char_traits@_W@std@@V?$allocator@_W@2@@std@@@2@U?$equal_to@V?$basic_string@_WU?$char_traits@_W@std@@V?$allocator@_W@2@@std@@@2@@2@V?$allocator@U?$pair@$$CBV?$basic_string@_WU?$char_traits@_W@std@@V?$allocator@_W@2@@std@@V12@@std@@@2@$0A@@std@@@std@@QAE?AV?$_List_iterator@V?$_List_val@U?$_List_simple_types@U?$pair@$$CBV?$basic_string@_WU?$char_traits@_W@std@@V?$allocator@_W@2@@std@@V12@@std@@@std@@@std@@@2@ABV?$basic_string@_WU?$char_traits@_W@std@@V?$allocator@_W@2@@2@@Z 1000c370 f i deps_resolver.obj
 0001:0000b370       ?lower_bound@?$_Hash@V?$_Umap_traits@V?$basic_string@_WU?$char_traits@_W@std@@V?$allocator@_W@2@@std@@Uassets_t@deps_json_t@@V?$_Uhash_compare@V?$basic_string@_WU?$char_traits@_W@std@@V?$allocator@_W@2@@std@@U?$hash@V?$basic_string@_WU?$char_traits@_W@std@@V?$allocator@_W@2@@std@@@2@U?$equal_to@V?$basic_string@_WU?$char_traits@_W@std@@V?$allocator@_W@2@@std@@@2@@2@V?$allocator@U?$pair@$$CBV?$basic_string@_WU?$char_traits@_W@std@@V?$allocator@_W@2@@std@@Uassets_t@deps_json_t@@@std@@@2@$0A@@std@@@std@@QAE?AV?$_List_iterator@V?$_List_val@U?$_List_simple_types@U?$pair@$$CBV?$basic_string@_WU?$char_traits@_W@std@@V?$allocator@_W@2@@std@@Uassets_t@deps_json_t@@@std@@@std@@@std@@@2@ABV?$basic_string@_WU?$char_traits@_W@std@@V?$allocator@_W@2@@2@@Z 1000c370 f i deps_format.obj
 0001:0000b370       ?lower_bound@?$_Hash@V?$_Umap_traits@V?$basic_string@_WU?$char_traits@_W@std@@V?$allocator@_W@2@@std@@V?$vector@V?$basic_string@_WU?$char_traits@_W@std@@V?$allocator@_W@2@@std@@V?$allocator@V?$basic_string@_WU?$char_traits@_W@std@@V?$allocator@_W@2@@std@@@2@@2@V?$_Uhash_compare@V?$basic_string@_WU?$char_traits@_W@std@@V?$allocator@_W@2@@std@@U?$hash@V?$basic_string@_WU?$char_traits@_W@std@@V?$allocator@_W@2@@std@@@2@U?$equal_to@V?$basic_string@_WU?$char_traits@_W@std@@V?$allocator@_W@2@@std@@@2@@2@V?$allocator@U?$pair@$$CBV?$basic_string@_WU?$char_traits@_W@std@@V?$allocator@_W@2@@std@@V?$vector@V?$basic_string@_WU?$char_traits@_W@std@@V?$allocator@_W@2@@std@@V?$allocator@V?$basic_string@_WU?$char_traits@_W@std@@V?$allocator@_W@2@@std@@@2@@2@@std@@@2@$0A@@std@@@std@@QBE?AV?$_List_const_iterator@V?$_List_val@U?$_List_simple_types@U?$pair@$$CBV?$basic_string@_WU?$char_traits@_W@std@@V?$allocator@_W@2@@std@@V?$vector@V?$basic_string@_WU?$char_traits@_W@std@@V?$allocator@_W@2@@std@@V?$allocator@V?$basic_string@_WU?$char_traits@_W@std@@V?$allocator@_W@2@@std@@@2@@2@@std@@@std@@@std@@@2@ABV?$basic_string@_WU?$char_traits@_W@std@@V?$allocator@_W@2@@2@@Z 1000c370 f i pal_utils.obj
 0001:0000b370       ?lower_bound@?$_Hash@V?$_Umap_traits@V?$basic_string@_WU?$char_traits@_W@std@@V?$allocator@_W@2@@std@@Urid_assets_t@deps_json_t@@V?$_Uhash_compare@V?$basic_string@_WU?$char_traits@_W@std@@V?$allocator@_W@2@@std@@U?$hash@V?$basic_string@_WU?$char_traits@_W@std@@V?$allocator@_W@2@@std@@@2@U?$equal_to@V?$basic_string@_WU?$char_traits@_W@std@@V?$allocator@_W@2@@std@@@2@@2@V?$allocator@U?$pair@$$CBV?$basic_string@_WU?$char_traits@_W@std@@V?$allocator@_W@2@@std@@Urid_assets_t@deps_json_t@@@std@@@2@$0A@@std@@@std@@QAE?AV?$_List_iterator@V?$_List_val@U?$_List_simple_types@U?$pair@$$CBV?$basic_string@_WU?$char_traits@_W@std@@V?$allocator@_W@2@@std@@Urid_assets_t@deps_json_t@@@std@@@std@@@std@@@2@ABV?$basic_string@_WU?$char_traits@_W@std@@V?$allocator@_W@2@@2@@Z 1000c370 f i deps_format.obj
 0001:0000b370       ?lower_bound@?$_Hash@V?$_Umap_traits@V?$basic_string@_WU?$char_traits@_W@std@@V?$allocator@_W@2@@std@@HV?$_Uhash_compare@V?$basic_string@_WU?$char_traits@_W@std@@V?$allocator@_W@2@@std@@U?$hash@V?$basic_string@_WU?$char_traits@_W@std@@V?$allocator@_W@2@@std@@@2@U?$equal_to@V?$basic_string@_WU?$char_traits@_W@std@@V?$allocator@_W@2@@std@@@2@@2@V?$allocator@U?$pair@$$CBV?$basic_string@_WU?$char_traits@_W@std@@V?$allocator@_W@2@@std@@H@std@@@2@$0A@@std@@@std@@QAE?AV?$_List_iterator@V?$_List_val@U?$_List_simple_types@U?$pair@$$CBV?$basic_string@_WU?$char_traits@_W@std@@V?$allocator@_W@2@@std@@H@std@@@std@@@std@@@2@ABV?$basic_string@_WU?$char_traits@_W@std@@V?$allocator@_W@2@@2@@Z 1000c370 f i deps_format.obj
 0001:0000b4c0       ?_Make_iter@?$_Hash@V?$_Umap_traits@V?$basic_string@_WU?$char_traits@_W@std@@V?$allocator@_W@2@@std@@Uassets_t@deps_json_t@@V?$_Uhash_compare@V?$basic_string@_WU?$char_traits@_W@std@@V?$allocator@_W@2@@std@@U?$hash@V?$basic_string@_WU?$char_traits@_W@std@@V?$allocator@_W@2@@std@@@2@U?$equal_to@V?$basic_string@_WU?$char_traits@_W@std@@V?$allocator@_W@2@@std@@@2@@2@V?$allocator@U?$pair@$$CBV?$basic_string@_WU?$char_traits@_W@std@@V?$allocator@_W@2@@std@@Uassets_t@deps_json_t@@@std@@@2@$0A@@std@@@std@@QBE?AV?$_List_iterator@V?$_List_val@U?$_List_simple_types@U?$pair@$$CBV?$basic_string@_WU?$char_traits@_W@std@@V?$allocator@_W@2@@std@@Uassets_t@deps_json_t@@@std@@@std@@@std@@@2@V?$_List_unchecked_const_iterator@V?$_List_val@U?$_List_simple_types@U?$pair@$$CBV?$basic_string@_WU?$char_traits@_W@std@@V?$allocator@_W@2@@std@@Uassets_t@deps_json_t@@@std@@@std@@@std@@U_Iterator_base0@2@@2@@Z 1000c4c0 f i deps_format.obj
 0001:0000b4c0       ?_Make_iter@?$_Hash@V?$_Uset_traits@V?$basic_string@_WU?$char_traits@_W@std@@V?$allocator@_W@2@@std@@V?$_Uhash_compare@V?$basic_string@_WU?$char_traits@_W@std@@V?$allocator@_W@2@@std@@U?$hash@V?$basic_string@_WU?$char_traits@_W@std@@V?$allocator@_W@2@@std@@@2@U?$equal_to@V?$basic_string@_WU?$char_traits@_W@std@@V?$allocator@_W@2@@std@@@2@@2@V?$allocator@V?$basic_string@_WU?$char_traits@_W@std@@V?$allocator@_W@2@@std@@@2@$0A@@std@@@std@@QBE?AV?$_List_const_iterator@V?$_List_val@U?$_List_simple_types@V?$basic_string@_WU?$char_traits@_W@std@@V?$allocator@_W@2@@std@@@std@@@std@@@2@V?$_List_unchecked_const_iterator@V?$_List_val@U?$_List_simple_types@V?$basic_string@_WU?$char_traits@_W@std@@V?$allocator@_W@2@@std@@@std@@@std@@U_Iterator_base0@2@@2@@Z 1000c4c0 f i deps_resolver.obj
 0001:0000b4c0       ?_Make_iter@?$_Hash@V?$_Umap_traits@V?$basic_string@_WU?$char_traits@_W@std@@V?$allocator@_W@2@@std@@V12@V?$_Uhash_compare@V?$basic_string@_WU?$char_traits@_W@std@@V?$allocator@_W@2@@std@@U?$hash@V?$basic_string@_WU?$char_traits@_W@std@@V?$allocator@_W@2@@std@@@2@U?$equal_to@V?$basic_string@_WU?$char_traits@_W@std@@V?$allocator@_W@2@@std@@@2@@2@V?$allocator@U?$pair@$$CBV?$basic_string@_WU?$char_traits@_W@std@@V?$allocator@_W@2@@std@@V12@@std@@@2@$0A@@std@@@std@@QBE?AV?$_List_iterator@V?$_List_val@U?$_List_simple_types@U?$pair@$$CBV?$basic_string@_WU?$char_traits@_W@std@@V?$allocator@_W@2@@std@@V12@@std@@@std@@@std@@@2@V?$_List_unchecked_const_iterator@V?$_List_val@U?$_List_simple_types@U?$pair@$$CBV?$basic_string@_WU?$char_traits@_W@std@@V?$allocator@_W@2@@std@@V12@@std@@@std@@@std@@U_Iterator_base0@2@@2@@Z 1000c4c0 f i deps_resolver.obj
 0001:0000b4c0       ?_Make_iter@?$_Hash@V?$_Umap_traits@V?$basic_string@_WU?$char_traits@_W@std@@V?$allocator@_W@2@@std@@V?$vector@V?$basic_string@_WU?$char_traits@_W@std@@V?$allocator@_W@2@@std@@V?$allocator@V?$basic_string@_WU?$char_traits@_W@std@@V?$allocator@_W@2@@std@@@2@@2@V?$_Uhash_compare@V?$basic_string@_WU?$char_traits@_W@std@@V?$allocator@_W@2@@std@@U?$hash@V?$basic_string@_WU?$char_traits@_W@std@@V?$allocator@_W@2@@std@@@2@U?$equal_to@V?$basic_string@_WU?$char_traits@_W@std@@V?$allocator@_W@2@@std@@@2@@2@V?$allocator@U?$pair@$$CBV?$basic_string@_WU?$char_traits@_W@std@@V?$allocator@_W@2@@std@@V?$vector@V?$basic_string@_WU?$char_traits@_W@std@@V?$allocator@_W@2@@std@@V?$allocator@V?$basic_string@_WU?$char_traits@_W@std@@V?$allocator@_W@2@@std@@@2@@2@@std@@@2@$0A@@std@@@std@@QBE?AV?$_List_iterator@V?$_List_val@U?$_List_simple_types@U?$pair@$$CBV?$basic_string@_WU?$char_traits@_W@std@@V?$allocator@_W@2@@std@@V?$vector@V?$basic_string@_WU?$char_traits@_W@std@@V?$allocator@_W@2@@std@@V?$allocator@V?$basic_string@_WU?$char_traits@_W@std@@V?$allocator@_W@2@@std@@@2@@2@@std@@@std@@@std@@@2@V?$_List_unchecked_const_iterator@V?$_List_val@U?$_List_simple_types@U?$pair@$$CBV?$basic_string@_WU?$char_traits@_W@std@@V?$allocator@_W@2@@std@@V?$vector@V?$basic_string@_WU?$char_traits@_W@std@@V?$allocator@_W@2@@std@@V?$allocator@V?$basic_string@_WU?$char_traits@_W@std@@V?$allocator@_W@2@@std@@@2@@2@@std@@@std@@@std@@U_Iterator_base0@2@@2@@Z 1000c4c0 f i pal_utils.obj
 0001:0000b4c0       ?_Make_iter@?$_Hash@V?$_Umap_traits@V?$basic_string@_WU?$char_traits@_W@std@@V?$allocator@_W@2@@std@@HV?$_Uhash_compare@V?$basic_string@_WU?$char_traits@_W@std@@V?$allocator@_W@2@@std@@U?$hash@V?$basic_string@_WU?$char_traits@_W@std@@V?$allocator@_W@2@@std@@@2@U?$equal_to@V?$basic_string@_WU?$char_traits@_W@std@@V?$allocator@_W@2@@std@@@2@@2@V?$allocator@U?$pair@$$CBV?$basic_string@_WU?$char_traits@_W@std@@V?$allocator@_W@2@@std@@H@std@@@2@$0A@@std@@@std@@QBE?AV?$_List_iterator@V?$_List_val@U?$_List_simple_types@U?$pair@$$CBV?$basic_string@_WU?$char_traits@_W@std@@V?$allocator@_W@2@@std@@H@std@@@std@@@std@@@2@V?$_List_unchecked_const_iterator@V?$_List_val@U?$_List_simple_types@U?$pair@$$CBV?$basic_string@_WU?$char_traits@_W@std@@V?$allocator@_W@2@@std@@H@std@@@std@@@std@@U_Iterator_base0@2@@2@@Z 1000c4c0 f i deps_format.obj
 0001:0000b4c0       ?_Make_iter@?$_Hash@V?$_Umap_traits@V?$basic_string@_WU?$char_traits@_W@std@@V?$allocator@_W@2@@std@@Urid_assets_t@deps_json_t@@V?$_Uhash_compare@V?$basic_string@_WU?$char_traits@_W@std@@V?$allocator@_W@2@@std@@U?$hash@V?$basic_string@_WU?$char_traits@_W@std@@V?$allocator@_W@2@@std@@@2@U?$equal_to@V?$basic_string@_WU?$char_traits@_W@std@@V?$allocator@_W@2@@std@@@2@@2@V?$allocator@U?$pair@$$CBV?$basic_string@_WU?$char_traits@_W@std@@V?$allocator@_W@2@@std@@Urid_assets_t@deps_json_t@@@std@@@2@$0A@@std@@@std@@QBE?AV?$_List_iterator@V?$_List_val@U?$_List_simple_types@U?$pair@$$CBV?$basic_string@_WU?$char_traits@_W@std@@V?$allocator@_W@2@@std@@Urid_assets_t@deps_json_t@@@std@@@std@@@std@@@2@V?$_List_unchecked_const_iterator@V?$_List_val@U?$_List_simple_types@U?$pair@$$CBV?$basic_string@_WU?$char_traits@_W@std@@V?$allocator@_W@2@@std@@Urid_assets_t@deps_json_t@@@std@@@std@@@std@@U_Iterator_base0@2@@2@@Z 1000c4c0 f i deps_format.obj
 0001:0000b4d0       ??$_Traits_find_last_of@U?$char_traits@_W@std@@@std@@YAIQB_WII0IU?$integral_constant@_N$00@0@@Z 1000c4d0 f i pal_utils.obj
 0001:0000b600       ??$_Reallocate_grow_by@V<lambda_38fb7828f6004e9a4c6a38bfc6df7f44>@@_W@?$basic_string@_WU?$char_traits@_W@std@@V?$allocator@_W@2@@std@@QAEAAV01@IV<lambda_38fb7828f6004e9a4c6a38bfc6df7f44>@@_W@Z 1000c600 f i pal_utils.obj
 0001:0000b750       ?_Mark@?$_String_bitmap@_W$0A@@std@@QAE_NPB_WQB_W@Z 1000c750 f i pal_utils.obj
 0001:0000b790       ??$_Insert@AAU?$pair@$$CBV?$basic_string@_WU?$char_traits@_W@std@@V?$allocator@_W@2@@std@@V?$vector@V?$basic_string@_WU?$char_traits@_W@std@@V?$allocator@_W@2@@std@@V?$allocator@V?$basic_string@_WU?$char_traits@_W@std@@V?$allocator@_W@2@@std@@@2@@2@@std@@V?$_List_unchecked_iterator@V?$_List_val@U?$_List_simple_types@U?$pair@$$CBV?$basic_string@_WU?$char_traits@_W@std@@V?$allocator@_W@2@@std@@V?$vector@V?$basic_string@_WU?$char_traits@_W@std@@V?$allocator@_W@2@@std@@V?$allocator@V?$basic_string@_WU?$char_traits@_W@std@@V?$allocator@_W@2@@std@@@2@@2@@std@@@std@@@std@@@2@@?$_Hash@V?$_Umap_traits@V?$basic_string@_WU?$char_traits@_W@std@@V?$allocator@_W@2@@std@@V?$vector@V?$basic_string@_WU?$char_traits@_W@std@@V?$allocator@_W@2@@std@@V?$allocator@V?$basic_string@_WU?$char_traits@_W@std@@V?$allocator@_W@2@@std@@@2@@2@V?$_Uhash_compare@V?$basic_string@_WU?$char_traits@_W@std@@V?$allocator@_W@2@@std@@U?$hash@V?$basic_string@_WU?$char_traits@_W@std@@V?$allocator@_W@2@@std@@@2@U?$equal_to@V?$basic_string@_WU?$char_traits@_W@std@@V?$allocator@_W@2@@std@@@2@@2@V?$allocator@U?$pair@$$CBV?$basic_string@_WU?$char_traits@_W@std@@V?$allocator@_W@2@@std@@V?$vector@V?$basic_string@_WU?$char_traits@_W@std@@V?$allocator@_W@2@@std@@V?$allocator@V?$basic_string@_WU?$char_traits@_W@std@@V?$allocator@_W@2@@std@@@2@@2@@std@@@2@$0A@@std@@@std@@IAE?AU?$pair@V?$_List_iterator@V?$_List_val@U?$_List_simple_types@U?$pair@$$CBV?$basic_string@_WU?$char_traits@_W@std@@V?$allocator@_W@2@@std@@V?$vector@V?$basic_string@_WU?$char_traits@_W@std@@V?$allocator@_W@2@@std@@V?$allocator@V?$basic_string@_WU?$char_traits@_W@std@@V?$allocator@_W@2@@std@@@2@@2@@std@@@std@@@std@@@std@@_N@1@AAU?$pair@$$CBV?$basic_string@_WU?$char_traits@_W@std@@V?$allocator@_W@2@@std@@V?$vector@V?$basic_string@_WU?$char_traits@_W@std@@V?$allocator@_W@2@@std@@V?$allocator@V?$basic_string@_WU?$char_traits@_W@std@@V?$allocator@_W@2@@std@@@2@@2@@1@V?$_List_unchecked_iterator@V?$_List_val@U?$_List_simple_types@U?$pair@$$CBV?$basic_string@_WU?$char_traits@_W@std@@V?$allocator@_W@2@@std@@V?$vector@V?$basic_string@_WU?$char_traits@_W@std@@V?$allocator@_W@2@@std@@V?$allocator@V?$basic_string@_WU?$char_traits@_W@std@@V?$allocator@_W@2@@std@@@2@@2@@std@@@std@@@std@@@1@@Z 1000c790 f i pal_utils.obj
 0001:0000ba00       ??$_Buynode@ABUpiecewise_construct_t@std@@V?$tuple@ABV?$basic_string@_WU?$char_traits@_W@std@@V?$allocator@_W@2@@std@@@2@V?$tuple@$$V@2@@?$_List_buy@U?$pair@$$CBV?$basic_string@_WU?$char_traits@_W@std@@V?$allocator@_W@2@@std@@V?$vector@V?$basic_string@_WU?$char_traits@_W@std@@V?$allocator@_W@2@@std@@V?$allocator@V?$basic_string@_WU?$char_traits@_W@std@@V?$allocator@_W@2@@std@@@2@@2@@std@@V?$allocator@U?$pair@$$CBV?$basic_string@_WU?$char_traits@_W@std@@V?$allocator@_W@2@@std@@V?$vector@V?$basic_string@_WU?$char_traits@_W@std@@V?$allocator@_W@2@@std@@V?$allocator@V?$basic_string@_WU?$char_traits@_W@std@@V?$allocator@_W@2@@std@@@2@@2@@std@@@2@@std@@QAEPAU?$_List_node@U?$pair@$$CBV?$basic_string@_WU?$char_traits@_W@std@@V?$allocator@_W@2@@std@@V?$vector@V?$basic_string@_WU?$char_traits@_W@std@@V?$allocator@_W@2@@std@@V?$allocator@V?$basic_string@_WU?$char_traits@_W@std@@V?$allocator@_W@2@@std@@@2@@2@@std@@PAX@1@PAU21@0ABUpiecewise_construct_t@1@$$QAV?$tuple@ABV?$basic_string@_WU?$char_traits@_W@std@@V?$allocator@_W@2@@std@@@1@$$QAV?$tuple@$$V@1@@Z 1000ca00 f i pal_utils.obj
 0001:0000ba90       ??$erase@V?$_List_iterator@V?$_List_val@U?$_List_simple_types@U?$pair@$$CBV?$basic_string@_WU?$char_traits@_W@std@@V?$allocator@_W@2@@std@@V?$vector@V?$basic_string@_WU?$char_traits@_W@std@@V?$allocator@_W@2@@std@@V?$allocator@V?$basic_string@_WU?$char_traits@_W@std@@V?$allocator@_W@2@@std@@@2@@2@@std@@@std@@@std@@@std@@X@?$_Hash@V?$_Umap_traits@V?$basic_string@_WU?$char_traits@_W@std@@V?$allocator@_W@2@@std@@V?$vector@V?$basic_string@_WU?$char_traits@_W@std@@V?$allocator@_W@2@@std@@V?$allocator@V?$basic_string@_WU?$char_traits@_W@std@@V?$allocator@_W@2@@std@@@2@@2@V?$_Uhash_compare@V?$basic_string@_WU?$char_traits@_W@std@@V?$allocator@_W@2@@std@@U?$hash@V?$basic_string@_WU?$char_traits@_W@std@@V?$allocator@_W@2@@std@@@2@U?$equal_to@V?$basic_string@_WU?$char_traits@_W@std@@V?$allocator@_W@2@@std@@@2@@2@V?$allocator@U?$pair@$$CBV?$basic_string@_WU?$char_traits@_W@std@@V?$allocator@_W@2@@std@@V?$vector@V?$basic_string@_WU?$char_traits@_W@std@@V?$allocator@_W@2@@std@@V?$allocator@V?$basic_string@_WU?$char_traits@_W@std@@V?$allocator@_W@2@@std@@@2@@2@@std@@@2@$0A@@std@@@std@@QAE?AV?$_List_iterator@V?$_List_val@U?$_List_simple_types@U?$pair@$$CBV?$basic_string@_WU?$char_traits@_W@std@@V?$allocator@_W@2@@std@@V?$vector@V?$basic_string@_WU?$char_traits@_W@std@@V?$allocator@_W@2@@std@@V?$allocator@V?$basic_string@_WU?$char_traits@_W@std@@V?$allocator@_W@2@@std@@@2@@2@@std@@@std@@@std@@@1@V21@@Z 1000ca90 f i pal_utils.obj
 0001:0000bb50       ?setup@trace@@YAXXZ        1000cb50 f   trace.obj
 0001:0000bc30       ?verbose@trace@@YAXPB_WZZ  1000cc30 f   trace.obj
 0001:0000bc30       ?warning@trace@@YAXPB_WZZ  1000cc30 f   trace.obj
 0001:0000bc30       ?info@trace@@YAXPB_WZZ     1000cc30 f   trace.obj
 0001:0000bc80       ?error@trace@@YAXPB_WZZ    1000cc80 f   trace.obj
 0001:0000bcd0       ??0fx_ver_t@@QAE@HHHABV?$basic_string@_WU?$char_traits@_W@std@@V?$allocator@_W@2@@std@@0@Z 1000ccd0 f   fx_ver.obj
 0001:0000bd40       ??1fx_ver_t@@QAE@XZ        1000cd40 f i fx_ver.obj
 0001:0000bde0       ??0fx_ver_t@@QAE@HHH@Z     1000cde0 f   fx_ver.obj
 0001:0000bf30       ?as_str@fx_ver_t@@QBE?AV?$basic_string@_WU?$char_traits@_W@std@@V?$allocator@_W@2@@std@@XZ 1000cf30 f   fx_ver.obj
 0001:0000c080       ??_D?$basic_stringstream@_WU?$char_traits@_W@std@@V?$allocator@_W@2@@std@@QAEXXZ 1000d080 f i fx_ver.obj
 0001:0000c0c0       ?prerelease_glob@fx_ver_t@@QBE?AV?$basic_string@_WU?$char_traits@_W@std@@V?$allocator@_W@2@@std@@XZ 1000d0c0 f   fx_ver.obj
 0001:0000c1c0       ?patch_glob@fx_ver_t@@QBE?AV?$basic_string@_WU?$char_traits@_W@std@@V?$allocator@_W@2@@std@@XZ 1000d1c0 f   fx_ver.obj
 0001:0000c2a0       ?compare@fx_ver_t@@CAHABU1@0@Z 1000d2a0 f   fx_ver.obj
 0001:0000c320       ?try_stou@@YA_NABV?$basic_string@_WU?$char_traits@_W@std@@V?$allocator@_W@2@@std@@PAI@Z 1000d320 f   fx_ver.obj
 0001:0000c3a0       ?parse_internal@@YA_NABV?$basic_string@_WU?$char_traits@_W@std@@V?$allocator@_W@2@@std@@PAUfx_ver_t@@_N@Z 1000d3a0 f   fx_ver.obj
 0001:0000c8e0       ??4fx_ver_t@@QAEAAU0@$$QAU0@@Z 1000d8e0 f i fx_ver.obj
 0001:0000c970       ?parse@fx_ver_t@@SA_NABV?$basic_string@_WU?$char_traits@_W@std@@V?$allocator@_W@2@@std@@PAU1@_N@Z 1000d970 f   fx_ver.obj
 0001:0000ca60       ?compare@?$basic_string@_WU?$char_traits@_W@std@@V?$allocator@_W@2@@std@@QBEHABV12@@Z 1000da60 f i fx_ver.obj
 0001:0000cad0       ?find_first_not_of@?$basic_string@_WU?$char_traits@_W@std@@V?$allocator@_W@2@@std@@QBEIQB_WI@Z 1000dad0 f i fx_ver.obj
 0001:0000cbe0       ??0?$basic_stringstream@_WU?$char_traits@_W@std@@V?$allocator@_W@2@@std@@QAE@H@Z 1000dbe0 f i fx_ver.obj
 0001:0000cca0       ?seekpos@?$basic_stringbuf@_WU?$char_traits@_W@std@@V?$allocator@_W@2@@std@@MAE?AV?$fpos@U_Mbstatet@@@2@V32@H@Z 1000dca0 f i fx_ver.obj
 0001:0000cdb0       ?seekoff@?$basic_stringbuf@_WU?$char_traits@_W@std@@V?$allocator@_W@2@@std@@MAE?AV?$fpos@U_Mbstatet@@@2@_JHH@Z 1000ddb0 f i fx_ver.obj
 0001:0000cf40       ?underflow@?$basic_stringbuf@_WU?$char_traits@_W@std@@V?$allocator@_W@2@@std@@MAEGXZ 1000df40 f i fx_ver.obj
 0001:0000cfb0       ?pbackfail@?$basic_stringbuf@_WU?$char_traits@_W@std@@V?$allocator@_W@2@@std@@MAEGG@Z 1000dfb0 f i fx_ver.obj
 0001:0000d010       ?overflow@?$basic_stringbuf@_WU?$char_traits@_W@std@@V?$allocator@_W@2@@std@@MAEGG@Z 1000e010 f i fx_ver.obj
 0001:0000d1d0       ??1?$basic_stringbuf@_WU?$char_traits@_W@std@@V?$allocator@_W@2@@std@@UAE@XZ 1000e1d0 f i fx_ver.obj
 0001:0000d280       ??_G?$basic_stringstream@_WU?$char_traits@_W@std@@V?$allocator@_W@2@@std@@UAEPAXI@Z 1000e280 f i fx_ver.obj
 0001:0000d280       ??_E?$basic_stringstream@_WU?$char_traits@_W@std@@V?$allocator@_W@2@@std@@UAEPAXI@Z 1000e280 f i * CIL library *:* CIL module *
 0001:0000d2e0       ??_E?$basic_stringbuf@_WU?$char_traits@_W@std@@V?$allocator@_W@2@@std@@UAEPAXI@Z 1000e2e0 f i * CIL library *:* CIL module *
 0001:0000d2e0       ??_G?$basic_stringbuf@_WU?$char_traits@_W@std@@V?$allocator@_W@2@@std@@UAEPAXI@Z 1000e2e0 f i fx_ver.obj
 0001:0000d300       ??1sentry@?$basic_ostream@_WU?$char_traits@_W@std@@@std@@QAE@XZ 1000e300 f i fx_ver.obj
 0001:0000d370       ?str@?$basic_stringbuf@_WU?$char_traits@_W@std@@V?$allocator@_W@2@@std@@QBE?AV?$basic_string@_WU?$char_traits@_W@std@@V?$allocator@_W@2@@2@XZ 1000e370 f i fx_ver.obj
 0001:0000d430       ??1_Sentry_base@?$basic_ostream@_WU?$char_traits@_W@std@@@std@@QAE@XZ 1000e430 f i fx_ver.obj
 0001:0000d480       ??$?6_WU?$char_traits@_W@std@@@std@@YAAAV?$basic_ostream@_WU?$char_traits@_W@std@@@0@AAV10@PB_W@Z 1000e480 f i fx_ver.obj
 0001:0000d6d0       ??$?6_WU?$char_traits@_W@std@@V?$allocator@_W@1@@std@@YAAAV?$basic_ostream@_WU?$char_traits@_W@std@@@0@AAV10@ABV?$basic_string@_WU?$char_traits@_W@std@@V?$allocator@_W@2@@0@@Z 1000e6d0 f i fx_ver.obj
 0001:0000d6f0       ??$_Insert_string@_WU?$char_traits@_W@std@@I@std@@YAAAV?$basic_ostream@_WU?$char_traits@_W@std@@@0@AAV10@QB_WI@Z 1000e6f0 f i fx_ver.obj
 0001:0000d90a       ??_E?$basic_stringstream@_WU?$char_traits@_W@std@@V?$allocator@_W@2@@std@@$4PPPPPPPM@A@AEPAXI@Z 1000e90a f i fx_ver.obj
 0001:0000d920       ??0exception@std@@QAE@ABV01@@Z 1000e920 f i fx_muxer.obj
 0001:0000d950       ??1range_error@std@@UAE@XZ 1000e950 f i asyncrt_utils.obj
 0001:0000d950       ??1bad_cast@std@@UAE@XZ    1000e950 f i fx_muxer.obj
 0001:0000d950       ??1runtime_error@std@@UAE@XZ 1000e950 f i asyncrt_utils.obj
 0001:0000d950       ??1exception@std@@UAE@XZ   1000e950 f i fx_muxer.obj
 0001:0000d970       ?what@exception@std@@UBEPBDXZ 1000e970 f i fx_muxer.obj
 0001:0000d980       ??_Ebad_cast@std@@UAEPAXI@Z 1000e980 f i * CIL library *:* CIL module *
 0001:0000d980       ??_Erange_error@std@@UAEPAXI@Z 1000e980 f i * CIL library *:* CIL module *
 0001:0000d980       ??_Gexception@std@@UAEPAXI@Z 1000e980 f i fx_muxer.obj
 0001:0000d980       ??_Gbad_cast@std@@UAEPAXI@Z 1000e980 f i fx_muxer.obj
 0001:0000d980       ??_Eexception@std@@UAEPAXI@Z 1000e980 f i * CIL library *:* CIL module *
 0001:0000d980       ??_Gruntime_error@std@@UAEPAXI@Z 1000e980 f i asyncrt_utils.obj
 0001:0000d980       ??_Eruntime_error@std@@UAEPAXI@Z 1000e980 f i * CIL library *:* CIL module *
 0001:0000d980       ??_Grange_error@std@@UAEPAXI@Z 1000e980 f i asyncrt_utils.obj
 0001:0000d9b0       ??0bad_cast@std@@QAE@XZ    1000e9b0 f i fx_muxer.obj
 0001:0000d9d0       ??1locale@std@@QAE@XZ      1000e9d0 f i fx_muxer.obj
 0001:0000da20       ??0json_exception@json@web@@QAE@ABQB_W@Z 1000ea20 f i fx_muxer.obj
 0001:0000db10       ?what@json_exception@json@web@@UBEPBDXZ 1000eb10 f i fx_muxer.obj
 0001:0000db20       ??_Ejson_exception@json@web@@UAEPAXI@Z 1000eb20 f i * CIL library *:* CIL module *
 0001:0000db20       ??_Gjson_exception@json@web@@UAEPAXI@Z 1000eb20 f i fx_muxer.obj
 0001:0000dba0       ??1json_exception@json@web@@UAE@XZ 1000eba0 f i fx_muxer.obj
 0001:0000dc10       ??0json_exception@json@web@@QAE@ABV012@@Z 1000ec10 f i fx_muxer.obj
 0001:0000dd30       ?find_by_key@object@json@web@@ABE?AV?$_Vector_const_iterator@V?$_Vector_val@U?$_Simple_types@U?$pair@V?$basic_string@_WU?$char_traits@_W@std@@V?$allocator@_W@2@@std@@Vvalue@json@web@@@std@@@std@@@std@@@std@@ABV?$basic_string@_WU?$char_traits@_W@std@@V?$allocator@_W@2@@5@@Z 1000ed30 f i fx_muxer.obj
 0001:0000de20       ??1value@json@web@@QAE@XZ  1000ee20 f i fx_muxer.obj
 0001:0000de70       ??_D?$basic_ifstream@DU?$char_traits@D@std@@@std@@QAEXXZ 1000ee70 f i fx_muxer.obj
 0001:0000deb0       ?resolve_fx_dir@fx_muxer_t@@SA?AV?$basic_string@_WU?$char_traits@_W@std@@V?$allocator@_W@2@@std@@W4host_mode_t@@ABV23@ABVruntime_config_t@@1@Z 1000eeb0 f   fx_muxer.obj
 0001:0000e5b0       ??4fx_ver_t@@QAEAAU0@ABU0@@Z 1000f5b0 f i fx_muxer.obj
 0001:0000e610       ?resolve_cli_version@fx_muxer_t@@CA?AV?$basic_string@_WU?$char_traits@_W@std@@V?$allocator@_W@2@@std@@ABV23@@Z 1000f610 f   fx_muxer.obj
 0001:0000eb50       ?resolve_sdk_version@@YA?AV?$basic_string@_WU?$char_traits@_W@std@@V?$allocator@_W@2@@std@@V12@@Z 1000fb50 f   fx_muxer.obj
 0001:0000ef70       ?resolve_sdk_dotnet_path@fx_muxer_t@@SA_NABV?$basic_string@_WU?$char_traits@_W@std@@V?$allocator@_W@2@@std@@PAV23@@Z 1000ff70 f   fx_muxer.obj
 0001:0000f600       ??0?$basic_string@DU?$char_traits@D@std@@V?$allocator@D@2@@std@@QAE@QBD@Z 10010600 f i fx_muxer.obj
 0001:0000f640       ??0?$basic_ifstream@DU?$char_traits@D@std@@@std@@QAE@ABV?$basic_string@_WU?$char_traits@_W@std@@V?$allocator@_W@2@@1@HH@Z 10010640 f i fx_muxer.obj
 0001:0000f7d0       ?imbue@?$basic_filebuf@DU?$char_traits@D@std@@@std@@MAEXABVlocale@2@@Z 100107d0 f i fx_muxer.obj
 0001:0000f810       ?sync@?$basic_filebuf@DU?$char_traits@D@std@@@std@@MAEHXZ 10010810 f i fx_muxer.obj
 0001:0000f840       ?setbuf@?$basic_filebuf@DU?$char_traits@D@std@@@std@@MAEPAV?$basic_streambuf@DU?$char_traits@D@std@@@2@PAD_J@Z 10010840 f i fx_muxer.obj
 0001:0000f890       ?seekpos@?$basic_filebuf@DU?$char_traits@D@std@@@std@@MAE?AV?$fpos@U_Mbstatet@@@2@V32@H@Z 10010890 f i fx_muxer.obj
 0001:0000f960       ?seekoff@?$basic_filebuf@DU?$char_traits@D@std@@@std@@MAE?AV?$fpos@U_Mbstatet@@@2@_JHH@Z 10010960 f i fx_muxer.obj
 0001:0000fa70       ?xsputn@?$basic_filebuf@DU?$char_traits@D@std@@@std@@MAE_JPBD_J@Z 10010a70 f i fx_muxer.obj
 0001:0000fb60       ?xsgetn@?$basic_filebuf@DU?$char_traits@D@std@@@std@@MAE_JPAD_J@Z 10010b60 f i fx_muxer.obj
 0001:0000fc70       ?uflow@?$basic_filebuf@DU?$char_traits@D@std@@@std@@MAEHXZ 10010c70 f i fx_muxer.obj
 0001:0000fe90       ?underflow@?$basic_filebuf@DU?$char_traits@D@std@@@std@@MAEHXZ 10010e90 f i fx_muxer.obj
 0001:0000fed0       ?pbackfail@?$basic_filebuf@DU?$char_traits@D@std@@@std@@MAEHH@Z 10010ed0 f i fx_muxer.obj
 0001:0000ff80       ?overflow@?$basic_filebuf@DU?$char_traits@D@std@@@std@@MAEHH@Z 10010f80 f i fx_muxer.obj
 0001:000100e0       ?_Unlock@?$basic_filebuf@DU?$char_traits@D@std@@@std@@UAEXXZ 100110e0 f i fx_muxer.obj
 0001:000100f0       ?_Lock@?$basic_filebuf@DU?$char_traits@D@std@@@std@@UAEXXZ 100110f0 f i fx_muxer.obj
 0001:00010100       ??1?$basic_filebuf@DU?$char_traits@D@std@@@std@@UAE@XZ 10011100 f i fx_muxer.obj
 0001:000101c0       ??_G?$basic_ifstream@DU?$char_traits@D@std@@@std@@UAEPAXI@Z 100111c0 f i fx_muxer.obj
 0001:000101c0       ??_E?$basic_ifstream@DU?$char_traits@D@std@@@std@@UAEPAXI@Z 100111c0 f i * CIL library *:* CIL module *
 0001:00010220       ??_E?$basic_filebuf@DU?$char_traits@D@std@@@std@@UAEPAXI@Z 10011220 f i * CIL library *:* CIL module *
 0001:00010220       ??_G?$basic_filebuf@DU?$char_traits@D@std@@@std@@UAEPAXI@Z 10011220 f i fx_muxer.obj
 0001:00010240       ?push_back@?$basic_string@DU?$char_traits@D@std@@V?$allocator@D@2@@std@@QAEXD@Z 10011240 f i fx_muxer.obj
 0001:00010380       ?assign@?$basic_string@DU?$char_traits@D@std@@V?$allocator@D@2@@std@@QAEAAV12@QBDI@Z 10011380 f i fx_muxer.obj
 0001:000104a0       ?_Reset_back@?$basic_filebuf@DU?$char_traits@D@std@@@std@@AAEXXZ 100114a0 f i fx_muxer.obj
 0001:000104d0       ?_Endwrite@?$basic_filebuf@DU?$char_traits@D@std@@@std@@IAE_NXZ 100114d0 f i fx_muxer.obj
 0001:00010590       ?_Init@?$basic_filebuf@DU?$char_traits@D@std@@@std@@IAEXPAU_iobuf@@W4_Initfl@12@@Z 10011590 f i fx_muxer.obj
 0001:00010630       ??$?9_WU?$char_traits@_W@std@@V?$allocator@_W@1@@std@@YA_NABV?$basic_string@_WU?$char_traits@_W@std@@V?$allocator@_W@2@@0@0@Z 10011630 f i fx_muxer.obj
 0001:00010670       ??$?H_WU?$char_traits@_W@std@@V?$allocator@_W@1@@std@@YA?AV?$basic_string@_WU?$char_traits@_W@std@@V?$allocator@_W@2@@0@ABV10@_W@Z 10011670 f i fx_muxer.obj
 0001:00010740       ??$use_facet@V?$codecvt@DDU_Mbstatet@@@std@@@std@@YAABV?$codecvt@DDU_Mbstatet@@@0@ABVlocale@0@@Z 10011740 f i fx_muxer.obj
 0001:00010840       ??0bad_cast@std@@QAE@ABV01@@Z 10011840 f i fx_muxer.obj
 0001:00010880       ??1?$unique_ptr@V_Facet_base@std@@U?$default_delete@V_Facet_base@std@@@2@@std@@QAE@XZ 10011880 f i fx_muxer.obj
 0001:000108c4       ??_E?$basic_ifstream@DU?$char_traits@D@std@@@std@@$4PPPPPPPM@A@AEPAXI@Z 100118c4 f i fx_muxer.obj
 0001:000108d0       ?default_error_condition@error_category@std@@UBE?AVerror_condition@2@H@Z 100118d0 f i json.obj
 0001:000108e0       ?equivalent@error_category@std@@UBE_NHABVerror_condition@2@@Z 100118e0 f i json.obj
 0001:00010920       ?equivalent@error_category@std@@UBE_NABVerror_code@2@H@Z 10011920 f i json.obj
 0001:00010950       ??0SafeIntException@safeint3@msl@@QAE@W4SafeIntError@12@@Z 10011950 f i json.obj
 0001:00010960       ?SafeIntOnOverflow@?$SafeIntExceptionHandler@VSafeIntException@safeint3@msl@@@SafeIntInternal@safeint3@msl@@SGXXZ 10011960 f i json.obj
 0001:00010980       ?name@json_error_category_impl@details@json@web@@UBEPBDXZ 10011980 f i json.obj
 0001:00010990       ?message@json_error_category_impl@details@json@web@@UBE?AV?$basic_string@DU?$char_traits@D@std@@V?$allocator@D@2@@std@@H@Z 10011990 f i json.obj
 0001:00010a60       ??Aobject@json@web@@QAEAAVvalue@12@ABV?$basic_string@_WU?$char_traits@_W@std@@V?$allocator@_W@2@@std@@@Z 10011a60 f i json.obj
 0001:00010c30       ?compare_pairs@object@json@web@@CA_NABU?$pair@V?$basic_string@_WU?$char_traits@_W@std@@V?$allocator@_W@2@@std@@Vvalue@json@web@@@std@@0@Z 10011c30 f i json.obj
 0001:00010c50       ?find_insert_location@object@json@web@@AAE?AV?$_Vector_iterator@V?$_Vector_val@U?$_Simple_types@U?$pair@V?$basic_string@_WU?$char_traits@_W@std@@V?$allocator@_W@2@@std@@Vvalue@json@web@@@std@@@std@@@std@@@std@@ABV?$basic_string@_WU?$char_traits@_W@std@@V?$allocator@_W@2@@5@@Z 10011c50 f i json.obj
 0001:00010d20       ??1?$pair@V?$basic_string@_WU?$char_traits@_W@std@@V?$allocator@_W@2@@std@@Vvalue@json@web@@@std@@QAE@XZ 10011d20 f i json.obj
 0001:00010dc0       ?has_field@_Value@details@json@web@@UBE_NABV?$basic_string@_WU?$char_traits@_W@std@@V?$allocator@_W@2@@std@@@Z 10011dc0 f i json.obj
 0001:00010dd0       ?as_object@_Value@details@json@web@@UAEAAVobject@34@XZ 10011dd0 f i json.obj
 0001:00010dd0       ?get_field@_Value@details@json@web@@UBE?AVvalue@34@ABV?$basic_string@_WU?$char_traits@_W@std@@V?$allocator@_W@2@@std@@@Z 10011dd0 f i json.obj
 0001:00010dd0       ?cnst_index@_Value@details@json@web@@UBEABVvalue@34@ABV?$basic_string@_WU?$char_traits@_W@std@@V?$allocator@_W@2@@std@@@Z 10011dd0 f i json.obj
 0001:00010dd0       ?as_object@_Value@details@json@web@@UBEABVobject@34@XZ 10011dd0 f i json.obj
 0001:00010dd0       ?index@_Value@details@json@web@@UAEAAVvalue@34@ABV?$basic_string@_WU?$char_traits@_W@std@@V?$allocator@_W@2@@std@@@Z 10011dd0 f i json.obj
 0001:00010e10       ?index@_Value@details@json@web@@UAEAAVvalue@34@I@Z 10011e10 f i json.obj
 0001:00010e10       ?as_array@_Value@details@json@web@@UAEAAVarray@34@XZ 10011e10 f i json.obj
 0001:00010e10       ?get_element@_Value@details@json@web@@UBE?AVvalue@34@I@Z 10011e10 f i json.obj
 0001:00010e10       ?cnst_index@_Value@details@json@web@@UBEABVvalue@34@I@Z 10011e10 f i json.obj
 0001:00010e10       ?as_array@_Value@details@json@web@@UBEABVarray@34@XZ 10011e10 f i json.obj
 0001:00010e50       ?serialize_impl@_Value@details@json@web@@UBEXAAV?$basic_string@DU?$char_traits@D@std@@V?$allocator@D@2@@std@@@Z 10011e50 f i json.obj
 0001:00010e60       ?serialize_impl@_Value@details@json@web@@UBEXAAV?$basic_string@_WU?$char_traits@_W@std@@V?$allocator@_W@2@@std@@@Z 10011e60 f i json.obj
 0001:00010e70       ?to_string@_Value@details@json@web@@UBE?AV?$basic_string@_WU?$char_traits@_W@std@@V?$allocator@_W@2@@std@@XZ 10011e70 f i json.obj
 0001:00010ee0       ?type@_Value@details@json@web@@UBE?AW4value_type@value@34@XZ 10011ee0 f i json.obj
 0001:00010ee0       ?type@_Null@details@json@web@@UBE?AW4value_type@value@34@XZ 10011ee0 f i json.obj
 0001:00010ef0       ?is_integer@_Value@details@json@web@@UBE_NXZ 10011ef0 f i json.obj
 0001:00010ef0       ?is_double@_Value@details@json@web@@UBE_NXZ 10011ef0 f i json.obj
 0001:00010ef0       ?as_integer@_Value@details@json@web@@UBEHXZ 10011ef0 f i json.obj
 0001:00010ef0       ?as_number@_Value@details@json@web@@UAEABVnumber@34@XZ 10011ef0 f i json.obj
 0001:00010ef0       ?as_double@_Value@details@json@web@@UBENXZ 10011ef0 f i json.obj
 0001:00010f30       ?as_bool@_Value@details@json@web@@UBE_NXZ 10011f30 f i json.obj
 0001:00010f70       ?as_string@_Value@details@json@web@@UBEABV?$basic_string@_WU?$char_traits@_W@std@@V?$allocator@_W@2@@std@@XZ 10011f70 f i json.obj
 0001:00010fb0       ?size@_Value@details@json@web@@UBEIXZ 10011fb0 f i json.obj
 0001:00010fb0       __is_c_termination_complete 10011fb0 f i MSVCRT:ucrt_stubs.obj
 0001:00010fb0       ___scrt_stub_for_is_c_termination_complete 10011fb0 f i MSVCRT:ucrt_stubs.obj
 0001:00010fb0       ?type@_Number@details@json@web@@UBE?AW4value_type@value@34@XZ 10011fb0 f i json.obj
 0001:00010fc0       ??1_Value@details@json@web@@UAE@XZ 10011fc0 f i json.obj
 0001:00010fd0       ?format@_Value@details@json@web@@MBEXAAV?$basic_string@DU?$char_traits@D@std@@V?$allocator@D@2@@std@@@Z 10011fd0 f i json.obj
 0001:00011030       ?format@_Value@details@json@web@@MBEXAAV?$basic_string@_WU?$char_traits@_W@std@@V?$allocator@_W@2@@std@@@Z 10012030 f i json.obj
 0001:00011050       ??_G_Number@details@json@web@@UAEPAXI@Z 10012050 f i json.obj
 0001:00011050       ??_G_Null@details@json@web@@UAEPAXI@Z 10012050 f i json.obj
 0001:00011050       ??_G_Value@details@json@web@@UAEPAXI@Z 10012050 f i json.obj
 0001:00011050       ??_E_Number@details@json@web@@UAEPAXI@Z 10012050 f i * CIL library *:* CIL module *
 0001:00011050       ??_G_Boolean@details@json@web@@UAEPAXI@Z 10012050 f i json.obj
 0001:00011050       ??_E_Null@details@json@web@@UAEPAXI@Z 10012050 f i * CIL library *:* CIL module *
 0001:00011050       ??_E_Boolean@details@json@web@@UAEPAXI@Z 10012050 f i * CIL library *:* CIL module *
 0001:00011050       ??_E_Value@details@json@web@@UAEPAXI@Z 10012050 f i * CIL library *:* CIL module *
 0001:00011070       ?_copy_value@_Null@details@json@web@@UAE?AV?$unique_ptr@V_Value@details@json@web@@U?$default_delete@V_Value@details@json@web@@@std@@@std@@XZ 10012070 f i json.obj
 0001:000110a0       ?_copy_value@_Number@details@json@web@@UAE?AV?$unique_ptr@V_Value@details@json@web@@U?$default_delete@V_Value@details@json@web@@@std@@@std@@XZ 100120a0 f i json.obj
 0001:000110d0       ?is_integer@_Number@details@json@web@@UBE_NXZ 100120d0 f i json.obj
 0001:000110e0       ?is_double@_Number@details@json@web@@UBE_NXZ 100120e0 f i json.obj
 0001:000110f0       ?as_double@_Number@details@json@web@@UBENXZ 100120f0 f i json.obj
 0001:00011160       ?as_integer@_Number@details@json@web@@UBEHXZ 10012160 f i json.obj
 0001:00011170       ?as_number@_Number@details@json@web@@UAEABVnumber@34@XZ 10012170 f i json.obj
 0001:00011180       ?_copy_value@_Boolean@details@json@web@@UAE?AV?$unique_ptr@V_Value@details@json@web@@U?$default_delete@V_Value@details@json@web@@@std@@@std@@XZ 10012180 f i json.obj
 0001:000111b0       ?type@_Boolean@details@json@web@@UBE?AW4value_type@value@34@XZ 100121b0 f i json.obj
 0001:000111c0       ?as_bool@_Boolean@details@json@web@@UBE_NXZ 100121c0 f i json.obj
 0001:000111d0       ?format@_Boolean@details@json@web@@MBEXAAV?$basic_string@DU?$char_traits@D@std@@V?$allocator@D@2@@std@@@Z 100121d0 f i json.obj
 0001:000111f0       ?format@_Boolean@details@json@web@@MBEXAAV?$basic_string@_WU?$char_traits@_W@std@@V?$allocator@_W@2@@std@@@Z 100121f0 f i json.obj
 0001:00011230       ?_copy_value@_String@details@json@web@@UAE?AV?$unique_ptr@V_Value@details@json@web@@U?$default_delete@V_Value@details@json@web@@@std@@@std@@XZ 10012230 f i json.obj
 0001:000112a0       ?type@_String@details@json@web@@UBE?AW4value_type@value@34@XZ 100122a0 f i json.obj
 0001:000112b0       ?serialize_impl@_String@details@json@web@@UBEXAAV?$basic_string@DU?$char_traits@D@std@@V?$allocator@D@2@@std@@@Z 100122b0 f i json.obj
 0001:000112e0       ?serialize_impl@_String@details@json@web@@UBEXAAV?$basic_string@_WU?$char_traits@_W@std@@V?$allocator@_W@2@@std@@@Z 100122e0 f i json.obj
 0001:00011310       ??_E_String@details@json@web@@UAEPAXI@Z 10012310 f i * CIL library *:* CIL module *
 0001:00011310       ??_G_String@details@json@web@@UAEPAXI@Z 10012310 f i json.obj
 0001:00011380       ?_copy_value@_Object@details@json@web@@UAE?AV?$unique_ptr@V_Value@details@json@web@@U?$default_delete@V_Value@details@json@web@@@std@@@std@@XZ 10012380 f i json.obj
 0001:00011400       ?as_array@_Array@details@json@web@@UAEAAVarray@34@XZ 10012400 f i json.obj
 0001:00011400       ?as_string@_String@details@json@web@@UBEABV?$basic_string@_WU?$char_traits@_W@std@@V?$allocator@_W@2@@std@@XZ 10012400 f i json_serialization.obj
 0001:00011400       ?as_object@_Object@details@json@web@@UAEAAVobject@34@XZ 10012400 f i json.obj
 0001:00011400       ?as_object@_Object@details@json@web@@UBEABVobject@34@XZ 10012400 f i json.obj
 0001:00011400       ?as_array@_Array@details@json@web@@UBEABVarray@34@XZ 10012400 f i json.obj
 0001:00011410       ?type@_Object@details@json@web@@UBE?AW4value_type@value@34@XZ 10012410 f i json.obj
 0001:00011420       ?serialize_impl@_Object@details@json@web@@UBEXAAV?$basic_string@DU?$char_traits@D@std@@V?$allocator@D@2@@std@@@Z 10012420 f i json.obj
 0001:00011450       ?serialize_impl@_Object@details@json@web@@UBEXAAV?$basic_string@_WU?$char_traits@_W@std@@V?$allocator@_W@2@@std@@@Z 10012450 f i json.obj
 0001:00011480       ?size@_Object@details@json@web@@UBEIXZ 10012480 f i json.obj
 0001:000114a0       ?format@_Object@details@json@web@@MBEXAAV?$basic_string@DU?$char_traits@D@std@@V?$allocator@D@2@@std@@@Z 100124a0 f i json.obj
 0001:00011530       ?format@_Object@details@json@web@@MBEXAAV?$basic_string@_WU?$char_traits@_W@std@@V?$allocator@_W@2@@std@@@Z 10012530 f i json.obj
 0001:00011540       ?get_reserve_size@_Object@details@json@web@@ABEIXZ 10012540 f i json.obj
 0001:000115a0       ??_E_Object@details@json@web@@UAEPAXI@Z 100125a0 f i * CIL library *:* CIL module *
 0001:000115a0       ??_G_Object@details@json@web@@UAEPAXI@Z 100125a0 f i json.obj
 0001:000115d0       ?_copy_value@_Array@details@json@web@@UAE?AV?$unique_ptr@V_Value@details@json@web@@U?$default_delete@V_Value@details@json@web@@@std@@@std@@XZ 100125d0 f i json.obj
 0001:00011640       ?type@_Array@details@json@web@@UBE?AW4value_type@value@34@XZ 10012640 f i json.obj
 0001:00011650       ?index@_Array@details@json@web@@UAEAAVvalue@34@I@Z 10012650 f i json.obj
 0001:000116a0       ?serialize_impl@_Array@details@json@web@@UBEXAAV?$basic_string@DU?$char_traits@D@std@@V?$allocator@D@2@@std@@@Z 100126a0 f i json.obj
 0001:000116d0       ?serialize_impl@_Array@details@json@web@@UBEXAAV?$basic_string@_WU?$char_traits@_W@std@@V?$allocator@_W@2@@std@@@Z 100126d0 f i json.obj
 0001:00011700       ?size@_Array@details@json@web@@UBEIXZ 10012700 f i json.obj
 0001:00011710       ?format@_Array@details@json@web@@MBEXAAV?$basic_string@DU?$char_traits@D@std@@V?$allocator@D@2@@std@@@Z 10012710 f i json.obj
 0001:00011790       ?format@_Array@details@json@web@@MBEXAAV?$basic_string@_WU?$char_traits@_W@std@@V?$allocator@_W@2@@std@@@Z 10012790 f i json.obj
 0001:000117a0       ?get_reserve_size@_Array@details@json@web@@ABEIXZ 100127a0 f i json.obj
 0001:000117e0       ??_E_Array@details@json@web@@UAEPAXI@Z 100127e0 f i * CIL library *:* CIL module *
 0001:000117e0       ??_G_Array@details@json@web@@UAEPAXI@Z 100127e0 f i json.obj
 0001:00011810       ?index@_Object@details@json@web@@UAEAAVvalue@34@ABV?$basic_string@_WU?$char_traits@_W@std@@V?$allocator@_W@2@@std@@@Z 10012810 f   json.obj
 0001:00011820       ?has_field@_Object@details@json@web@@UBE_NABV?$basic_string@_WU?$char_traits@_W@std@@V?$allocator@_W@2@@std@@@Z 10012820 f   json.obj
 0001:00011850       ?at@value@json@web@@QBEABV123@ABV?$basic_string@_WU?$char_traits@_W@std@@V?$allocator@_W@2@@std@@@Z 10012850 f   json.obj
 0001:000118c0       ??_Gjson_error_category_impl@details@json@web@@UAEPAXI@Z 100128c0 f i json.obj
 0001:000118c0       ??_Ejson_error_category_impl@details@json@web@@UAEPAXI@Z 100128c0 f i * CIL library *:* CIL module *
 0001:000118c0       ??_G_System_error_category@std@@UAEPAXI@Z 100128c0 f i json_parsing.obj
 0001:000118c0       ??_G_Generic_error_category@std@@UAEPAXI@Z 100128c0 f i json_parsing.obj
 0001:000118c0       ??_E_System_error_category@std@@UAEPAXI@Z 100128c0 f i * CIL library *:* CIL module *
 0001:000118c0       ??_E_Generic_error_category@std@@UAEPAXI@Z 100128c0 f i * CIL library *:* CIL module *
 0001:000118e0       ??1?$unique_ptr@V_Object@details@json@web@@U?$default_delete@V_Object@details@json@web@@@std@@@std@@QAE@XZ 100128e0 f i json.obj
 0001:000118e0       ??1?$unique_ptr@V_Boolean@details@json@web@@U?$default_delete@V_Boolean@details@json@web@@@std@@@std@@QAE@XZ 100128e0 f i json.obj
 0001:000118e0       ??1?$unique_ptr@V_Array@details@json@web@@U?$default_delete@V_Array@details@json@web@@@std@@@std@@QAE@XZ 100128e0 f i json.obj
 0001:000118e0       ??1?$unique_ptr@V_Number@details@json@web@@U?$default_delete@V_Number@details@json@web@@@std@@@std@@QAE@XZ 100128e0 f i json.obj
 0001:000118e0       ??1?$unique_ptr@V_String@details@json@web@@U?$default_delete@V_String@details@json@web@@@std@@@std@@QAE@XZ 100128e0 f i json.obj
 0001:000118f0       ?reserve@?$basic_string@DU?$char_traits@D@std@@V?$allocator@D@2@@std@@QAEXI@Z 100128f0 f i json.obj
 0001:00011a30       ?append@?$basic_string@DU?$char_traits@D@std@@V?$allocator@D@2@@std@@QAEAAV12@QBD@Z 10012a30 f i json.obj
 0001:00011aa0       ?_Tidy@?$vector@Vvalue@json@web@@V?$allocator@Vvalue@json@web@@@std@@@std@@AAEXXZ 10012aa0 f i json.obj
 0001:00011b00       ?_Buy@?$vector@Vvalue@json@web@@V?$allocator@Vvalue@json@web@@@std@@@std@@AAE_NI@Z 10012b00 f i json.obj
 0001:00011bc0       ?_Udefault@?$vector@Vvalue@json@web@@V?$allocator@Vvalue@json@web@@@std@@@std@@AAEPAVvalue@json@web@@PAV345@I@Z 10012bc0 f i json.obj
 0001:00011c40       ?_Tidy@?$vector@U?$pair@V?$basic_string@_WU?$char_traits@_W@std@@V?$allocator@_W@2@@std@@Vvalue@json@web@@@std@@V?$allocator@U?$pair@V?$basic_string@_WU?$char_traits@_W@std@@V?$allocator@_W@2@@std@@Vvalue@json@web@@@std@@@2@@std@@AAEXXZ 10012c40 f i json.obj
 0001:00011cd0       ?_Become_small@?$basic_string@DU?$char_traits@D@std@@V?$allocator@D@2@@std@@QAEXXZ 10012cd0 f i json.obj
 0001:00011d20       ?append@?$basic_string@DU?$char_traits@D@std@@V?$allocator@D@2@@std@@QAEAAV12@QBDI@Z 10012d20 f i json.obj
 0001:00011d80       ?_Destroy@?$vector@Vvalue@json@web@@V?$allocator@Vvalue@json@web@@@std@@@std@@AAEXPAVvalue@json@web@@0@Z 10012d80 f i json.obj
 0001:00011df0       ?deallocate@?$allocator@Vvalue@json@web@@@std@@QAEXQAVvalue@json@web@@I@Z 10012df0 f i json.obj
 0001:00011e30       ??$sort@V?$_Vector_iterator@V?$_Vector_val@U?$_Simple_types@U?$pair@V?$basic_string@_WU?$char_traits@_W@std@@V?$allocator@_W@2@@std@@Vvalue@json@web@@@std@@@std@@@std@@@std@@P6A_NABU?$pair@V?$basic_string@_WU?$char_traits@_W@std@@V?$allocator@_W@2@@std@@Vvalue@json@web@@@2@0@Z@std@@YAXV?$_Vector_iterator@V?$_Vector_val@U?$_Simple_types@U?$pair@V?$basic_string@_WU?$char_traits@_W@std@@V?$allocator@_W@2@@std@@Vvalue@json@web@@@std@@@std@@@std@@@0@0P6A_NABU?$pair@V?$basic_string@_WU?$char_traits@_W@std@@V?$allocator@_W@2@@std@@Vvalue@json@web@@@0@1@Z@Z 10012e30 f i json.obj
 0001:00011e70       ??$make_unique@V_Null@details@json@web@@@details@utility@@YA?AV?$unique_ptr@V_Null@details@json@web@@U?$default_delete@V_Null@details@json@web@@@std@@@std@@XZ 10012e70 f i json.obj
 0001:00011ea0       ??$format_impl@_W@_Object@details@json@web@@ABEXAAV?$basic_string@_WU?$char_traits@_W@std@@V?$allocator@_W@2@@std@@@Z 10012ea0 f i json.obj
 0001:00012010       ??$format_impl@_W@_Array@details@json@web@@ABEXAAV?$basic_string@_WU?$char_traits@_W@std@@V?$allocator@_W@2@@std@@@Z 10013010 f i json.obj
 0001:00012110       ??$make_unique@V_Number@details@json@web@@AA_J@details@utility@@YA?AV?$unique_ptr@V_Number@details@json@web@@U?$default_delete@V_Number@details@json@web@@@std@@@std@@AA_J@Z 10013110 f i json.obj
 0001:00012170       ??$make_unique@V_Number@details@json@web@@AA_K@details@utility@@YA?AV?$unique_ptr@V_Number@details@json@web@@U?$default_delete@V_Number@details@json@web@@@std@@@std@@AA_K@Z 10013170 f i json.obj
 0001:000121b0       ??$_Resize@V<lambda_78f2db8de09dca8a4d752f953ffc629b>@@@?$vector@Vvalue@json@web@@V?$allocator@Vvalue@json@web@@@std@@@std@@AAEXIV<lambda_78f2db8de09dca8a4d752f953ffc629b>@@@Z 100131b0 f i json.obj
 0001:00012350       ??$_Reallocate_grow_by@V<lambda_ab246b20b9526e2ef7792587e4298a77>@@PBDI@?$basic_string@DU?$char_traits@D@std@@V?$allocator@D@2@@std@@QAEAAV01@IV<lambda_ab246b20b9526e2ef7792587e4298a77>@@PBDI@Z 10013350 f i json.obj
 0001:000124a0       ?_Change_array@?$vector@Vvalue@json@web@@V?$allocator@Vvalue@json@web@@@std@@@std@@AAEXQAVvalue@json@web@@II@Z 100134a0 f i json.obj
 0001:00012510       ?_Umove_if_noexcept@?$vector@Vvalue@json@web@@V?$allocator@Vvalue@json@web@@@std@@@std@@AAEXPAVvalue@json@web@@00@Z 10013510 f i json.obj
 0001:00012590       ??0?$vector@Vvalue@json@web@@V?$allocator@Vvalue@json@web@@@std@@@std@@QAE@ABV01@@Z 10013590 f i json.obj
 0001:00012650       ??0?$vector@U?$pair@V?$basic_string@_WU?$char_traits@_W@std@@V?$allocator@_W@2@@std@@Vvalue@json@web@@@std@@V?$allocator@U?$pair@V?$basic_string@_WU?$char_traits@_W@std@@V?$allocator@_W@2@@std@@Vvalue@json@web@@@std@@@2@@std@@QAE@ABV01@@Z 10013650 f i json.obj
 0001:000127b0       ??$_Sort_unchecked@PAU?$pair@V?$basic_string@_WU?$char_traits@_W@std@@V?$allocator@_W@2@@std@@Vvalue@json@web@@@std@@P6A_NABU12@0@Z@std@@YAXPAU?$pair@V?$basic_string@_WU?$char_traits@_W@std@@V?$allocator@_W@2@@std@@Vvalue@json@web@@@0@0HP6A_NABU10@1@Z@Z 100137b0 f i json.obj
 0001:00012b20       ??$?4V?$basic_string@_WU?$char_traits@_W@std@@V?$allocator@_W@2@@std@@Vvalue@json@web@@$0A@@?$pair@V?$basic_string@_WU?$char_traits@_W@std@@V?$allocator@_W@2@@std@@Vvalue@json@web@@@std@@QAEAAU01@$$QAU01@@Z 10013b20 f i json.obj
 0001:00012b70       ??$_Move_backward_unchecked@PAU?$pair@V?$basic_string@_WU?$char_traits@_W@std@@V?$allocator@_W@2@@std@@Vvalue@json@web@@@std@@PAU12@@std@@YAPAU?$pair@V?$basic_string@_WU?$char_traits@_W@std@@V?$allocator@_W@2@@std@@Vvalue@json@web@@@0@PAU10@00@Z 10013b70 f i json.obj
 0001:00012be0       ??$_Emplace_reallocate@U?$pair@V?$basic_string@_WU?$char_traits@_W@std@@V?$allocator@_W@2@@std@@Vvalue@json@web@@@std@@@?$vector@U?$pair@V?$basic_string@_WU?$char_traits@_W@std@@V?$allocator@_W@2@@std@@Vvalue@json@web@@@std@@V?$allocator@U?$pair@V?$basic_string@_WU?$char_traits@_W@std@@V?$allocator@_W@2@@std@@Vvalue@json@web@@@std@@@2@@std@@QAEPAU?$pair@V?$basic_string@_WU?$char_traits@_W@std@@V?$allocator@_W@2@@std@@Vvalue@json@web@@@1@QAU21@$$QAU21@@Z 10013be0 f i json.obj
 0001:00012d70       ??1?$_Uninitialized_backout_al@PAVvalue@json@web@@V?$allocator@Vvalue@json@web@@@std@@@std@@QAE@XZ 10013d70 f i json.obj
 0001:00012de0       ?_Change_array@?$vector@U?$pair@V?$basic_string@_WU?$char_traits@_W@std@@V?$allocator@_W@2@@std@@Vvalue@json@web@@@std@@V?$allocator@U?$pair@V?$basic_string@_WU?$char_traits@_W@std@@V?$allocator@_W@2@@std@@Vvalue@json@web@@@std@@@2@@std@@AAEXQAU?$pair@V?$basic_string@_WU?$char_traits@_W@std@@V?$allocator@_W@2@@std@@Vvalue@json@web@@@2@II@Z 10013de0 f i json.obj
 0001:00012e90       ??$_Partition_by_median_guess_unchecked@PAU?$pair@V?$basic_string@_WU?$char_traits@_W@std@@V?$allocator@_W@2@@std@@Vvalue@json@web@@@std@@P6A_NABU12@0@Z@std@@YA?AU?$pair@PAU?$pair@V?$basic_string@_WU?$char_traits@_W@std@@V?$allocator@_W@2@@std@@Vvalue@json@web@@@std@@PAU12@@0@PAU?$pair@V?$basic_string@_WU?$char_traits@_W@std@@V?$allocator@_W@2@@std@@Vvalue@json@web@@@0@0P6A_NABU20@1@Z@Z 10013e90 f i json.obj
 0001:00013480       ??$_Insertion_sort_unchecked@PAU?$pair@V?$basic_string@_WU?$char_traits@_W@std@@V?$allocator@_W@2@@std@@Vvalue@json@web@@@std@@P6A_NABU12@0@Z@std@@YAPAU?$pair@V?$basic_string@_WU?$char_traits@_W@std@@V?$allocator@_W@2@@std@@Vvalue@json@web@@@0@PAU10@QAU10@P6A_NABU10@2@Z@Z 10014480 f i json.obj
 0001:000136e0       ??$_Uninitialized_move@PAU?$pair@V?$basic_string@_WU?$char_traits@_W@std@@V?$allocator@_W@2@@std@@Vvalue@json@web@@@std@@PAU12@V?$allocator@U?$pair@V?$basic_string@_WU?$char_traits@_W@std@@V?$allocator@_W@2@@std@@Vvalue@json@web@@@std@@@2@@std@@YAPAU?$pair@V?$basic_string@_WU?$char_traits@_W@std@@V?$allocator@_W@2@@std@@Vvalue@json@web@@@0@QAU10@0PAU10@AAV?$allocator@U?$pair@V?$basic_string@_WU?$char_traits@_W@std@@V?$allocator@_W@2@@std@@Vvalue@json@web@@@std@@@0@@Z 100146e0 f i json.obj
 0001:00013750       ??$_Pop_heap_hole_by_index@PAU?$pair@V?$basic_string@_WU?$char_traits@_W@std@@V?$allocator@_W@2@@std@@Vvalue@json@web@@@std@@U12@P6A_NABU12@0@Z@std@@YAXPAU?$pair@V?$basic_string@_WU?$char_traits@_W@std@@V?$allocator@_W@2@@std@@Vvalue@json@web@@@0@HH$$QAU10@P6A_NABU10@2@Z@Z 10014750 f i json.obj
 0001:00013940       ??1?$_Uninitialized_backout_al@PAU?$pair@V?$basic_string@_WU?$char_traits@_W@std@@V?$allocator@_W@2@@std@@Vvalue@json@web@@@std@@V?$allocator@U?$pair@V?$basic_string@_WU?$char_traits@_W@std@@V?$allocator@_W@2@@std@@Vvalue@json@web@@@std@@@2@@std@@QAE@XZ 10014940 f i json.obj
 0001:00013970       ??$_Med3_unchecked@PAU?$pair@V?$basic_string@_WU?$char_traits@_W@std@@V?$allocator@_W@2@@std@@Vvalue@json@web@@@std@@P6A_NABU12@0@Z@std@@YAXPAU?$pair@V?$basic_string@_WU?$char_traits@_W@std@@V?$allocator@_W@2@@std@@Vvalue@json@web@@@0@00P6A_NABU10@1@Z@Z 10014970 f i json.obj
 0001:00013b10       __vsnprintf_s_l            10014b10 f i json_parsing.obj
 0001:00013b50       __snprintf_s_l             10014b50 f i json_parsing.obj
 0001:00013b80       ?message@error_code@std@@QBE?AV?$basic_string@DU?$char_traits@D@std@@V?$allocator@D@2@@2@XZ 10014b80 f i json_parsing.obj
 0001:00013ba0       ?name@_Generic_error_category@std@@UBEPBDXZ 10014ba0 f i json_parsing.obj
 0001:00013bb0       ?message@_Generic_error_category@std@@UBE?AV?$basic_string@DU?$char_traits@D@std@@V?$allocator@D@2@@2@H@Z 10014bb0 f i json_parsing.obj
 0001:00013c00       ?name@_System_error_category@std@@UBEPBDXZ 10014c00 f i json_parsing.obj
 0001:00013c10       ?message@_System_error_category@std@@UBE?AV?$basic_string@DU?$char_traits@D@std@@V?$allocator@D@2@@2@H@Z 10014c10 f i json_parsing.obj
 0001:00013ec0       ?default_error_condition@_System_error_category@std@@UBE?AVerror_condition@2@H@Z 10014ec0 f i json_parsing.obj
 0001:00014140       ??1Token@?$JSON_Parser@D@details@json@web@@QAE@XZ 10015140 f i json_parsing.obj
 0001:00014190       ?ParseValue@?$JSON_Parser@D@details@json@web@@QAE?AVvalue@34@AAUToken@1234@@Z 10015190 f i json_parsing.obj
 0001:000141e0       ?append@?$basic_string@DU?$char_traits@D@std@@V?$allocator@D@2@@std@@QAEAAV12@ABV12@@Z 100151e0 f i json_parsing.obj
 0001:00014250       ?GetNextToken@?$JSON_Parser@D@details@json@web@@QAEXAAUToken@1234@@Z 10015250 f i json_parsing.obj
 0001:00014540       ?CompleteComment@?$JSON_Parser@D@details@json@web@@MAE_NAAUToken@1234@@Z 10015540 f i json_parsing.obj
 0001:000145e0       ?CompleteStringLiteral@?$JSON_Parser@D@details@json@web@@MAE_NAAUToken@1234@@Z 100155e0 f i json_parsing.obj
 0001:00014640       ?_ParseValue@?$JSON_Parser@D@details@json@web@@AAE?AV?$unique_ptr@V_Value@details@json@web@@U?$default_delete@V_Value@details@json@web@@@std@@@std@@AAUToken@1234@@Z 10015640 f i json_parsing.obj
 0001:00014920       ?NextCharacter@?$JSON_StreamParser@D@details@json@web@@MAEHXZ 10015920 f i json_parsing.obj
 0001:00014950       ?PeekCharacter@?$JSON_StreamParser@D@details@json@web@@MAEHXZ 10015950 f i json_parsing.obj
 0001:00014960       ??$CreateException@UToken@?$JSON_Parser@D@details@json@web@@@details@json@web@@YAXABUToken@?$JSON_Parser@D@012@ABV?$basic_string@_WU?$char_traits@_W@std@@V?$allocator@_W@2@@std@@@Z 10015960 f i json_parsing.obj
 0001:00014a30       ??$SetErrorCode@UToken@?$JSON_Parser@D@details@json@web@@@details@json@web@@YAXAAUToken@?$JSON_Parser@D@012@W4json_error@012@@Z 10015a30 f i json_parsing.obj
 0001:00014a80       ??$_Reallocate_grow_by@V<lambda_c1b8c41cb4019640539cfd828748c4d4>@@ID@?$basic_string@DU?$char_traits@D@std@@V?$allocator@D@2@@std@@QAEAAV01@IV<lambda_c1b8c41cb4019640539cfd828748c4d4>@@ID@Z 10015a80 f i json_parsing.obj
 0001:00014bd0       ??_D?$basic_ostringstream@_WU?$char_traits@_W@std@@V?$allocator@_W@2@@std@@QAEXXZ 10015bd0 f i json_parsing.obj
 0001:00014c10       ?CreateToken@?$JSON_Parser@D@details@json@web@@AAEXAAUToken@1234@W4Kind@51234@AAULocation@1234@@Z 10015c10 f i json_parsing.obj
 0001:00014c50       ??4?$unique_ptr@V_Number@details@json@web@@U?$default_delete@V_Number@details@json@web@@@std@@@std@@QAEAAV01@$$QAV01@@Z 10015c50 f i json_parsing.obj
 0001:00014c80       ?resize@?$basic_string@_WU?$char_traits@_W@std@@V?$allocator@_W@2@@std@@QAEXI_W@Z 10015c80 f i json_parsing.obj
 0001:00014d00       ?str@?$basic_ostringstream@_WU?$char_traits@_W@std@@V?$allocator@_W@2@@std@@QBE?AV?$basic_string@_WU?$char_traits@_W@std@@V?$allocator@_W@2@@2@XZ 10015d00 f i json_parsing.obj
 0001:00014d20       ??0?$basic_ostringstream@_WU?$char_traits@_W@std@@V?$allocator@_W@2@@std@@QAE@H@Z 10015d20 f i json_parsing.obj
 0001:00014de0       ??_G?$basic_ostringstream@_WU?$char_traits@_W@std@@V?$allocator@_W@2@@std@@UAEPAXI@Z 10015de0 f i json_parsing.obj
 0001:00014de0       ??_E?$basic_ostringstream@_WU?$char_traits@_W@std@@V?$allocator@_W@2@@std@@UAEPAXI@Z 10015de0 f i * CIL library *:* CIL module *
 0001:00014e40       ?handle_unescape_char@?$JSON_Parser@D@details@json@web@@IAE_NAAUToken@1234@@Z 10015e40 f i json_parsing.obj
 0001:00015150       ?CompleteNumberLiteral@?$JSON_Parser@D@details@json@web@@AAE_NDAAUToken@1234@@Z 10016150 f i json_parsing.obj
 0001:000155c0       ?_ParseObject@?$JSON_Parser@D@details@json@web@@AAE?AV?$unique_ptr@V_Value@details@json@web@@U?$default_delete@V_Value@details@json@web@@@std@@@std@@AAUToken@1234@@Z 100165c0 f i json_parsing.obj
 0001:00015a00       ?_ParseArray@?$JSON_Parser@D@details@json@web@@AAE?AV?$unique_ptr@V_Value@details@json@web@@U?$default_delete@V_Value@details@json@web@@@std@@@std@@AAUToken@1234@@Z 10016a00 f i json_parsing.obj
 0001:00015bd0       ??$_Immortalize_impl@V_Generic_error_category@std@@@std@@YGHPAX0PAPAX@Z 10016bd0 f i json_parsing.obj
 0001:00015bf0       ??$_Immortalize_impl@V_System_error_category@std@@@std@@YGHPAX0PAPAX@Z 10016bf0 f i json_parsing.obj
 0001:00015c10       ??$_Reallocate_grow_by@V<lambda_c3135ae829aeedc0a8af1bd1e887c66a>@@I_W@?$basic_string@_WU?$char_traits@_W@std@@V?$allocator@_W@2@@std@@QAEAAV01@IV<lambda_c3135ae829aeedc0a8af1bd1e887c66a>@@I_W@Z 10016c10 f i json_parsing.obj
 0001:00015d90       ?push_back@?$vector@DV?$allocator@D@std@@@std@@QAEX$$QAD@Z 10016d90 f i json_parsing.obj
 0001:00015dc0       ??0?$vector@DV?$allocator@D@std@@@std@@QAE@IABV?$allocator@D@1@@Z 10016dc0 f i json_parsing.obj
 0001:00015e10       ??1?$vector@_WV?$allocator@_W@std@@@std@@QAE@XZ 10016e10 f i json_parsing.obj
 0001:00015e70       ??$_Emplace_reallocate@V?$basic_string@_WU?$char_traits@_W@std@@V?$allocator@_W@2@@std@@Vvalue@json@web@@@?$vector@U?$pair@V?$basic_string@_WU?$char_traits@_W@std@@V?$allocator@_W@2@@std@@Vvalue@json@web@@@std@@V?$allocator@U?$pair@V?$basic_string@_WU?$char_traits@_W@std@@V?$allocator@_W@2@@std@@Vvalue@json@web@@@std@@@2@@std@@QAEPAU?$pair@V?$basic_string@_WU?$char_traits@_W@std@@V?$allocator@_W@2@@std@@Vvalue@json@web@@@1@QAU21@$$QAV?$basic_string@_WU?$char_traits@_W@std@@V?$allocator@_W@2@@1@$$QAVvalue@json@web@@@Z 10016e70 f i json_parsing.obj
 0001:00016000       ??$_Emplace_reallocate@Vvalue@json@web@@@?$vector@Vvalue@json@web@@V?$allocator@Vvalue@json@web@@@std@@@std@@QAEPAVvalue@json@web@@QAV234@$$QAV234@@Z 10017000 f i json_parsing.obj
 0001:00016120       ??$_Resize@V<lambda_c82d6fc6887df3275822341e5972f698>@@@?$vector@DV?$allocator@D@std@@@std@@AAEXIV<lambda_c82d6fc6887df3275822341e5972f698>@@@Z 10017120 f i json_parsing.obj
 0001:00016220       ??$_Emplace_reallocate@D@?$vector@DV?$allocator@D@std@@@std@@QAEPADQAD$$QAD@Z 10017220 f i json_parsing.obj
 0001:00016320       ??$_Resize@V<lambda_6dc64e9601b4925115ba0794b0eb71d7>@@@?$vector@_WV?$allocator@_W@std@@@std@@AAEXIV<lambda_6dc64e9601b4925115ba0794b0eb71d7>@@@Z 10017320 f i json_parsing.obj
 0001:00016440       ?_Change_array@?$vector@DV?$allocator@D@std@@@std@@AAEXQADII@Z 10017440 f i json_parsing.obj
 0001:000164a0       ?_Change_array@?$vector@_WV?$allocator@_W@std@@@std@@AAEXQA_WII@Z 100174a0 f i json_parsing.obj
 0001:00016500       ?_Umove@?$vector@Vvalue@json@web@@V?$allocator@Vvalue@json@web@@@std@@@std@@AAEPAVvalue@json@web@@PAV345@00@Z 10017500 f i json_parsing.obj
 0001:0001656a       ??_E?$basic_ostringstream@_WU?$char_traits@_W@std@@V?$allocator@_W@2@@std@@$4PPPPPPPM@A@AEPAXI@Z 1001756a f i json_parsing.obj
 0001:00016580       __swprintf_s_l             10017580 f i json_serialization.obj
 0001:000165c0       __sprintf_s_l              100175c0 f i json_serialization.obj
 0001:00016600       ?format_string@details@json@web@@YAXABV?$basic_string@_WU?$char_traits@_W@std@@V?$allocator@_W@2@@std@@AAV45@@Z 10017600 f   json_serialization.obj
 0001:00016680       ?format_string@details@json@web@@YAXABV?$basic_string@_WU?$char_traits@_W@std@@V?$allocator@_W@2@@std@@AAV?$basic_string@DU?$char_traits@D@std@@V?$allocator@D@2@@5@@Z 10017680 f   json_serialization.obj
 0001:00016750       ?format@_String@details@json@web@@MBEXAAV?$basic_string@DU?$char_traits@D@std@@V?$allocator@D@2@@std@@@Z 10017750 f   json_serialization.obj
 0001:00016880       ?format@_Number@details@json@web@@MBEXAAV?$basic_string@DU?$char_traits@D@std@@V?$allocator@D@2@@std@@@Z 10017880 f   json_serialization.obj
 0001:00016930       ?format@_String@details@json@web@@MBEXAAV?$basic_string@_WU?$char_traits@_W@std@@V?$allocator@_W@2@@std@@@Z 10017930 f   json_serialization.obj
 0001:000169e0       ?format@_Number@details@json@web@@MBEXAAV?$basic_string@_WU?$char_traits@_W@std@@V?$allocator@_W@2@@std@@@Z 100179e0 f   json_serialization.obj
 0001:00016a90       ??$append_escape_string@_W@details@json@web@@YAXAAV?$basic_string@_WU?$char_traits@_W@std@@V?$allocator@_W@2@@std@@ABV34@@Z 10017a90 f i json_serialization.obj
 0001:00017010       ??$append_escape_string@D@details@json@web@@YAXAAV?$basic_string@DU?$char_traits@D@std@@V?$allocator@D@2@@std@@ABV34@@Z 10018010 f i json_serialization.obj
 0001:000171c0       ??1exception_ptr@std@@QAE@XZ 100181c0 f i asyncrt_utils.obj
 0001:00017200       ??0exception_ptr@std@@QAE@ABV01@@Z 10018200 f i asyncrt_utils.obj
 0001:00017250       ?_RethrowException@exception_ptr@std@@QBEXXZ 10018250 f i asyncrt_utils.obj
 0001:00017260       ?rethrow_exception@std@@YAXVexception_ptr@1@@Z 10018260 f i asyncrt_utils.obj
 0001:000172a0       ??0runtime_error@std@@QAE@PBD@Z 100182a0 f i asyncrt_utils.obj
 0001:000172f0       ??0range_error@std@@QAE@PBD@Z 100182f0 f i asyncrt_utils.obj
 0001:00017340       ??0runtime_error@std@@QAE@ABV01@@Z 10018340 f i asyncrt_utils.obj
 0001:00017380       ?c_locale@scoped_c_thread_locale@details@utility@@SAPAU__crt_locale_pointers@@XZ 10018380 f   asyncrt_utils.obj
 0001:00017470       ?utf8_to_utf16@conversions@utility@@YA?AV?$basic_string@_WU?$char_traits@_W@std@@V?$allocator@_W@2@@std@@ABV?$basic_string@DU?$char_traits@D@std@@V?$allocator@D@2@@4@@Z 10018470 f   asyncrt_utils.obj
 0001:000176f0       ??0range_error@std@@QAE@ABV01@@Z 100186f0 f i asyncrt_utils.obj
 0001:00017730       ?utf16_to_utf8@conversions@utility@@YA?AV?$basic_string@DU?$char_traits@D@std@@V?$allocator@D@2@@std@@ABV?$basic_string@_WU?$char_traits@_W@std@@V?$allocator@_W@2@@4@@Z 10018730 f   asyncrt_utils.obj
 0001:00017910       ?to_string_t@conversions@utility@@YA?AV?$basic_string@_WU?$char_traits@_W@std@@V?$allocator@_W@2@@std@@$$QAV?$basic_string@DU?$char_traits@D@std@@V?$allocator@D@2@@4@@Z 10018910 f   asyncrt_utils.obj
 0001:00017930       ??$_Callback_once@V?$tuple@$$QAV<lambda_0825b44a8adc79b986e9f2ddd1b20dad>@@AAVexception_ptr@std@@@std@@U?$integer_sequence@I$0A@@2@$00@std@@YGHPAX0PAPAX@Z 10018930 f i asyncrt_utils.obj
 0001:00017a50       ?reconcile_libraries_with_targets@deps_json_t@@AAEXABVvalue@json@web@@ABV?$function@$$A6A_NABV?$basic_string@_WU?$char_traits@_W@std@@V?$allocator@_W@2@@std@@@Z@std@@ABV?$function@$$A6AABV?$vector@V?$basic_string@_WU?$char_traits@_W@std@@V?$allocator@_W@2@@std@@V?$allocator@V?$basic_string@_WU?$char_traits@_W@std@@V?$allocator@_W@2@@std@@@2@@std@@ABV?$basic_string@_WU?$char_traits@_W@std@@V?$allocator@_W@2@@2@HPA_N@Z@6@@Z 10018a50 f   deps_format.obj
 0001:00018570       ?perform_rid_fallback@deps_json_t@@AAE_NPAUrid_specific_assets_t@1@ABV?$unordered_map@V?$basic_string@_WU?$char_traits@_W@std@@V?$allocator@_W@2@@std@@V?$vector@V?$basic_string@_WU?$char_traits@_W@std@@V?$allocator@_W@2@@std@@V?$allocator@V?$basic_string@_WU?$char_traits@_W@std@@V?$allocator@_W@2@@std@@@2@@2@U?$hash@V?$basic_string@_WU?$char_traits@_W@std@@V?$allocator@_W@2@@std@@@2@U?$equal_to@V?$basic_string@_WU?$char_traits@_W@std@@V?$allocator@_W@2@@std@@@2@V?$allocator@U?$pair@$$CBV?$basic_string@_WU?$char_traits@_W@std@@V?$allocator@_W@2@@std@@V?$vector@V?$basic_string@_WU?$char_traits@_W@std@@V?$allocator@_W@2@@std@@V?$allocator@V?$basic_string@_WU?$char_traits@_W@std@@V?$allocator@_W@2@@std@@@2@@2@@std@@@2@@std@@@Z 10019570 f   deps_format.obj
 0001:00018a00       ?process_runtime_targets@deps_json_t@@AAE_NABVvalue@json@web@@ABV?$basic_string@_WU?$char_traits@_W@std@@V?$allocator@_W@2@@std@@ABV?$unordered_map@V?$basic_string@_WU?$char_traits@_W@std@@V?$allocator@_W@2@@std@@V?$vector@V?$basic_string@_WU?$char_traits@_W@std@@V?$allocator@_W@2@@std@@V?$allocator@V?$basic_string@_WU?$char_traits@_W@std@@V?$allocator@_W@2@@std@@@2@@2@U?$hash@V?$basic_string@_WU?$char_traits@_W@std@@V?$allocator@_W@2@@std@@@2@U?$equal_to@V?$basic_string@_WU?$char_traits@_W@std@@V?$allocator@_W@2@@std@@@2@V?$allocator@U?$pair@$$CBV?$basic_string@_WU?$char_traits@_W@std@@V?$allocator@_W@2@@std@@V?$vector@V?$basic_string@_WU?$char_traits@_W@std@@V?$allocator@_W@2@@std@@V?$allocator@V?$basic_string@_WU?$char_traits@_W@std@@V?$allocator@_W@2@@std@@@2@@2@@std@@@2@@6@PAUrid_specific_assets_t@1@@Z 10019a00 f   deps_format.obj
 0001:00018f10       ?process_targets@deps_json_t@@AAE_NABVvalue@json@web@@ABV?$basic_string@_WU?$char_traits@_W@std@@V?$allocator@_W@2@@std@@PAUdeps_assets_t@1@@Z 10019f10 f   deps_format.obj
 0001:000191f0       ??1?$function@$$A6A?AV?$basic_string@_WU?$char_traits@_W@std@@V?$allocator@_W@2@@std@@ABV12@@Z@std@@QAE@XZ 1001a1f0 f i deps_resolver.obj
 0001:000191f0       ??1?$function@$$A6AABV?$vector@V?$basic_string@_WU?$char_traits@_W@std@@V?$allocator@_W@2@@std@@V?$allocator@V?$basic_string@_WU?$char_traits@_W@std@@V?$allocator@_W@2@@std@@@2@@std@@ABV?$basic_string@_WU?$char_traits@_W@std@@V?$allocator@_W@2@@2@HPA_N@Z@std@@QAE@XZ 1001a1f0 f i deps_format.obj
 0001:000191f0       ??1?$function@$$A6A_NABV?$basic_string@_WU?$char_traits@_W@std@@V?$allocator@_W@2@@std@@@Z@std@@QAE@XZ 1001a1f0 f i deps_format.obj
 0001:00019250       ?load_standalone@deps_json_t@@AAE_NABVvalue@json@web@@ABV?$basic_string@_WU?$char_traits@_W@std@@V?$allocator@_W@2@@std@@@Z 1001a250 f   deps_format.obj
 0001:00019590       ?load@deps_json_t@@AAE_N_NABV?$basic_string@_WU?$char_traits@_W@std@@V?$allocator@_W@2@@std@@ABV?$unordered_map@V?$basic_string@_WU?$char_traits@_W@std@@V?$allocator@_W@2@@std@@V?$vector@V?$basic_string@_WU?$char_traits@_W@std@@V?$allocator@_W@2@@std@@V?$allocator@V?$basic_string@_WU?$char_traits@_W@std@@V?$allocator@_W@2@@std@@@2@@2@U?$hash@V?$basic_string@_WU?$char_traits@_W@std@@V?$allocator@_W@2@@std@@@2@U?$equal_to@V?$basic_string@_WU?$char_traits@_W@std@@V?$allocator@_W@2@@std@@@2@V?$allocator@U?$pair@$$CBV?$basic_string@_WU?$char_traits@_W@std@@V?$allocator@_W@2@@std@@V?$vector@V?$basic_string@_WU?$char_traits@_W@std@@V?$allocator@_W@2@@std@@V?$allocator@V?$basic_string@_WU?$char_traits@_W@std@@V?$allocator@_W@2@@std@@@2@@2@@std@@@2@@3@@Z 1001a590 f   deps_format.obj
 0001:00019a90       ??A?$unordered_map@V?$basic_string@_WU?$char_traits@_W@std@@V?$allocator@_W@2@@std@@Urid_assets_t@deps_json_t@@U?$hash@V?$basic_string@_WU?$char_traits@_W@std@@V?$allocator@_W@2@@std@@@2@U?$equal_to@V?$basic_string@_WU?$char_traits@_W@std@@V?$allocator@_W@2@@std@@@2@V?$allocator@U?$pair@$$CBV?$basic_string@_WU?$char_traits@_W@std@@V?$allocator@_W@2@@std@@Urid_assets_t@deps_json_t@@@std@@@2@@std@@QAEAAUrid_assets_t@deps_json_t@@ABV?$basic_string@_WU?$char_traits@_W@std@@V?$allocator@_W@2@@1@@Z 1001aa90 f i deps_format.obj
 0001:00019b20       ??A?$unordered_map@V?$basic_string@_WU?$char_traits@_W@std@@V?$allocator@_W@2@@std@@Uassets_t@deps_json_t@@U?$hash@V?$basic_string@_WU?$char_traits@_W@std@@V?$allocator@_W@2@@std@@@2@U?$equal_to@V?$basic_string@_WU?$char_traits@_W@std@@V?$allocator@_W@2@@std@@@2@V?$allocator@U?$pair@$$CBV?$basic_string@_WU?$char_traits@_W@std@@V?$allocator@_W@2@@std@@Uassets_t@deps_json_t@@@std@@@2@@std@@QAEAAUassets_t@deps_json_t@@ABV?$basic_string@_WU?$char_traits@_W@std@@V?$allocator@_W@2@@1@@Z 1001ab20 f i deps_format.obj
 0001:00019bb0       ?find@?$basic_string@_WU?$char_traits@_W@std@@V?$allocator@_W@2@@std@@QBEIQB_WI@Z 1001abb0 f i deps_format.obj
 0001:00019c80       ??$erase@V?$_List_iterator@V?$_List_val@U?$_List_simple_types@U?$pair@$$CBV?$basic_string@_WU?$char_traits@_W@std@@V?$allocator@_W@2@@std@@Uassets_t@deps_json_t@@@std@@@std@@@std@@@std@@X@?$_Hash@V?$_Umap_traits@V?$basic_string@_WU?$char_traits@_W@std@@V?$allocator@_W@2@@std@@Uassets_t@deps_json_t@@V?$_Uhash_compare@V?$basic_string@_WU?$char_traits@_W@std@@V?$allocator@_W@2@@std@@U?$hash@V?$basic_string@_WU?$char_traits@_W@std@@V?$allocator@_W@2@@std@@@2@U?$equal_to@V?$basic_string@_WU?$char_traits@_W@std@@V?$allocator@_W@2@@std@@@2@@2@V?$allocator@U?$pair@$$CBV?$basic_string@_WU?$char_traits@_W@std@@V?$allocator@_W@2@@std@@Uassets_t@deps_json_t@@@std@@@2@$0A@@std@@@std@@QAE?AV?$_List_iterator@V?$_List_val@U?$_List_simple_types@U?$pair@$$CBV?$basic_string@_WU?$char_traits@_W@std@@V?$allocator@_W@2@@std@@Uassets_t@deps_json_t@@@std@@@std@@@std@@@1@V21@@Z 1001ac80 f i deps_format.obj
 0001:00019d40       ??$_Emplace_reallocate@ABUdeps_entry_t@@@?$vector@Udeps_entry_t@@V?$allocator@Udeps_entry_t@@@std@@@std@@QAEPAUdeps_entry_t@@QAU2@ABU2@@Z 1001ad40 f i deps_format.obj
 0001:00019f50       ??$_Uninitialized_move@PAUdeps_entry_t@@PAU1@V?$allocator@Udeps_entry_t@@@std@@@std@@YAPAUdeps_entry_t@@QAU1@0PAU1@AAV?$allocator@Udeps_entry_t@@@0@@Z 1001af50 f i deps_format.obj
 0001:0001a3e0       ??$_Insert@AAU?$pair@$$CBV?$basic_string@_WU?$char_traits@_W@std@@V?$allocator@_W@2@@std@@H@std@@V?$_List_unchecked_iterator@V?$_List_val@U?$_List_simple_types@U?$pair@$$CBV?$basic_string@_WU?$char_traits@_W@std@@V?$allocator@_W@2@@std@@H@std@@@std@@@std@@@2@@?$_Hash@V?$_Umap_traits@V?$basic_string@_WU?$char_traits@_W@std@@V?$allocator@_W@2@@std@@HV?$_Uhash_compare@V?$basic_string@_WU?$char_traits@_W@std@@V?$allocator@_W@2@@std@@U?$hash@V?$basic_string@_WU?$char_traits@_W@std@@V?$allocator@_W@2@@std@@@2@U?$equal_to@V?$basic_string@_WU?$char_traits@_W@std@@V?$allocator@_W@2@@std@@@2@@2@V?$allocator@U?$pair@$$CBV?$basic_string@_WU?$char_traits@_W@std@@V?$allocator@_W@2@@std@@H@std@@@2@$0A@@std@@@std@@IAE?AU?$pair@V?$_List_iterator@V?$_List_val@U?$_List_simple_types@U?$pair@$$CBV?$basic_string@_WU?$char_traits@_W@std@@V?$allocator@_W@2@@std@@H@std@@@std@@@std@@@std@@_N@1@AAU?$pair@$$CBV?$basic_string@_WU?$char_traits@_W@std@@V?$allocator@_W@2@@std@@H@1@V?$_List_unchecked_iterator@V?$_List_val@U?$_List_simple_types@U?$pair@$$CBV?$basic_string@_WU?$char_traits@_W@std@@V?$allocator@_W@2@@std@@H@std@@@std@@@std@@@1@@Z 1001b3e0 f i deps_format.obj
 0001:0001a640       ??$_Insert@AAU?$pair@$$CBV?$basic_string@_WU?$char_traits@_W@std@@V?$allocator@_W@2@@std@@Urid_assets_t@deps_json_t@@@std@@V?$_List_unchecked_iterator@V?$_List_val@U?$_List_simple_types@U?$pair@$$CBV?$basic_string@_WU?$char_traits@_W@std@@V?$allocator@_W@2@@std@@Urid_assets_t@deps_json_t@@@std@@@std@@@std@@@2@@?$_Hash@V?$_Umap_traits@V?$basic_string@_WU?$char_traits@_W@std@@V?$allocator@_W@2@@std@@Urid_assets_t@deps_json_t@@V?$_Uhash_compare@V?$basic_string@_WU?$char_traits@_W@std@@V?$allocator@_W@2@@std@@U?$hash@V?$basic_string@_WU?$char_traits@_W@std@@V?$allocator@_W@2@@std@@@2@U?$equal_to@V?$basic_string@_WU?$char_traits@_W@std@@V?$allocator@_W@2@@std@@@2@@2@V?$allocator@U?$pair@$$CBV?$basic_string@_WU?$char_traits@_W@std@@V?$allocator@_W@2@@std@@Urid_assets_t@deps_json_t@@@std@@@2@$0A@@std@@@std@@IAE?AU?$pair@V?$_List_iterator@V?$_List_val@U?$_List_simple_types@U?$pair@$$CBV?$basic_string@_WU?$char_traits@_W@std@@V?$allocator@_W@2@@std@@Urid_assets_t@deps_json_t@@@std@@@std@@@std@@@std@@_N@1@AAU?$pair@$$CBV?$basic_string@_WU?$char_traits@_W@std@@V?$allocator@_W@2@@std@@Urid_assets_t@deps_json_t@@@1@V?$_List_unchecked_iterator@V?$_List_val@U?$_List_simple_types@U?$pair@$$CBV?$basic_string@_WU?$char_traits@_W@std@@V?$allocator@_W@2@@std@@Urid_assets_t@deps_json_t@@@std@@@std@@@std@@@1@@Z 1001b640 f i deps_format.obj
 0001:0001a8b0       ??$_Insert@AAU?$pair@$$CBV?$basic_string@_WU?$char_traits@_W@std@@V?$allocator@_W@2@@std@@Uassets_t@deps_json_t@@@std@@V?$_List_unchecked_iterator@V?$_List_val@U?$_List_simple_types@U?$pair@$$CBV?$basic_string@_WU?$char_traits@_W@std@@V?$allocator@_W@2@@std@@Uassets_t@deps_json_t@@@std@@@std@@@std@@@2@@?$_Hash@V?$_Umap_traits@V?$basic_string@_WU?$char_traits@_W@std@@V?$allocator@_W@2@@std@@Uassets_t@deps_json_t@@V?$_Uhash_compare@V?$basic_string@_WU?$char_traits@_W@std@@V?$allocator@_W@2@@std@@U?$hash@V?$basic_string@_WU?$char_traits@_W@std@@V?$allocator@_W@2@@std@@@2@U?$equal_to@V?$basic_string@_WU?$char_traits@_W@std@@V?$allocator@_W@2@@std@@@2@@2@V?$allocator@U?$pair@$$CBV?$basic_string@_WU?$char_traits@_W@std@@V?$allocator@_W@2@@std@@Uassets_t@deps_json_t@@@std@@@2@$0A@@std@@@std@@IAE?AU?$pair@V?$_List_iterator@V?$_List_val@U?$_List_simple_types@U?$pair@$$CBV?$basic_string@_WU?$char_traits@_W@std@@V?$allocator@_W@2@@std@@Uassets_t@deps_json_t@@@std@@@std@@@std@@@std@@_N@1@AAU?$pair@$$CBV?$basic_string@_WU?$char_traits@_W@std@@V?$allocator@_W@2@@std@@Uassets_t@deps_json_t@@@1@V?$_List_unchecked_iterator@V?$_List_val@U?$_List_simple_types@U?$pair@$$CBV?$basic_string@_WU?$char_traits@_W@std@@V?$allocator@_W@2@@std@@Uassets_t@deps_json_t@@@std@@@std@@@std@@@1@@Z 1001b8b0 f i deps_format.obj
 0001:0001ab20       ??$_Buynode@ABUpiecewise_construct_t@std@@V?$tuple@ABV?$basic_string@_WU?$char_traits@_W@std@@V?$allocator@_W@2@@std@@@2@V?$tuple@$$V@2@@?$_List_buy@U?$pair@$$CBV?$basic_string@_WU?$char_traits@_W@std@@V?$allocator@_W@2@@std@@H@std@@V?$allocator@U?$pair@$$CBV?$basic_string@_WU?$char_traits@_W@std@@V?$allocator@_W@2@@std@@H@std@@@2@@std@@QAEPAU?$_List_node@U?$pair@$$CBV?$basic_string@_WU?$char_traits@_W@std@@V?$allocator@_W@2@@std@@H@std@@PAX@1@PAU21@0ABUpiecewise_construct_t@1@$$QAV?$tuple@ABV?$basic_string@_WU?$char_traits@_W@std@@V?$allocator@_W@2@@std@@@1@$$QAV?$tuple@$$V@1@@Z 1001bb20 f i deps_format.obj
 0001:0001aba0       ??$erase@V?$_List_iterator@V?$_List_val@U?$_List_simple_types@U?$pair@$$CBV?$basic_string@_WU?$char_traits@_W@std@@V?$allocator@_W@2@@std@@H@std@@@std@@@std@@@std@@X@?$_Hash@V?$_Umap_traits@V?$basic_string@_WU?$char_traits@_W@std@@V?$allocator@_W@2@@std@@HV?$_Uhash_compare@V?$basic_string@_WU?$char_traits@_W@std@@V?$allocator@_W@2@@std@@U?$hash@V?$basic_string@_WU?$char_traits@_W@std@@V?$allocator@_W@2@@std@@@2@U?$equal_to@V?$basic_string@_WU?$char_traits@_W@std@@V?$allocator@_W@2@@std@@@2@@2@V?$allocator@U?$pair@$$CBV?$basic_string@_WU?$char_traits@_W@std@@V?$allocator@_W@2@@std@@H@std@@@2@$0A@@std@@@std@@QAE?AV?$_List_iterator@V?$_List_val@U?$_List_simple_types@U?$pair@$$CBV?$basic_string@_WU?$char_traits@_W@std@@V?$allocator@_W@2@@std@@H@std@@@std@@@std@@@1@V21@@Z 1001bba0 f i deps_format.obj
 0001:0001ac50       ??$_Buynode@ABUpiecewise_construct_t@std@@V?$tuple@ABV?$basic_string@_WU?$char_traits@_W@std@@V?$allocator@_W@2@@std@@@2@V?$tuple@$$V@2@@?$_List_buy@U?$pair@$$CBV?$basic_string@_WU?$char_traits@_W@std@@V?$allocator@_W@2@@std@@Urid_assets_t@deps_json_t@@@std@@V?$allocator@U?$pair@$$CBV?$basic_string@_WU?$char_traits@_W@std@@V?$allocator@_W@2@@std@@Urid_assets_t@deps_json_t@@@std@@@2@@std@@QAEPAU?$_List_node@U?$pair@$$CBV?$basic_string@_WU?$char_traits@_W@std@@V?$allocator@_W@2@@std@@Urid_assets_t@deps_json_t@@@std@@PAX@1@PAU21@0ABUpiecewise_construct_t@1@$$QAV?$tuple@ABV?$basic_string@_WU?$char_traits@_W@std@@V?$allocator@_W@2@@std@@@1@$$QAV?$tuple@$$V@1@@Z 1001bc50 f i deps_format.obj
 0001:0001acf0       ??$erase@V?$_List_iterator@V?$_List_val@U?$_List_simple_types@U?$pair@$$CBV?$basic_string@_WU?$char_traits@_W@std@@V?$allocator@_W@2@@std@@Urid_assets_t@deps_json_t@@@std@@@std@@@std@@@std@@X@?$_Hash@V?$_Umap_traits@V?$basic_string@_WU?$char_traits@_W@std@@V?$allocator@_W@2@@std@@Urid_assets_t@deps_json_t@@V?$_Uhash_compare@V?$basic_string@_WU?$char_traits@_W@std@@V?$allocator@_W@2@@std@@U?$hash@V?$basic_string@_WU?$char_traits@_W@std@@V?$allocator@_W@2@@std@@@2@U?$equal_to@V?$basic_string@_WU?$char_traits@_W@std@@V?$allocator@_W@2@@std@@@2@@2@V?$allocator@U?$pair@$$CBV?$basic_string@_WU?$char_traits@_W@std@@V?$allocator@_W@2@@std@@Urid_assets_t@deps_json_t@@@std@@@2@$0A@@std@@@std@@QAE?AV?$_List_iterator@V?$_List_val@U?$_List_simple_types@U?$pair@$$CBV?$basic_string@_WU?$char_traits@_W@std@@V?$allocator@_W@2@@std@@Urid_assets_t@deps_json_t@@@std@@@std@@@std@@@1@V21@@Z 1001bcf0 f i deps_format.obj
 0001:0001adb0       ??$_Buynode@ABUpiecewise_construct_t@std@@V?$tuple@ABV?$basic_string@_WU?$char_traits@_W@std@@V?$allocator@_W@2@@std@@@2@V?$tuple@$$V@2@@?$_List_buy@U?$pair@$$CBV?$basic_string@_WU?$char_traits@_W@std@@V?$allocator@_W@2@@std@@Uassets_t@deps_json_t@@@std@@V?$allocator@U?$pair@$$CBV?$basic_string@_WU?$char_traits@_W@std@@V?$allocator@_W@2@@std@@Uassets_t@deps_json_t@@@std@@@2@@std@@QAEPAU?$_List_node@U?$pair@$$CBV?$basic_string@_WU?$char_traits@_W@std@@V?$allocator@_W@2@@std@@Uassets_t@deps_json_t@@@std@@PAX@1@PAU21@0ABUpiecewise_construct_t@1@$$QAV?$tuple@ABV?$basic_string@_WU?$char_traits@_W@std@@V?$allocator@_W@2@@std@@@1@$$QAV?$tuple@$$V@1@@Z 1001bdb0 f i deps_format.obj
 0001:0001ae60       ?to_path@deps_entry_t@@QBE_NABV?$basic_string@_WU?$char_traits@_W@std@@V?$allocator@_W@2@@std@@_NPAV23@@Z 1001be60 f   deps_entry.obj
 0001:0001b190       ?to_dir_path@deps_entry_t@@QBE_NABV?$basic_string@_WU?$char_traits@_W@std@@V?$allocator@_W@2@@std@@PAV23@@Z 1001c190 f   deps_entry.obj
 0001:0001b410       ?to_full_path@deps_entry_t@@QBE_NABV?$basic_string@_WU?$char_traits@_W@std@@V?$allocator@_W@2@@std@@PAV23@@Z 1001c410 f   deps_entry.obj
 0001:0001b510       ?to_hash_matched_path@deps_entry_t@@QBE_NABV?$basic_string@_WU?$char_traits@_W@std@@V?$allocator@_W@2@@std@@PAV23@@Z 1001c510 f   deps_entry.obj
 0001:0001bb40       ?replace@?$basic_string@DU?$char_traits@D@std@@V?$allocator@D@2@@std@@QAEAAV12@IIQBDI@Z 1001cb40 f i deps_entry.obj
 0001:0001bcb0       ??$_Reallocate_grow_by@V<lambda_f4fd5ca79072ce85a36b5022cfb0e6d1>@@IIPBDI@?$basic_string@DU?$char_traits@D@std@@V?$allocator@D@2@@std@@QAEAAV01@IV<lambda_f4fd5ca79072ce85a36b5022cfb0e6d1>@@IIPBDI@Z 1001ccb0 f i deps_entry.obj
 0001:0001be40       ??$_Construct@V?$istreambuf_iterator@DU?$char_traits@D@std@@@std@@@?$basic_string@DU?$char_traits@D@std@@V?$allocator@D@2@@std@@QAEXV?$istreambuf_iterator@DU?$char_traits@D@std@@@1@V21@Uinput_iterator_tag@1@@Z 1001ce40 f i deps_entry.obj
 0001:0001c280       ?get_dir_assemblies@deps_resolver_t@@AAEXABV?$basic_string@_WU?$char_traits@_W@std@@V?$allocator@_W@2@@std@@0PAV?$unordered_map@V?$basic_string@_WU?$char_traits@_W@std@@V?$allocator@_W@2@@std@@V12@U?$hash@V?$basic_string@_WU?$char_traits@_W@std@@V?$allocator@_W@2@@std@@@2@U?$equal_to@V?$basic_string@_WU?$char_traits@_W@std@@V?$allocator@_W@2@@std@@@2@V?$allocator@U?$pair@$$CBV?$basic_string@_WU?$char_traits@_W@std@@V?$allocator@_W@2@@std@@V12@@std@@@2@@3@@Z 1001d280 f   deps_resolver.obj
 0001:0001c940       ?try_roll_forward@deps_resolver_t@@AAE_NABUdeps_entry_t@@ABV?$basic_string@_WU?$char_traits@_W@std@@V?$allocator@_W@2@@std@@_N2PAV34@@Z 1001d940 f   deps_resolver.obj
 0001:0001d0e0       ?setup_probe_config@deps_resolver_t@@QAEXABUhostpolicy_init_t@@ABUarguments_t@@@Z 1001e0e0 f   deps_resolver.obj
 0001:0001d5f0       ?probe_entry_in_configs@deps_resolver_t@@AAE_NABUdeps_entry_t@@PAV?$basic_string@_WU?$char_traits@_W@std@@V?$allocator@_W@2@@std@@@Z 1001e5f0 f   deps_resolver.obj
 0001:0001da20       ?resolve_tpa_list@deps_resolver_t@@AAE_NPAV?$basic_string@_WU?$char_traits@_W@std@@V?$allocator@_W@2@@std@@PAV?$unordered_set@V?$basic_string@_WU?$char_traits@_W@std@@V?$allocator@_W@2@@std@@U?$hash@V?$basic_string@_WU?$char_traits@_W@std@@V?$allocator@_W@2@@std@@@2@U?$equal_to@V?$basic_string@_WU?$char_traits@_W@std@@V?$allocator@_W@2@@std@@@2@V?$allocator@V?$basic_string@_WU?$char_traits@_W@std@@V?$allocator@_W@2@@std@@@2@@3@@Z 1001ea20 f   deps_resolver.obj
 0001:0001e050       ?init_known_entry_path@deps_resolver_t@@QAEXABUdeps_entry_t@@ABV?$basic_string@_WU?$char_traits@_W@std@@V?$allocator@_W@2@@std@@@Z 1001f050 f   deps_resolver.obj
 0001:0001e430       ?resolve_probe_dirs@deps_resolver_t@@AAE_NW4asset_types@deps_entry_t@@PAV?$basic_string@_WU?$char_traits@_W@std@@V?$allocator@_W@2@@std@@PAV?$unordered_set@V?$basic_string@_WU?$char_traits@_W@std@@V?$allocator@_W@2@@std@@U?$hash@V?$basic_string@_WU?$char_traits@_W@std@@V?$allocator@_W@2@@std@@@2@U?$equal_to@V?$basic_string@_WU?$char_traits@_W@std@@V?$allocator@_W@2@@std@@@2@V?$allocator@V?$basic_string@_WU?$char_traits@_W@std@@V?$allocator@_W@2@@std@@@2@@5@@Z 1001f430 f   deps_resolver.obj
 0001:0001ef90       ?resolve_probe_paths@deps_resolver_t@@QAE_NPAUprobe_paths_t@@PAV?$unordered_set@V?$basic_string@_WU?$char_traits@_W@std@@V?$allocator@_W@2@@std@@U?$hash@V?$basic_string@_WU?$char_traits@_W@std@@V?$allocator@_W@2@@std@@@2@U?$equal_to@V?$basic_string@_WU?$char_traits@_W@std@@V?$allocator@_W@2@@std@@@2@V?$allocator@V?$basic_string@_WU?$char_traits@_W@std@@V?$allocator@_W@2@@std@@@2@@std@@@Z 1001ff90 f   deps_resolver.obj
 0001:0001f030       ?push_back@?$vector@Uprobe_config_t@@V?$allocator@Uprobe_config_t@@@std@@@std@@QAEX$$QAUprobe_config_t@@@Z 10020030 f i deps_resolver.obj
 0001:0001f0b0       ??0?$vector@Udeps_entry_t@@V?$allocator@Udeps_entry_t@@@std@@@std@@QAE@IABV?$allocator@Udeps_entry_t@@@1@@Z 100200b0 f i deps_resolver.obj
 0001:0001f0d0       ??$construct@Uprobe_config_t@@U1@@?$_Default_allocator_traits@V?$allocator@Uprobe_config_t@@@std@@@std@@SAXAAV?$allocator@Uprobe_config_t@@@1@QAUprobe_config_t@@$$QAU3@@Z 100200d0 f i deps_resolver.obj
 0001:0001f130       ??$_Emplace_reallocate@Uprobe_config_t@@@?$vector@Uprobe_config_t@@V?$allocator@Uprobe_config_t@@@std@@@std@@QAEPAUprobe_config_t@@QAU2@$$QAU2@@Z 10020130 f i deps_resolver.obj
 0001:0001f2d0       ??$_Insert@V?$basic_string@_WU?$char_traits@_W@std@@V?$allocator@_W@2@@std@@U_Not_a_node_tag@2@@?$_Hash@V?$_Uset_traits@V?$basic_string@_WU?$char_traits@_W@std@@V?$allocator@_W@2@@std@@V?$_Uhash_compare@V?$basic_string@_WU?$char_traits@_W@std@@V?$allocator@_W@2@@std@@U?$hash@V?$basic_string@_WU?$char_traits@_W@std@@V?$allocator@_W@2@@std@@@2@U?$equal_to@V?$basic_string@_WU?$char_traits@_W@std@@V?$allocator@_W@2@@std@@@2@@2@V?$allocator@V?$basic_string@_WU?$char_traits@_W@std@@V?$allocator@_W@2@@std@@@2@$0A@@std@@@std@@IAE?AU?$pair@V?$_List_const_iterator@V?$_List_val@U?$_List_simple_types@V?$basic_string@_WU?$char_traits@_W@std@@V?$allocator@_W@2@@std@@@std@@@std@@@std@@_N@1@$$QAV?$basic_string@_WU?$char_traits@_W@std@@V?$allocator@_W@2@@1@U_Not_a_node_tag@1@@Z 100202d0 f i deps_resolver.obj
 0001:0001f4e0       ??$_Insert@ABV?$basic_string@_WU?$char_traits@_W@std@@V?$allocator@_W@2@@std@@U_Not_a_node_tag@2@@?$_Hash@V?$_Uset_traits@V?$basic_string@_WU?$char_traits@_W@std@@V?$allocator@_W@2@@std@@V?$_Uhash_compare@V?$basic_string@_WU?$char_traits@_W@std@@V?$allocator@_W@2@@std@@U?$hash@V?$basic_string@_WU?$char_traits@_W@std@@V?$allocator@_W@2@@std@@@2@U?$equal_to@V?$basic_string@_WU?$char_traits@_W@std@@V?$allocator@_W@2@@std@@@2@@2@V?$allocator@V?$basic_string@_WU?$char_traits@_W@std@@V?$allocator@_W@2@@std@@@2@$0A@@std@@@std@@IAE?AU?$pair@V?$_List_const_iterator@V?$_List_val@U?$_List_simple_types@V?$basic_string@_WU?$char_traits@_W@std@@V?$allocator@_W@2@@std@@@std@@@std@@@std@@_N@1@ABV?$basic_string@_WU?$char_traits@_W@std@@V?$allocator@_W@2@@1@U_Not_a_node_tag@1@@Z 100204e0 f i deps_resolver.obj
 0001:0001f6f0       ??$_Insert@AAU?$pair@$$CBV?$basic_string@_WU?$char_traits@_W@std@@V?$allocator@_W@2@@std@@V12@@std@@V?$_List_unchecked_iterator@V?$_List_val@U?$_List_simple_types@U?$pair@$$CBV?$basic_string@_WU?$char_traits@_W@std@@V?$allocator@_W@2@@std@@V12@@std@@@std@@@std@@@2@@?$_Hash@V?$_Umap_traits@V?$basic_string@_WU?$char_traits@_W@std@@V?$allocator@_W@2@@std@@V12@V?$_Uhash_compare@V?$basic_string@_WU?$char_traits@_W@std@@V?$allocator@_W@2@@std@@U?$hash@V?$basic_string@_WU?$char_traits@_W@std@@V?$allocator@_W@2@@std@@@2@U?$equal_to@V?$basic_string@_WU?$char_traits@_W@std@@V?$allocator@_W@2@@std@@@2@@2@V?$allocator@U?$pair@$$CBV?$basic_string@_WU?$char_traits@_W@std@@V?$allocator@_W@2@@std@@V12@@std@@@2@$0A@@std@@@std@@IAE?AU?$pair@V?$_List_iterator@V?$_List_val@U?$_List_simple_types@U?$pair@$$CBV?$basic_string@_WU?$char_traits@_W@std@@V?$allocator@_W@2@@std@@V12@@std@@@std@@@std@@@std@@_N@1@AAU?$pair@$$CBV?$basic_string@_WU?$char_traits@_W@std@@V?$allocator@_W@2@@std@@V12@@1@V?$_List_unchecked_iterator@V?$_List_val@U?$_List_simple_types@U?$pair@$$CBV?$basic_string@_WU?$char_traits@_W@std@@V?$allocator@_W@2@@std@@V12@@std@@@std@@@std@@@1@@Z 100206f0 f i deps_resolver.obj
 0001:0001f960       ??$_Uninitialized_move@PAUprobe_config_t@@PAU1@V?$allocator@Uprobe_config_t@@@std@@@std@@YAPAUprobe_config_t@@QAU1@0PAU1@AAV?$allocator@Uprobe_config_t@@@0@@Z 10020960 f i deps_resolver.obj
 0001:0001fa40       ?_Check_size@?$_Hash@V?$_Uset_traits@V?$basic_string@_WU?$char_traits@_W@std@@V?$allocator@_W@2@@std@@V?$_Uhash_compare@V?$basic_string@_WU?$char_traits@_W@std@@V?$allocator@_W@2@@std@@U?$hash@V?$basic_string@_WU?$char_traits@_W@std@@V?$allocator@_W@2@@std@@@2@U?$equal_to@V?$basic_string@_WU?$char_traits@_W@std@@V?$allocator@_W@2@@std@@@2@@2@V?$allocator@V?$basic_string@_WU?$char_traits@_W@std@@V?$allocator@_W@2@@std@@@2@$0A@@std@@@std@@IAEXXZ 10020a40 f i deps_resolver.obj
 0001:0001fae0       ?erase@?$_Hash@V?$_Uset_traits@V?$basic_string@_WU?$char_traits@_W@std@@V?$allocator@_W@2@@std@@V?$_Uhash_compare@V?$basic_string@_WU?$char_traits@_W@std@@V?$allocator@_W@2@@std@@U?$hash@V?$basic_string@_WU?$char_traits@_W@std@@V?$allocator@_W@2@@std@@@2@U?$equal_to@V?$basic_string@_WU?$char_traits@_W@std@@V?$allocator@_W@2@@std@@@2@@2@V?$allocator@V?$basic_string@_WU?$char_traits@_W@std@@V?$allocator@_W@2@@std@@@2@$0A@@std@@@std@@QAE?AV?$_List_const_iterator@V?$_List_val@U?$_List_simple_types@V?$basic_string@_WU?$char_traits@_W@std@@V?$allocator@_W@2@@std@@@std@@@std@@@2@V32@@Z 10020ae0 f i deps_resolver.obj
 0001:0001fb90       ??$_Buynode@AAV?$basic_string@_WU?$char_traits@_W@std@@V?$allocator@_W@2@@std@@AAV12@@?$_List_buy@U?$pair@$$CBV?$basic_string@_WU?$char_traits@_W@std@@V?$allocator@_W@2@@std@@V12@@std@@V?$allocator@U?$pair@$$CBV?$basic_string@_WU?$char_traits@_W@std@@V?$allocator@_W@2@@std@@V12@@std@@@2@@std@@QAEPAU?$_List_node@U?$pair@$$CBV?$basic_string@_WU?$char_traits@_W@std@@V?$allocator@_W@2@@std@@V12@@std@@PAX@1@PAU21@0AAV?$basic_string@_WU?$char_traits@_W@std@@V?$allocator@_W@2@@1@1@Z 10020b90 f i deps_resolver.obj
 0001:0001fc20       ??$erase@V?$_List_iterator@V?$_List_val@U?$_List_simple_types@U?$pair@$$CBV?$basic_string@_WU?$char_traits@_W@std@@V?$allocator@_W@2@@std@@V12@@std@@@std@@@std@@@std@@X@?$_Hash@V?$_Umap_traits@V?$basic_string@_WU?$char_traits@_W@std@@V?$allocator@_W@2@@std@@V12@V?$_Uhash_compare@V?$basic_string@_WU?$char_traits@_W@std@@V?$allocator@_W@2@@std@@U?$hash@V?$basic_string@_WU?$char_traits@_W@std@@V?$allocator@_W@2@@std@@@2@U?$equal_to@V?$basic_string@_WU?$char_traits@_W@std@@V?$allocator@_W@2@@std@@@2@@2@V?$allocator@U?$pair@$$CBV?$basic_string@_WU?$char_traits@_W@std@@V?$allocator@_W@2@@std@@V12@@std@@@2@$0A@@std@@@std@@QAE?AV?$_List_iterator@V?$_List_val@U?$_List_simple_types@U?$pair@$$CBV?$basic_string@_WU?$char_traits@_W@std@@V?$allocator@_W@2@@std@@V12@@std@@@std@@@std@@@1@V21@@Z 10020c20 f i deps_resolver.obj
 0001:0001fdb0       ??$_Insert@ABV?$basic_string@_WU?$char_traits@_W@std@@V?$allocator@_W@2@@std@@V?$_List_unchecked_const_iterator@V?$_List_val@U?$_List_simple_types@V?$basic_string@_WU?$char_traits@_W@std@@V?$allocator@_W@2@@std@@@std@@@std@@U_Iterator_base0@2@@2@@?$_Hash@V?$_Uset_traits@V?$basic_string@_WU?$char_traits@_W@std@@V?$allocator@_W@2@@std@@V?$_Uhash_compare@V?$basic_string@_WU?$char_traits@_W@std@@V?$allocator@_W@2@@std@@U?$hash@V?$basic_string@_WU?$char_traits@_W@std@@V?$allocator@_W@2@@std@@@2@U?$equal_to@V?$basic_string@_WU?$char_traits@_W@std@@V?$allocator@_W@2@@std@@@2@@2@V?$allocator@V?$basic_string@_WU?$char_traits@_W@std@@V?$allocator@_W@2@@std@@@2@$0A@@std@@@std@@IAE?AU?$pair@V?$_List_const_iterator@V?$_List_val@U?$_List_simple_types@V?$basic_string@_WU?$char_traits@_W@std@@V?$allocator@_W@2@@std@@@std@@@std@@@std@@_N@1@ABV?$basic_string@_WU?$char_traits@_W@std@@V?$allocator@_W@2@@1@V?$_List_unchecked_const_iterator@V?$_List_val@U?$_List_simple_types@V?$basic_string@_WU?$char_traits@_W@std@@V?$allocator@_W@2@@std@@@std@@@std@@U_Iterator_base0@2@@1@@Z 10020db0 f i deps_resolver.obj
 0001:0001ffa0       ??$_Buynode@ABUpiecewise_construct_t@std@@V?$tuple@ABV?$basic_string@_WU?$char_traits@_W@std@@V?$allocator@_W@2@@std@@@2@V?$tuple@$$V@2@@?$_List_buy@U?$pair@$$CBV?$basic_string@_WU?$char_traits@_W@std@@V?$allocator@_W@2@@std@@V12@@std@@V?$allocator@U?$pair@$$CBV?$basic_string@_WU?$char_traits@_W@std@@V?$allocator@_W@2@@std@@V12@@std@@@2@@std@@QAEPAU?$_List_node@U?$pair@$$CBV?$basic_string@_WU?$char_traits@_W@std@@V?$allocator@_W@2@@std@@V12@@std@@PAX@1@PAU21@0ABUpiecewise_construct_t@1@$$QAV?$tuple@ABV?$basic_string@_WU?$char_traits@_W@std@@V?$allocator@_W@2@@std@@@1@$$QAV?$tuple@$$V@1@@Z 10020fa0 f i deps_resolver.obj
 0001:00020030       ??$_Buynode@ABV?$basic_string@_WU?$char_traits@_W@std@@V?$allocator@_W@2@@std@@@?$_List_buy@V?$basic_string@_WU?$char_traits@_W@std@@V?$allocator@_W@2@@std@@V?$allocator@V?$basic_string@_WU?$char_traits@_W@std@@V?$allocator@_W@2@@std@@@2@@std@@QAEPAU?$_List_node@V?$basic_string@_WU?$char_traits@_W@std@@V?$allocator@_W@2@@std@@PAX@1@PAU21@0ABV?$basic_string@_WU?$char_traits@_W@std@@V?$allocator@_W@2@@1@@Z 10021030 f i deps_resolver.obj
 0001:000200b0       ??$_Buynode@V?$basic_string@_WU?$char_traits@_W@std@@V?$allocator@_W@2@@std@@@?$_List_buy@V?$basic_string@_WU?$char_traits@_W@std@@V?$allocator@_W@2@@std@@V?$allocator@V?$basic_string@_WU?$char_traits@_W@std@@V?$allocator@_W@2@@std@@@2@@std@@QAEPAU?$_List_node@V?$basic_string@_WU?$char_traits@_W@std@@V?$allocator@_W@2@@std@@PAX@1@PAU21@0$$QAV?$basic_string@_WU?$char_traits@_W@std@@V?$allocator@_W@2@@1@@Z 100210b0 f i deps_resolver.obj
 0001:00020100       ??0arguments_t@@QAE@XZ     10021100 f   args.obj
 0001:00020250       ?bind@coreclr@@YA_NABV?$basic_string@_WU?$char_traits@_W@std@@V?$allocator@_W@2@@std@@@Z 10021250 f   coreclr.obj
 0001:00020410       ?initialize@coreclr@@YAJPBD0PAPBD1HPAPAXPAI@Z 10021410 f   coreclr.obj
 0001:00020460       ?create_delegate@coreclr@@YAJPAXIPBD11PAPAX@Z 10021460 f   coreclr.obj
 0001:00020480       ?get_runtime_config_paths_from_app@@YAXABV?$basic_string@_WU?$char_traits@_W@std@@V?$allocator@_W@2@@std@@PAV12@1@Z 10021480 f   libhost.obj
 0001:00020730       ?try_patch_roll_forward_in_dir@@YAXABV?$basic_string@_WU?$char_traits@_W@std@@V?$allocator@_W@2@@std@@ABUfx_ver_t@@PAV12@@Z 10021730 f   libhost.obj
 0001:00020b30       ?try_prerelease_roll_forward_in_dir@@YAXABV?$basic_string@_WU?$char_traits@_W@std@@V?$allocator@_W@2@@std@@ABUfx_ver_t@@PAV12@@Z 10021b30 f   libhost.obj
 0001:00020f40       ??0runtime_config_t@@QAE@ABV?$basic_string@_WU?$char_traits@_W@std@@V?$allocator@_W@2@@std@@0@Z 10021f40 f   runtime_config.obj
 0001:00021060       ?parse_opts@runtime_config_t@@QAE_NABVvalue@json@web@@@Z 10022060 f   runtime_config.obj
 0001:00021890       ?ensure_dev_config_parsed@runtime_config_t@@AAE_NXZ 10022890 f   runtime_config.obj
 0001:00021bd0       ?ensure_parsed@runtime_config_t@@AAE_NXZ 10022bd0 f   runtime_config.obj
 0001:00021f30       ?get_patch_roll_fwd@runtime_config_t@@QBE_NXZ 10022f30 f   runtime_config.obj
 0001:00021f60       ?get_portable@runtime_config_t@@QBE_NXZ 10022f60 f   runtime_config.obj
 0001:00021f70       ?get_probe_paths@runtime_config_t@@QBEABV?$list@V?$basic_string@_WU?$char_traits@_W@std@@V?$allocator@_W@2@@std@@V?$allocator@V?$basic_string@_WU?$char_traits@_W@std@@V?$allocator@_W@2@@std@@@2@@std@@XZ 10022f70 f   runtime_config.obj
 0001:00021f80       ?to_lower@pal@@YA?AV?$basic_string@_WU?$char_traits@_W@std@@V?$allocator@_W@2@@std@@ABV23@@Z 10022f80 f   pal.windows.obj
 0001:00022050       ?setup_api_sets@pal@@YAXABV?$unordered_set@V?$basic_string@_WU?$char_traits@_W@std@@V?$allocator@_W@2@@std@@U?$hash@V?$basic_string@_WU?$char_traits@_W@std@@V?$allocator@_W@2@@std@@@2@U?$equal_to@V?$basic_string@_WU?$char_traits@_W@std@@V?$allocator@_W@2@@std@@@2@V?$allocator@V?$basic_string@_WU?$char_traits@_W@std@@V?$allocator@_W@2@@std@@@2@@std@@@Z 10023050 f   pal.windows.obj
 0001:000221b0       ?getcwd@pal@@YA_NPAV?$basic_string@_WU?$char_traits@_W@std@@V?$allocator@_W@2@@std@@@Z 100231b0 f   pal.windows.obj
 0001:00022380       ?getenv@pal@@YA_NPB_WPAV?$basic_string@_WU?$char_traits@_W@std@@V?$allocator@_W@2@@std@@@Z 10023380 f   pal.windows.obj
 0001:00022460       ?get_own_executable_path@pal@@YA_NPAV?$basic_string@_WU?$char_traits@_W@std@@V?$allocator@_W@2@@std@@@Z 10023460 f   pal.windows.obj
 0001:00022560       ?pal_clrstring@pal@@YA_NABV?$basic_string@_WU?$char_traits@_W@std@@V?$allocator@_W@2@@std@@PAV?$vector@DV?$allocator@D@std@@@3@@Z 10023560 f   pal.windows.obj
 0001:000225e0       ?clr_palstring@pal@@YA_NPBDPAV?$basic_string@_WU?$char_traits@_W@std@@V?$allocator@_W@2@@std@@@Z 100235e0 f   pal.windows.obj
 0001:00022610       ?realpath@pal@@YA_NPAV?$basic_string@_WU?$char_traits@_W@std@@V?$allocator@_W@2@@std@@@Z 10023610 f   pal.windows.obj
 0001:000226b0       ?file_exists@pal@@YA_NABV?$basic_string@_WU?$char_traits@_W@std@@V?$allocator@_W@2@@std@@@Z 100236b0 f   pal.windows.obj
 0001:00022720       ?readdir@pal@@YAXABV?$basic_string@_WU?$char_traits@_W@std@@V?$allocator@_W@2@@std@@0PAV?$vector@V?$basic_string@_WU?$char_traits@_W@std@@V?$allocator@_W@2@@std@@V?$allocator@V?$basic_string@_WU?$char_traits@_W@std@@V?$allocator@_W@2@@std@@@2@@3@@Z 10023720 f   pal.windows.obj
 0001:000228f0       ?readdir@pal@@YAXABV?$basic_string@_WU?$char_traits@_W@std@@V?$allocator@_W@2@@std@@PAV?$vector@V?$basic_string@_WU?$char_traits@_W@std@@V?$allocator@_W@2@@std@@V?$allocator@V?$basic_string@_WU?$char_traits@_W@std@@V?$allocator@_W@2@@std@@@2@@3@@Z 100238f0 f   pal.windows.obj
 0001:000229b0       ?resize@?$vector@DV?$allocator@D@std@@@std@@QAEXIABD@Z 100239b0 f i pal.windows.obj
 0001:000229d0       ??$_Resize@V<lambda_77d0fa4f49538179f61079f5e5b8d432>@@@?$vector@DV?$allocator@D@std@@@std@@AAEXIV<lambda_77d0fa4f49538179f61079f5e5b8d432>@@@Z 100239d0 f i pal.windows.obj
 0001:00022ada       ?_Lock@?$basic_streambuf@_WU?$char_traits@_W@std@@@std@@UAEXXZ 10023ada f   msvcprt:MSVCP140.dll
 0001:00022ae0       ?_Unlock@?$basic_streambuf@_WU?$char_traits@_W@std@@@std@@UAEXXZ 10023ae0 f   msvcprt:MSVCP140.dll
 0001:00022ae6       ?showmanyc@?$basic_streambuf@_WU?$char_traits@_W@std@@@std@@MAE_JXZ 10023ae6 f   msvcprt:MSVCP140.dll
 0001:00022aec       ?uflow@?$basic_streambuf@_WU?$char_traits@_W@std@@@std@@MAEGXZ 10023aec f   msvcprt:MSVCP140.dll
 0001:00022af2       ?xsgetn@?$basic_streambuf@_WU?$char_traits@_W@std@@@std@@MAE_JPA_W_J@Z 10023af2 f   msvcprt:MSVCP140.dll
 0001:00022af8       ?xsputn@?$basic_streambuf@_WU?$char_traits@_W@std@@@std@@MAE_JPB_W_J@Z 10023af8 f   msvcprt:MSVCP140.dll
 0001:00022afe       ?setbuf@?$basic_streambuf@_WU?$char_traits@_W@std@@@std@@MAEPAV12@PA_W_J@Z 10023afe f   msvcprt:MSVCP140.dll
 0001:00022b04       ?sync@?$basic_streambuf@_WU?$char_traits@_W@std@@@std@@MAEHXZ 10023b04 f   msvcprt:MSVCP140.dll
 0001:00022b0a       ?imbue@?$basic_streambuf@_WU?$char_traits@_W@std@@@std@@MAEXABVlocale@2@@Z 10023b0a f   msvcprt:MSVCP140.dll
 0001:00022b10       ??1_Fac_node@std@@QAE@XZ   10023b10 f i msvcprt:locale0_implib.obj
 0001:00022b6f       ??1_Fac_tidy_reg_t@std@@QAE@XZ 10023b6f f i msvcprt:locale0_implib.obj
 0001:00022b96       ?_Facet_Register@std@@YAXPAV_Facet_base@1@@Z 10023b96 f   msvcprt:locale0_implib.obj
 0001:00022bc2       ?showmanyc@?$basic_streambuf@DU?$char_traits@D@std@@@std@@MAE_JXZ 10023bc2 f   msvcprt:MSVCP140.dll
 0001:00022bc8       @__security_check_cookie@4 10023bc8 f   MSVCRT:_secchk_.obj
 0001:00022bd9       ??2@YAPAXI@Z               10023bd9 f   MSVCRT:new_scalar.obj
 0001:00022c09       ??3@YAXPAX@Z               10023c09 f   MSVCRT:delete_scalar.obj
 0001:00022c0e       ??_M@YGXPAXIIP6EX0@Z@Z     10023c0e f   MSVCRT:ehvecdtr.obj
 0001:00022c93       ?__ArrayUnwind@@YGXPAXIIP6EX0@Z@Z 10023c93 f   MSVCRT:ehvecdtr.obj
 0001:00022d0c       ??3@YAXPAXI@Z              10023d0c f   MSVCRT:delete_scalar_size.obj
 0001:00022d1a       ??_L@YGXPAXIIP6EX0@Z1@Z    10023d1a f   MSVCRT:ehvecctr.obj
 0001:00022dd2       ___scrt_acquire_startup_lock 10023dd2 f   MSVCRT:utility.obj
 0001:00022e04       ___scrt_dllmain_after_initialize_c 10023e04 f   MSVCRT:utility.obj
 0001:00022e2f       ___scrt_dllmain_before_initialize_c 10023e2f f   MSVCRT:utility.obj
 0001:00022e3d       ___scrt_dllmain_crt_thread_attach 10023e3d f   MSVCRT:utility.obj
 0001:00022e5c       ___scrt_dllmain_crt_thread_detach 10023e5c f   MSVCRT:utility.obj
 0001:00022e69       ___scrt_dllmain_exception_filter 10023e69 f   MSVCRT:utility.obj
 0001:00022e9d       ___scrt_dllmain_uninitialize_c 10023e9d f   MSVCRT:utility.obj
 0001:00022ec0       ___scrt_dllmain_uninitialize_critical 10023ec0 f   MSVCRT:utility.obj
 0001:00022ecd       ___scrt_initialize_crt     10023ecd f   MSVCRT:utility.obj
 0001:00022f06       ___scrt_initialize_onexit_tables 10023f06 f   MSVCRT:utility.obj
 0001:00022fab       ___scrt_is_nonwritable_in_current_image 10023fab f   MSVCRT:utility.obj
 0001:0002303f       ___scrt_release_startup_lock 1002403f f   MSVCRT:utility.obj
 0001:0002305c       ___scrt_uninitialize_crt   1002405c f   MSVCRT:utility.obj
 0001:00023084       __onexit                   10024084 f   MSVCRT:utility.obj
 0001:000230bf       _atexit                    100240bf f   MSVCRT:utility.obj
 0001:000230d4       ??_U@YAPAXI@Z              100240d4 f   MSVCRT:new_array.obj
 0001:000230dd       ??_Etype_info@@UAEPAXI@Z   100240dd f i MSVCRT:std_type_info_static.obj
 0001:000230dd       ??_Gtype_info@@UAEPAXI@Z   100240dd f i MSVCRT:std_type_info_static.obj
 0001:00023420       __DllMainCRTStartup@12     10024420 f   MSVCRT:dll_dllmain.obj
 0001:00023443       ___raise_securityfailure   10024443 f   MSVCRT:gs_report.obj
 0001:0002346b       ___report_gsfailure        1002446b f   MSVCRT:gs_report.obj
 0001:00023564       ??0bad_alloc@std@@QAE@ABV01@@Z 10024564 f i MSVCRT:throw_bad_alloc.obj
 0001:0002357f       ??0bad_alloc@std@@QAE@XZ   1002457f f i MSVCRT:throw_bad_alloc.obj
 0001:00023597       ??0bad_array_new_length@std@@QAE@ABV01@@Z 10024597 f i MSVCRT:throw_bad_alloc.obj
 0001:000235b2       ??0bad_array_new_length@std@@QAE@XZ 100245b2 f i MSVCRT:throw_bad_alloc.obj
 0001:000235ca       ??1bad_alloc@std@@UAE@XZ   100245ca f i MSVCRT:throw_bad_alloc.obj
 0001:000235ca       ??1bad_array_new_length@std@@UAE@XZ 100245ca f i MSVCRT:throw_bad_alloc.obj
 0001:000235db       ??_Ebad_alloc@std@@UAEPAXI@Z 100245db f i MSVCRT:throw_bad_alloc.obj
 0001:000235db       ??_Ebad_array_new_length@std@@UAEPAXI@Z 100245db f i MSVCRT:throw_bad_alloc.obj
 0001:000235db       ??_Gbad_array_new_length@std@@UAEPAXI@Z 100245db f i MSVCRT:throw_bad_alloc.obj
 0001:000235db       ??_Gbad_alloc@std@@UAEPAXI@Z 100245db f i MSVCRT:throw_bad_alloc.obj
 0001:00023608       ?__scrt_throw_std_bad_alloc@@YAXXZ 10024608 f   MSVCRT:throw_bad_alloc.obj
 0001:00023625       ?__scrt_throw_std_bad_array_new_length@@YAXXZ 10024625 f   MSVCRT:throw_bad_alloc.obj
 0001:00023650       __SEH_prolog4              10024650 f   MSVCRT:_sehprolg4_.obj
 0001:00023696       __SEH_epilog4              10024696 f   MSVCRT:_sehprolg4_.obj
 0001:000236ab       __except_handler4          100246ab f   MSVCRT:_chandler4gs_.obj
 0001:000236ce       ___isa_available_init      100246ce f   MSVCRT:_cpu_disp_.obj
 0001:00023865       __get_startup_argv_mode    10024865 f   MSVCRT:argv_mode.obj
 0001:00023869       ___scrt_is_ucrt_dll_in_use 10024869 f   MSVCRT:ucrt_detection.obj
 0001:00023875       ___scrt_fastfail           10024875 f   MSVCRT:utility_desktop.obj
 0001:0002398f       __crt_debugger_hook        1002498f f   MSVCRT:utility_desktop.obj
 0001:000239e4       ___security_init_cookie    100249e4 f   MSVCRT:gs_support.obj
 0001:00023a2f       _DllMain@12                10024a2f f   MSVCRT:dll_dllmain_stub.obj
 0001:00023a51       ?__scrt_initialize_type_info@@YAXXZ 10024a51 f   MSVCRT:tncleanup.obj
 0001:00023a5d       ?__scrt_uninitialize_type_info@@YAXXZ 10024a5d f   MSVCRT:tncleanup.obj
 0001:00023a69       ___local_stdio_scanf_options 10024a69 f i MSVCRT:default_local_stdio_options.obj
 0001:00023a6f       ___scrt_initialize_default_local_stdio_options 10024a6f f   MSVCRT:default_local_stdio_options.obj
 0001:00023a8c       ___scrt_get_dyn_tls_init_callback 10024a8c f   MSVCRT:dyn_tls_init.obj
 0001:00023a92       __RTC_Initialize           10024a92 f   MSVCRT:_initsect_.obj
 0001:00023abe       __RTC_Terminate            10024abe f   MSVCRT:_initsect_.obj
 0001:00023aea       ___CxxFrameHandler3        10024aea f   vcruntime:VCRUNTIME140.dll
 0001:00023af0       ___std_terminate           10024af0 f   vcruntime:VCRUNTIME140.dll
 0001:00023af6       ___std_exception_destroy   10024af6 f   vcruntime:VCRUNTIME140.dll
 0001:00023afc       __purecall                 10024afc f   vcruntime:VCRUNTIME140.dll
 0001:00023b02       __CxxThrowException@8      10024b02 f   vcruntime:VCRUNTIME140.dll
 0001:00023b08       __except_handler4_common   10024b08 f   vcruntime:VCRUNTIME140.dll
 0001:00023b0e       _memset                    10024b0e f   vcruntime:VCRUNTIME140.dll
 0001:00023b14       ___std_type_info_destroy_list 10024b14 f   vcruntime:VCRUNTIME140.dll
 0001:00023b1a       _terminate                 10024b1a f   ucrt:api-ms-win-crt-runtime-l1-1-0.dll
 0001:00023b20       __callnewh                 10024b20 f   ucrt:api-ms-win-crt-heap-l1-1-0.dll
 0001:00023b26       _malloc                    10024b26 f   ucrt:api-ms-win-crt-heap-l1-1-0.dll
 0001:00023b2c       _free                      10024b2c f   ucrt:api-ms-win-crt-heap-l1-1-0.dll
 0001:00023b32       __seh_filter_dll           10024b32 f   ucrt:api-ms-win-crt-runtime-l1-1-0.dll
 0001:00023b38       __configure_narrow_argv    10024b38 f   ucrt:api-ms-win-crt-runtime-l1-1-0.dll
 0001:00023b3e       __initialize_narrow_environment 10024b3e f   ucrt:api-ms-win-crt-runtime-l1-1-0.dll
 0001:00023b44       __initialize_onexit_table  10024b44 f   ucrt:api-ms-win-crt-runtime-l1-1-0.dll
 0001:00023b4a       __register_onexit_function 10024b4a f   ucrt:api-ms-win-crt-runtime-l1-1-0.dll
 0001:00023b50       __execute_onexit_table     10024b50 f   ucrt:api-ms-win-crt-runtime-l1-1-0.dll
 0001:00023b56       __crt_atexit               10024b56 f   ucrt:api-ms-win-crt-runtime-l1-1-0.dll
 0001:00023b5c       __cexit                    10024b5c f   ucrt:api-ms-win-crt-runtime-l1-1-0.dll
 0001:00023b62       __initterm                 10024b62 f   ucrt:api-ms-win-crt-runtime-l1-1-0.dll
 0001:00023b68       __initterm_e               10024b68 f   ucrt:api-ms-win-crt-runtime-l1-1-0.dll
 0001:00023b6e       _IsProcessorFeaturePresent@4 10024b6e f   kernel32:KERNEL32.dll
 0001:00023b74       ___vcrt_initialize         10024b74 f   MSVCRT:ucrt_stubs.obj
 0001:00023b74       ___vcrt_uninitialize_critical 10024b74 f   MSVCRT:ucrt_stubs.obj
 0001:00023b74       ___vcrt_thread_detach      10024b74 f   MSVCRT:ucrt_stubs.obj
 0001:00023b74       ___scrt_stub_for_acrt_thread_attach 10024b74 f   MSVCRT:ucrt_stubs.obj
 0001:00023b74       ___scrt_stub_for_acrt_initialize 10024b74 f   MSVCRT:ucrt_stubs.obj
 0001:00023b74       ___scrt_stub_for_acrt_uninitialize 10024b74 f   MSVCRT:ucrt_stubs.obj
 0001:00023b74       ___vcrt_uninitialize       10024b74 f   MSVCRT:ucrt_stubs.obj
 0001:00023b74       ___acrt_thread_attach      10024b74 f   MSVCRT:ucrt_stubs.obj
 0001:00023b74       ___acrt_initialize         10024b74 f   MSVCRT:ucrt_stubs.obj
 0001:00023b74       ___scrt_stub_for_acrt_uninitialize_critical 10024b74 f   MSVCRT:ucrt_stubs.obj
 0001:00023b74       ___scrt_stub_for_acrt_thread_detach 10024b74 f   MSVCRT:ucrt_stubs.obj
 0001:00023b74       ___acrt_thread_detach      10024b74 f   MSVCRT:ucrt_stubs.obj
 0001:00023b74       ___acrt_uninitialize_critical 10024b74 f   MSVCRT:ucrt_stubs.obj
 0001:00023b74       ___acrt_uninitialize       10024b74 f   MSVCRT:ucrt_stubs.obj
 0001:00023b74       ___vcrt_thread_attach      10024b74 f   MSVCRT:ucrt_stubs.obj
 0001:00023b80       __ftoui3                   10024b80 f   MSVCRT:_ftol3_.obj
 0001:00023b8f       __ftoul3                   10024b8f f   MSVCRT:_ftol3_.obj
 0001:00023b9e       __ftol3                    10024b9e f   MSVCRT:_ftol3_.obj
 0001:00023bab       __ftol3_NaN                10024bab f   MSVCRT:_ftol3_.obj
 0001:00023bc3       __ftol3_work               10024bc3 f   MSVCRT:_ftol3_.obj
 0001:00023c49       __ftol3_common             10024c49 f   MSVCRT:_ftol3_.obj
 0001:00023d0b       __ftol3_arg_error          10024d0b f   MSVCRT:_ftol3_.obj
 0001:00023d1d       __ftol3_except             10024d1d f   MSVCRT:_ftol3_.obj
 0001:00023d61       __dtoui3                   10024d61 f   MSVCRT:_ftol3_.obj
 0001:00023d70       __dtoul3                   10024d70 f   MSVCRT:_ftol3_.obj
 0001:00023d7f       __dtol3                    10024d7f f   MSVCRT:_ftol3_.obj
 0001:00023d8c       __dtol3_NaN                10024d8c f   MSVCRT:_ftol3_.obj
 0001:00023da9       __dtol3_work               10024da9 f   MSVCRT:_ftol3_.obj
 0001:00023e90       __ultod3                   10024e90 f   MSVCRT:_ftol3_.obj
 0001:00023ed0       __ltod3                    10024ed0 f   MSVCRT:_ftol3_.obj
 0001:00023ef7       _memcpy                    10024ef7 f   vcruntime:VCRUNTIME140.dll
 0001:00023efd       _memmove                   10024efd f   vcruntime:VCRUNTIME140.dll
 0001:00023f03       __except1                  10024f03 f   ucrt:api-ms-win-crt-math-l1-1-0.dll
 0002:00000000       __imp__GetCurrentThreadId@0 10028000     kernel32:KERNEL32.dll
 0002:00000004       __imp__GetEnvironmentVariableA@12 10028004     kernel32:KERNEL32.dll
 0002:00000008       __imp__GetModuleFileNameA@12 10028008     kernel32:KERNEL32.dll
 0002:0000000c       __imp__GetModuleHandleExA@12 1002800c     kernel32:KERNEL32.dll
 0002:00000010       __imp__GetVersionExA@4     10028010     kernel32:KERNEL32.dll
 0002:00000014       __imp__FindFirstFileW@8    10028014     kernel32:KERNEL32.dll
 0002:00000018       __imp__FindFirstFileExW@24 10028018     kernel32:KERNEL32.dll
 0002:0000001c       __imp__AddDllDirectory@4   1002801c     kernel32:KERNEL32.dll
 0002:00000020       __imp__GetFullPathNameW@16 10028020     kernel32:KERNEL32.dll
 0002:00000024       __imp__FindNextFileW@8     10028024     kernel32:KERNEL32.dll
 0002:00000028       __imp__GetModuleHandleExW@12 10028028     kernel32:KERNEL32.dll
 0002:0000002c       __imp__GetModuleFileNameW@12 1002802c     kernel32:KERNEL32.dll
 0002:00000030       __imp__SetEnvironmentVariableW@8 10028030     kernel32:KERNEL32.dll
 0002:00000034       __imp__GetEnvironmentVariableW@12 10028034     kernel32:KERNEL32.dll
 0002:00000038       __imp__FindClose@4         10028038     kernel32:KERNEL32.dll
 0002:0000003c       __imp__MultiByteToWideChar@24 1002803c     kernel32:KERNEL32.dll
 0002:00000040       __imp__GetLastError@0      10028040     kernel32:KERNEL32.dll
 0002:00000044       __imp__GetCurrentDirectoryW@8 10028044     kernel32:KERNEL32.dll
 0002:00000048       __imp__GetProcAddress@8    10028048     kernel32:KERNEL32.dll
 0002:0000004c       __imp__WideCharToMultiByte@32 1002804c     kernel32:KERNEL32.dll
 0002:00000050       __imp__LoadLibraryExW@12   10028050     kernel32:KERNEL32.dll
 0002:00000054       __imp__SetUnhandledExceptionFilter@4 10028054     kernel32:KERNEL32.dll
 0002:00000058       __imp__InitializeSListHead@4 10028058     kernel32:KERNEL32.dll
 0002:0000005c       __imp__DisableThreadLibraryCalls@4 1002805c     kernel32:KERNEL32.dll
 0002:00000060       __imp__GetSystemTimeAsFileTime@4 10028060     kernel32:KERNEL32.dll
 0002:00000064       __imp__GetCurrentProcessId@0 10028064     kernel32:KERNEL32.dll
 0002:00000068       __imp__QueryPerformanceCounter@4 10028068     kernel32:KERNEL32.dll
 0002:0000006c       __imp__IsDebuggerPresent@0 1002806c     kernel32:KERNEL32.dll
 0002:00000070       __imp__IsProcessorFeaturePresent@4 10028070     kernel32:KERNEL32.dll
 0002:00000074       __imp__TerminateProcess@8  10028074     kernel32:KERNEL32.dll
 0002:00000078       __imp__GetCurrentProcess@0 10028078     kernel32:KERNEL32.dll
 0002:0000007c       __imp__UnhandledExceptionFilter@4 1002807c     kernel32:KERNEL32.dll
 0002:00000080       \177KERNEL32_NULL_THUNK_DATA 10028080     kernel32:KERNEL32.dll
 0002:00000084       __imp_?_Xbad_function_call@std@@YAXXZ 10028084     msvcprt:MSVCP140.dll
 0002:00000088       __imp_?__ExceptionPtrRethrow@@YAXPBX@Z 10028088     msvcprt:MSVCP140.dll
 0002:0000008c       __imp_?__ExceptionPtrCurrentException@@YAXPAX@Z 1002808c     msvcprt:MSVCP140.dll
 0002:00000090       __imp_?__ExceptionPtrDestroy@@YAXPAX@Z 10028090     msvcprt:MSVCP140.dll
 0002:00000094       __imp_?__ExceptionPtrToBool@@YA_NPBX@Z 10028094     msvcprt:MSVCP140.dll
 0002:00000098       __imp_?_XGetLastError@std@@YAXXZ 10028098     msvcprt:MSVCP140.dll
 0002:0000009c       __imp_?__ExceptionPtrCopy@@YAXPAXPBX@Z 1002809c     msvcprt:MSVCP140.dll
 0002:000000a0       __imp_?__ExceptionPtrCreate@@YAXPAX@Z 100280a0     msvcprt:MSVCP140.dll
 0002:000000a4       __imp_?__ExceptionPtrAssign@@YAXPAXPBX@Z 100280a4     msvcprt:MSVCP140.dll
 0002:000000a8       __imp_??1?$basic_ostream@_WU?$char_traits@_W@std@@@std@@UAE@XZ 100280a8     msvcprt:MSVCP140.dll
 0002:000000ac       __imp_?sgetc@?$basic_streambuf@DU?$char_traits@D@std@@@std@@QAEHXZ 100280ac     msvcprt:MSVCP140.dll
 0002:000000b0       __imp_?sbumpc@?$basic_streambuf@DU?$char_traits@D@std@@@std@@QAEHXZ 100280b0     msvcprt:MSVCP140.dll
 0002:000000b4       __imp_??6?$basic_ostream@_WU?$char_traits@_W@std@@@std@@QAEAAV01@I@Z 100280b4     msvcprt:MSVCP140.dll
 0002:000000b8       __imp_??0?$basic_ostream@_WU?$char_traits@_W@std@@@std@@QAE@PAV?$basic_streambuf@_WU?$char_traits@_W@std@@@1@_N@Z 100280b8     msvcprt:MSVCP140.dll
 0002:000000bc       __imp_?_Syserror_map@std@@YAPBDH@Z 100280bc     msvcprt:MSVCP140.dll
 0002:000000c0       __imp_?_Winerror_map@std@@YAHH@Z 100280c0     msvcprt:MSVCP140.dll
 0002:000000c4       __imp_?_Winerror_message@std@@YAKKPADK@Z 100280c4     msvcprt:MSVCP140.dll
 0002:000000c8       __imp_?_Execute_once@std@@YAHAAUonce_flag@1@P6GHPAX1PAPAX@Z1@Z 100280c8     msvcprt:MSVCP140.dll
 0002:000000cc       __imp_??Bid@locale@std@@QAEIXZ 100280cc     msvcprt:MSVCP140.dll
 0002:000000d0       __imp_?always_noconv@codecvt_base@std@@QBE_NXZ 100280d0     msvcprt:MSVCP140.dll
 0002:000000d4       __imp_??1?$basic_istream@DU?$char_traits@D@std@@@std@@UAE@XZ 100280d4     msvcprt:MSVCP140.dll
 0002:000000d8       __imp_?xsputn@?$basic_streambuf@DU?$char_traits@D@std@@@std@@MAE_JPBD_J@Z 100280d8     msvcprt:MSVCP140.dll
 0002:000000dc       __imp_?xsgetn@?$basic_streambuf@DU?$char_traits@D@std@@@std@@MAE_JPAD_J@Z 100280dc     msvcprt:MSVCP140.dll
 0002:000000e0       __imp_?showmanyc@?$basic_streambuf@DU?$char_traits@D@std@@@std@@MAE_JXZ 100280e0     msvcprt:MSVCP140.dll
 0002:000000e4       __imp_??1?$basic_streambuf@DU?$char_traits@D@std@@@std@@UAE@XZ 100280e4     msvcprt:MSVCP140.dll
 0002:000000e8       __imp_??1?$basic_ios@DU?$char_traits@D@std@@@std@@UAE@XZ 100280e8     msvcprt:MSVCP140.dll
 0002:000000ec       __imp_?out@?$codecvt@DDU_Mbstatet@@@std@@QBEHAAU_Mbstatet@@PBD1AAPBDPAD3AAPAD@Z 100280ec     msvcprt:MSVCP140.dll
 0002:000000f0       __imp_?in@?$codecvt@DDU_Mbstatet@@@std@@QBEHAAU_Mbstatet@@PBD1AAPBDPAD3AAPAD@Z 100280f0     msvcprt:MSVCP140.dll
 0002:000000f4       __imp_?_Pninc@?$basic_streambuf@DU?$char_traits@D@std@@@std@@IAEPADXZ 100280f4     msvcprt:MSVCP140.dll
 0002:000000f8       __imp_?unshift@?$codecvt@DDU_Mbstatet@@@std@@QBEHAAU_Mbstatet@@PAD1AAPAD@Z 100280f8     msvcprt:MSVCP140.dll
 0002:000000fc       __imp_??0?$basic_istream@DU?$char_traits@D@std@@@std@@QAE@PAV?$basic_streambuf@DU?$char_traits@D@std@@@1@_N@Z 100280fc     msvcprt:MSVCP140.dll
 0002:00000100       __imp_?_Init@?$basic_streambuf@DU?$char_traits@D@std@@@std@@IAEXXZ 10028100     msvcprt:MSVCP140.dll
 0002:00000104       __imp_??0?$basic_ios@DU?$char_traits@D@std@@@std@@IAE@XZ 10028104     msvcprt:MSVCP140.dll
 0002:00000108       __imp_?setstate@?$basic_ios@DU?$char_traits@D@std@@@std@@QAEXH_N@Z 10028108     msvcprt:MSVCP140.dll
 0002:0000010c       __imp_?getloc@?$basic_streambuf@DU?$char_traits@D@std@@@std@@QBE?AVlocale@2@XZ 1002810c     msvcprt:MSVCP140.dll
 0002:00000110       __imp_??0?$basic_streambuf@DU?$char_traits@D@std@@@std@@IAE@XZ 10028110     msvcprt:MSVCP140.dll
 0002:00000114       __imp_?_Getcat@?$codecvt@DDU_Mbstatet@@@std@@SAIPAPBVfacet@locale@2@PBV42@@Z 10028114     msvcprt:MSVCP140.dll
 0002:00000118       __imp_?_Fiopen@std@@YAPAU_iobuf@@PB_WHH@Z 10028118     msvcprt:MSVCP140.dll
 0002:0000011c       __imp_?id@?$codecvt@DDU_Mbstatet@@@std@@2V0locale@2@A 1002811c     msvcprt:MSVCP140.dll
 0002:00000120       __imp_?_Getgloballocale@locale@std@@CAPAV_Locimp@12@XZ 10028120     msvcprt:MSVCP140.dll
 0002:00000124       __imp_??0_Lockit@std@@QAE@H@Z 10028124     msvcprt:MSVCP140.dll
 0002:00000128       __imp_??1_Lockit@std@@QAE@XZ 10028128     msvcprt:MSVCP140.dll
 0002:0000012c       __imp_??1?$basic_iostream@_WU?$char_traits@_W@std@@@std@@UAE@XZ 1002812c     msvcprt:MSVCP140.dll
 0002:00000130       __imp_??6?$basic_ostream@_WU?$char_traits@_W@std@@@std@@QAEAAV01@H@Z 10028130     msvcprt:MSVCP140.dll
 0002:00000134       __imp_?imbue@?$basic_streambuf@_WU?$char_traits@_W@std@@@std@@MAEXABVlocale@2@@Z 10028134     msvcprt:MSVCP140.dll
 0002:00000138       __imp_?sync@?$basic_streambuf@_WU?$char_traits@_W@std@@@std@@MAEHXZ 10028138     msvcprt:MSVCP140.dll
 0002:0000013c       __imp_?setbuf@?$basic_streambuf@_WU?$char_traits@_W@std@@@std@@MAEPAV12@PA_W_J@Z 1002813c     msvcprt:MSVCP140.dll
 0002:00000140       __imp_?xsputn@?$basic_streambuf@_WU?$char_traits@_W@std@@@std@@MAE_JPB_W_J@Z 10028140     msvcprt:MSVCP140.dll
 0002:00000144       __imp_?xsgetn@?$basic_streambuf@_WU?$char_traits@_W@std@@@std@@MAE_JPA_W_J@Z 10028144     msvcprt:MSVCP140.dll
 0002:00000148       __imp_?uflow@?$basic_streambuf@_WU?$char_traits@_W@std@@@std@@MAEGXZ 10028148     msvcprt:MSVCP140.dll
 0002:0000014c       __imp_?showmanyc@?$basic_streambuf@_WU?$char_traits@_W@std@@@std@@MAE_JXZ 1002814c     msvcprt:MSVCP140.dll
 0002:00000150       __imp_?_Unlock@?$basic_streambuf@_WU?$char_traits@_W@std@@@std@@UAEXXZ 10028150     msvcprt:MSVCP140.dll
 0002:00000154       __imp_?_Lock@?$basic_streambuf@_WU?$char_traits@_W@std@@@std@@UAEXXZ 10028154     msvcprt:MSVCP140.dll
 0002:00000158       __imp_??1?$basic_streambuf@_WU?$char_traits@_W@std@@@std@@UAE@XZ 10028158     msvcprt:MSVCP140.dll
 0002:0000015c       __imp_??1?$basic_ios@_WU?$char_traits@_W@std@@@std@@UAE@XZ 1002815c     msvcprt:MSVCP140.dll
 0002:00000160       __imp_??0?$basic_iostream@_WU?$char_traits@_W@std@@@std@@QAE@PAV?$basic_streambuf@_WU?$char_traits@_W@std@@@1@@Z 10028160     msvcprt:MSVCP140.dll
 0002:00000164       __imp_?_Pninc@?$basic_streambuf@_WU?$char_traits@_W@std@@@std@@IAEPA_WXZ 10028164     msvcprt:MSVCP140.dll
 0002:00000168       __imp_?_Xout_of_range@std@@YAXPBD@Z 10028168     msvcprt:MSVCP140.dll
 0002:0000016c       __imp_?_Xlength_error@std@@YAXPBD@Z 1002816c     msvcprt:MSVCP140.dll
 0002:00000170       __imp_?read@?$basic_istream@DU?$char_traits@D@std@@@std@@QAEAAV12@PAD_J@Z 10028170     msvcprt:MSVCP140.dll
 0002:00000174       __imp_?peek@?$basic_istream@DU?$char_traits@D@std@@@std@@QAEHXZ 10028174     msvcprt:MSVCP140.dll
 0002:00000178       __imp_?seekg@?$basic_istream@DU?$char_traits@D@std@@@std@@QAEAAV12@_JH@Z 10028178     msvcprt:MSVCP140.dll
 0002:0000017c       __imp_?uncaught_exception@std@@YA_NXZ 1002817c     msvcprt:MSVCP140.dll
 0002:00000180       __imp_?_Xinvalid_argument@std@@YAXPBD@Z 10028180     msvcprt:MSVCP140.dll
 0002:00000184       __imp_?sputn@?$basic_streambuf@_WU?$char_traits@_W@std@@@std@@QAE_JPB_W_J@Z 10028184     msvcprt:MSVCP140.dll
 0002:00000188       __imp_?sputc@?$basic_streambuf@_WU?$char_traits@_W@std@@@std@@QAEG_W@Z 10028188     msvcprt:MSVCP140.dll
 0002:0000018c       __imp_??0?$basic_streambuf@_WU?$char_traits@_W@std@@@std@@IAE@XZ 1002818c     msvcprt:MSVCP140.dll
 0002:00000190       __imp_?_Osfx@?$basic_ostream@_WU?$char_traits@_W@std@@@std@@QAEXXZ 10028190     msvcprt:MSVCP140.dll
 0002:00000194       __imp_?flush@?$basic_ostream@_WU?$char_traits@_W@std@@@std@@QAEAAV12@XZ 10028194     msvcprt:MSVCP140.dll
 0002:00000198       __imp_?setstate@?$basic_ios@_WU?$char_traits@_W@std@@@std@@QAEXH_N@Z 10028198     msvcprt:MSVCP140.dll
 0002:0000019c       __imp_??0?$basic_ios@_WU?$char_traits@_W@std@@@std@@IAE@XZ 1002819c     msvcprt:MSVCP140.dll
 0002:000001a0       \177MSVCP140_NULL_THUNK_DATA 100281a0     msvcprt:MSVCP140.dll
 0002:000001a4       __imp__memcpy              100281a4     vcruntime:VCRUNTIME140.dll
 0002:000001a8       __imp__memmove             100281a8     vcruntime:VCRUNTIME140.dll
 0002:000001ac       __imp____std_terminate     100281ac     vcruntime:VCRUNTIME140.dll
 0002:000001b0       __imp____std_exception_destroy 100281b0     vcruntime:VCRUNTIME140.dll
 0002:000001b4       __imp____std_exception_copy 100281b4     vcruntime:VCRUNTIME140.dll
 0002:000001b8       __imp___purecall           100281b8     vcruntime:VCRUNTIME140.dll
 0002:000001bc       __imp___CxxThrowException@8 100281bc     vcruntime:VCRUNTIME140.dll
 0002:000001c0       __imp___except_handler4_common 100281c0     vcruntime:VCRUNTIME140.dll
 0002:000001c4       __imp__memset              100281c4     vcruntime:VCRUNTIME140.dll
 0002:000001c8       __imp____std_type_info_destroy_list 100281c8     vcruntime:VCRUNTIME140.dll
 0002:000001cc       __imp____CxxFrameHandler3  100281cc     vcruntime:VCRUNTIME140.dll
 0002:000001d0       \177VCRUNTIME140_NULL_THUNK_DATA 100281d0     vcruntime:VCRUNTIME140.dll
 0002:000001d4       __imp___ui64toa_s          100281d4     ucrt:api-ms-win-crt-convert-l1-1-0.dll
 0002:000001d8       __imp__wcstoul             100281d8     ucrt:api-ms-win-crt-convert-l1-1-0.dll
 0002:000001dc       __imp___i64toa_s           100281dc     ucrt:api-ms-win-crt-convert-l1-1-0.dll
 0002:000001e0       __imp___i64tow_s           100281e0     ucrt:api-ms-win-crt-convert-l1-1-0.dll
 0002:000001e4       __imp___wtoi               100281e4     ucrt:api-ms-win-crt-convert-l1-1-0.dll
 0002:000001e8       __imp___ui64tow_s          100281e8     ucrt:api-ms-win-crt-convert-l1-1-0.dll
 0002:000001ec       __imp___strtod_l           100281ec     ucrt:api-ms-win-crt-convert-l1-1-0.dll
 0002:000001f0       \177api-ms-win-crt-convert-l1-1-0_NULL_THUNK_DATA 100281f0     ucrt:api-ms-win-crt-convert-l1-1-0.dll
 0002:000001f4       __imp___unlock_file        100281f4     ucrt:api-ms-win-crt-filesystem-l1-1-0.dll
 0002:000001f8       __imp___lock_file          100281f8     ucrt:api-ms-win-crt-filesystem-l1-1-0.dll
 0002:000001fc       \177api-ms-win-crt-filesystem-l1-1-0_NULL_THUNK_DATA 100281fc     ucrt:api-ms-win-crt-filesystem-l1-1-0.dll
 0002:00000200       __imp__free                10028200     ucrt:api-ms-win-crt-heap-l1-1-0.dll
 0002:00000204       __imp__malloc              10028204     ucrt:api-ms-win-crt-heap-l1-1-0.dll
 0002:00000208       __imp___callnewh           10028208     ucrt:api-ms-win-crt-heap-l1-1-0.dll
 0002:0000020c       \177api-ms-win-crt-heap-l1-1-0_NULL_THUNK_DATA 1002820c     ucrt:api-ms-win-crt-heap-l1-1-0.dll
 0002:00000210       __imp___create_locale      10028210     ucrt:api-ms-win-crt-locale-l1-1-0.dll
 0002:00000214       __imp___free_locale        10028214     ucrt:api-ms-win-crt-locale-l1-1-0.dll
 0002:00000218       __imp____pctype_func       10028218     ucrt:api-ms-win-crt-locale-l1-1-0.dll
 0002:0000021c       \177api-ms-win-crt-locale-l1-1-0_NULL_THUNK_DATA 1002821c     ucrt:api-ms-win-crt-locale-l1-1-0.dll
 0002:00000220       __imp___except1            10028220     ucrt:api-ms-win-crt-math-l1-1-0.dll
 0002:00000224       \177api-ms-win-crt-math-l1-1-0_NULL_THUNK_DATA 10028224     ucrt:api-ms-win-crt-math-l1-1-0.dll
 0002:00000228       __imp___crt_atexit         10028228     ucrt:api-ms-win-crt-runtime-l1-1-0.dll
 0002:0000022c       __imp___seh_filter_dll     1002822c     ucrt:api-ms-win-crt-runtime-l1-1-0.dll
 0002:00000230       __imp___wassert            10028230     ucrt:api-ms-win-crt-runtime-l1-1-0.dll
 0002:00000234       __imp___invalid_parameter_noinfo_noreturn 10028234     ucrt:api-ms-win-crt-runtime-l1-1-0.dll
 0002:00000238       __imp___configure_narrow_argv 10028238     ucrt:api-ms-win-crt-runtime-l1-1-0.dll
 0002:0000023c       __imp___initialize_narrow_environment 1002823c     ucrt:api-ms-win-crt-runtime-l1-1-0.dll
 0002:00000240       __imp___errno              10028240     ucrt:api-ms-win-crt-runtime-l1-1-0.dll
 0002:00000244       __imp___initialize_onexit_table 10028244     ucrt:api-ms-win-crt-runtime-l1-1-0.dll
 0002:00000248       __imp___register_onexit_function 10028248     ucrt:api-ms-win-crt-runtime-l1-1-0.dll
 0002:0000024c       __imp___execute_onexit_table 1002824c     ucrt:api-ms-win-crt-runtime-l1-1-0.dll
 0002:00000250       __imp__terminate           10028250     ucrt:api-ms-win-crt-runtime-l1-1-0.dll
 0002:00000254       __imp___cexit              10028254     ucrt:api-ms-win-crt-runtime-l1-1-0.dll
 0002:00000258       __imp___initterm_e         10028258     ucrt:api-ms-win-crt-runtime-l1-1-0.dll
 0002:0000025c       __imp___initterm           1002825c     ucrt:api-ms-win-crt-runtime-l1-1-0.dll
 0002:00000260       \177api-ms-win-crt-runtime-l1-1-0_NULL_THUNK_DATA 10028260     ucrt:api-ms-win-crt-runtime-l1-1-0.dll
 0002:00000264       __imp__fwrite              10028264     ucrt:api-ms-win-crt-stdio-l1-1-0.dll
 0002:00000268       __imp__fgetc               10028268     ucrt:api-ms-win-crt-stdio-l1-1-0.dll
 0002:0000026c       __imp__fclose              1002826c     ucrt:api-ms-win-crt-stdio-l1-1-0.dll
 0002:00000270       __imp__fflush              10028270     ucrt:api-ms-win-crt-stdio-l1-1-0.dll
 0002:00000274       __imp__fputc               10028274     ucrt:api-ms-win-crt-stdio-l1-1-0.dll
 0002:00000278       __imp__fputws              10028278     ucrt:api-ms-win-crt-stdio-l1-1-0.dll
 0002:0000027c       __imp____stdio_common_vsprintf 1002827c     ucrt:api-ms-win-crt-stdio-l1-1-0.dll
 0002:00000280       __imp____stdio_common_vfprintf 10028280     ucrt:api-ms-win-crt-stdio-l1-1-0.dll
 0002:00000284       __imp__fgetpos             10028284     ucrt:api-ms-win-crt-stdio-l1-1-0.dll
 0002:00000288       __imp__setvbuf             10028288     ucrt:api-ms-win-crt-stdio-l1-1-0.dll
 0002:0000028c       __imp__ungetc              1002828c     ucrt:api-ms-win-crt-stdio-l1-1-0.dll
 0002:00000290       __imp__fsetpos             10028290     ucrt:api-ms-win-crt-stdio-l1-1-0.dll
 0002:00000294       __imp__fread               10028294     ucrt:api-ms-win-crt-stdio-l1-1-0.dll
 0002:00000298       __imp___fseeki64           10028298     ucrt:api-ms-win-crt-stdio-l1-1-0.dll
 0002:0000029c       __imp___get_stream_buffer_pointers 1002829c     ucrt:api-ms-win-crt-stdio-l1-1-0.dll
 0002:000002a0       __imp____stdio_common_vsnprintf_s 100282a0     ucrt:api-ms-win-crt-stdio-l1-1-0.dll
 0002:000002a4       __imp____stdio_common_vfwprintf 100282a4     ucrt:api-ms-win-crt-stdio-l1-1-0.dll
 0002:000002a8       __imp____acrt_iob_func     100282a8     ucrt:api-ms-win-crt-stdio-l1-1-0.dll
 0002:000002ac       __imp____stdio_common_vswprintf_s 100282ac     ucrt:api-ms-win-crt-stdio-l1-1-0.dll
 0002:000002b0       __imp____stdio_common_vsprintf_s 100282b0     ucrt:api-ms-win-crt-stdio-l1-1-0.dll
 0002:000002b4       \177api-ms-win-crt-stdio-l1-1-0_NULL_THUNK_DATA 100282b4     ucrt:api-ms-win-crt-stdio-l1-1-0.dll
 0002:000002b8       __imp__wcsnlen             100282b8     ucrt:api-ms-win-crt-string-l1-1-0.dll
 0002:000002bc       __imp___isctype_l          100282bc     ucrt:api-ms-win-crt-string-l1-1-0.dll
 0002:000002c0       __imp__strncpy             100282c0     ucrt:api-ms-win-crt-string-l1-1-0.dll
 0002:000002c4       __imp___wcsicmp            100282c4     ucrt:api-ms-win-crt-string-l1-1-0.dll
 0002:000002c8       __imp__iswspace            100282c8     ucrt:api-ms-win-crt-string-l1-1-0.dll
 0002:000002cc       __imp___wcsnicmp           100282cc     ucrt:api-ms-win-crt-string-l1-1-0.dll
 0002:000002d0       __imp__towlower            100282d0     ucrt:api-ms-win-crt-string-l1-1-0.dll
 0002:000002d4       __imp__strnlen             100282d4     ucrt:api-ms-win-crt-string-l1-1-0.dll
 0002:000002d8       \177api-ms-win-crt-string-l1-1-0_NULL_THUNK_DATA 100282d8     ucrt:api-ms-win-crt-string-l1-1-0.dll
 0002:000002dc       __imp__uv_default_loop     100282dc     node:node.dll
 0002:000002e0       __imp_?EmitAsyncDestroy@node@@YAXPAVIsolate@v8@@Uasync_context@1@@Z 100282e0     node:node.dll
 0002:000002e4       __imp__uv_sem_init         100282e4     node:node.dll
 0002:000002e8       __imp__uv_async_init       100282e8     node:node.dll
 0002:000002ec       __imp_?MakeCallback@node@@YA?AV?$MaybeLocal@VValue@v8@@@v8@@PAVIsolate@3@V?$Local@VObject@v8@@@3@V?$Local@VFunction@v8@@@3@HPAV?$Local@VValue@v8@@@3@Uasync_context@1@@Z 100282ec     node:node.dll
 0002:000002f0       __imp_?EmitAsyncInit@node@@YA?AUasync_context@1@PAVIsolate@v8@@V?$Local@VObject@v8@@@4@V?$Local@VString@v8@@@4@N@Z 100282f0     node:node.dll
 0002:000002f4       __imp__node_module_register 100282f4     node:node.dll
 0002:000002f8       __imp_?HasInstance@Buffer@node@@YA_NV?$Local@VValue@v8@@@v8@@@Z 100282f8     node:node.dll
 0002:000002fc       __imp_?FatalException@node@@YAXPAVIsolate@v8@@ABVTryCatch@3@@Z 100282fc     node:node.dll
 0002:00000300       __imp_?New@Buffer@node@@YA?AV?$MaybeLocal@VObject@v8@@@v8@@PAVIsolate@4@I@Z 10028300     node:node.dll
 0002:00000304       __imp__uv_async_send       10028304     node:node.dll
 0002:00000308       __imp__uv_sem_post         10028308     node:node.dll
 0002:0000030c       __imp__uv_close            1002830c     node:node.dll
 0002:00000310       __imp_?Data@Buffer@node@@YAPADV?$Local@VObject@v8@@@v8@@@Z 10028310     node:node.dll
 0002:00000314       __imp__uv_sem_wait         10028314     node:node.dll
 0002:00000318       __imp_?Copy@Buffer@node@@YA?AV?$MaybeLocal@VObject@v8@@@v8@@PAVIsolate@4@PBDI@Z 10028318     node:node.dll
 0002:0000031c       __imp_?Length@Buffer@node@@YAIV?$Local@VObject@v8@@@v8@@@Z 1002831c     node:node.dll
 0002:00000320       __imp__uv_unref            10028320     node:node.dll
 0002:00000324       \177node_NULL_THUNK_DATA   10028324     node:node.dll
 0002:00000328       __imp_?HasCaught@TryCatch@v8@@QBE_NXZ 10028328     nw:nw.dll
 0002:0000032c       __imp_??1TryCatch@v8@@QAE@XZ 1002832c     nw:nw.dll
 0002:00000330       __imp_?GlobalizeReference@V8@v8@@CAPAPAVObject@internal@2@PAVIsolate@42@PAPAV342@@Z 10028330     nw:nw.dll
 0002:00000334       __imp_?Escape@EscapableHandleScope@v8@@AAEPAPAVObject@internal@2@PAPAV342@@Z 10028334     nw:nw.dll
 0002:00000338       __imp_??0EscapableHandleScope@v8@@QAE@PAVIsolate@1@@Z 10028338     nw:nw.dll
 0002:0000033c       __imp_?NewFromUtf8@String@v8@@SA?AV?$MaybeLocal@VString@v8@@@2@PAVIsolate@2@PBDW4NewStringType@2@H@Z 1002833c     nw:nw.dll
 0002:00000340       __imp_?SlowGetInternalField@Object@v8@@AAE?AV?$Local@VValue@v8@@@2@H@Z 10028340     nw:nw.dll
 0002:00000344       __imp_??0TryCatch@v8@@QAE@PAVIsolate@1@@Z 10028344     nw:nw.dll
 0002:00000348       __imp_?Exception@TryCatch@v8@@QBE?AV?$Local@VValue@v8@@@2@XZ 10028348     nw:nw.dll
 0002:0000034c       __imp_?New@Object@v8@@SA?AV?$Local@VObject@v8@@@2@PAVIsolate@2@@Z 1002834c     nw:nw.dll
 0002:00000350       __imp_?SetInternalField@Object@v8@@QAEXHV?$Local@VValue@v8@@@2@@Z 10028350     nw:nw.dll
 0002:00000354       __imp_?New@Function@v8@@SA?AV?$Local@VFunction@v8@@@2@PAVIsolate@2@P6AXABV?$FunctionCallbackInfo@VValue@v8@@@2@@ZV?$Local@VValue@v8@@@2@H@Z 10028354     nw:nw.dll
 0002:00000358       __imp_?SetInternalFieldCount@ObjectTemplate@v8@@QAEXH@Z 10028358     nw:nw.dll
 0002:0000035c       __imp_?NewInstance@ObjectTemplate@v8@@QAE?AV?$MaybeLocal@VObject@v8@@@2@V?$Local@VContext@v8@@@2@@Z 1002835c     nw:nw.dll
 0002:00000360       __imp_?New@ObjectTemplate@v8@@SA?AV?$Local@VObjectTemplate@v8@@@2@PAVIsolate@2@V?$Local@VFunctionTemplate@v8@@@2@@Z 10028360     nw:nw.dll
 0002:00000364       __imp_??1EscapableHandleScope@v8@@QAE@XZ 10028364     nw:nw.dll
 0002:00000368       __imp_?GetFunction@FunctionTemplate@v8@@QAE?AV?$Local@VFunction@v8@@@2@XZ 10028368     nw:nw.dll
 0002:0000036c       __imp_?New@FunctionTemplate@v8@@SA?AV?$Local@VFunctionTemplate@v8@@@2@PAVIsolate@2@P6AXABV?$FunctionCallbackInfo@VValue@v8@@@2@@ZV?$Local@VValue@v8@@@2@V?$Local@VSignature@v8@@@2@HW4ConstructorBehavior@2@@Z 1002836c     nw:nw.dll
 0002:00000370       __imp_?Set@Object@v8@@QAE?AV?$Maybe@_N@2@V?$Local@VContext@v8@@@2@V?$Local@VValue@v8@@@2@1@Z 10028370     nw:nw.dll
 0002:00000374       __imp_?Call@Function@v8@@QAE?AV?$Local@VValue@v8@@@2@V32@HQAV32@@Z 10028374     nw:nw.dll
 0002:00000378       __imp_?New@Integer@v8@@SA?AV?$Local@VInteger@v8@@@2@PAVIsolate@2@H@Z 10028378     nw:nw.dll
 0002:0000037c       __imp_?ThrowException@Isolate@v8@@QAE?AV?$Local@VValue@v8@@@2@V32@@Z 1002837c     nw:nw.dll
 0002:00000380       __imp_?Error@Exception@v8@@SA?AV?$Local@VValue@v8@@@2@V?$Local@VString@v8@@@2@@Z 10028380     nw:nw.dll
 0002:00000384       __imp_?New@Array@v8@@SA?AV?$Local@VArray@v8@@@2@PAVIsolate@2@H@Z 10028384     nw:nw.dll
 0002:00000388       __imp_?Length@Array@v8@@QBEIXZ 10028388     nw:nw.dll
 0002:0000038c       __imp_?New@Date@v8@@SA?AV?$MaybeLocal@VValue@v8@@@2@V?$Local@VContext@v8@@@2@N@Z 1002838c     nw:nw.dll
 0002:00000390       __imp_?MakeWeak@V8@v8@@CAXPAPAVObject@internal@2@PAXP6AXABV?$WeakCallbackInfo@X@2@@ZW4WeakCallbackType@2@@Z 10028390     nw:nw.dll
 0002:00000394       __imp_?Int32Value@Value@v8@@QBEHXZ 10028394     nw:nw.dll
 0002:00000398       __imp_?Uint32Value@Value@v8@@QBEIXZ 10028398     nw:nw.dll
 0002:0000039c       __imp_?NumberValue@Value@v8@@QBENXZ 1002839c     nw:nw.dll
 0002:000003a0       __imp_?BooleanValue@Value@v8@@QBE_NXZ 100283a0     nw:nw.dll
 0002:000003a4       __imp_?ToInteger@Value@v8@@QBE?AV?$MaybeLocal@VInteger@v8@@@2@V?$Local@VContext@v8@@@2@@Z 100283a4     nw:nw.dll
 0002:000003a8       __imp_?IsDate@Value@v8@@QBE_NXZ 100283a8     nw:nw.dll
 0002:000003ac       __imp_?IsUint32@Value@v8@@QBE_NXZ 100283ac     nw:nw.dll
 0002:000003b0       __imp_?IsInt32@Value@v8@@QBE_NXZ 100283b0     nw:nw.dll
 0002:000003b4       __imp_?IsNumber@Value@v8@@QBE_NXZ 100283b4     nw:nw.dll
 0002:000003b8       __imp_?IsBoolean@Value@v8@@QBE_NXZ 100283b8     nw:nw.dll
 0002:000003bc       __imp_?IsObject@Value@v8@@QBE_NXZ 100283bc     nw:nw.dll
 0002:000003c0       __imp_?IsArray@Value@v8@@QBE_NXZ 100283c0     nw:nw.dll
 0002:000003c4       __imp_?IsFunction@Value@v8@@QBE_NXZ 100283c4     nw:nw.dll
 0002:000003c8       __imp_?Run@Script@v8@@QAE?AV?$Local@VValue@v8@@@2@XZ 100283c8     nw:nw.dll
 0002:000003cc       __imp_?Compile@Script@v8@@SA?AV?$Local@VScript@v8@@@2@V?$Local@VString@v8@@@2@PAVScriptOrigin@2@@Z 100283cc     nw:nw.dll
 0002:000003d0       __imp_??1Utf8Value@String@v8@@QAE@XZ 100283d0     nw:nw.dll
 0002:000003d4       __imp_??0Utf8Value@String@v8@@QAE@V?$Local@VValue@v8@@@2@@Z 100283d4     nw:nw.dll
 0002:000003d8       __imp_?New@Number@v8@@SA?AV?$Local@VNumber@v8@@@2@PAVIsolate@2@N@Z 100283d8     nw:nw.dll
 0002:000003dc       __imp_?SetPrototype@Object@v8@@QAE?AV?$Maybe@_N@2@V?$Local@VContext@v8@@@2@V?$Local@VValue@v8@@@2@@Z 100283dc     nw:nw.dll
 0002:000003e0       __imp_?GetPropertyNames@Object@v8@@QAE?AV?$Local@VArray@v8@@@2@XZ 100283e0     nw:nw.dll
 0002:000003e4       __imp_?Get@Object@v8@@QAE?AV?$Local@VValue@v8@@@2@V32@@Z 100283e4     nw:nw.dll
 0002:000003e8       __imp_?Get@Object@v8@@QAE?AV?$Local@VValue@v8@@@2@I@Z 100283e8     nw:nw.dll
 0002:000003ec       __imp_?Set@Object@v8@@QAE_NV?$Local@VValue@v8@@@2@0@Z 100283ec     nw:nw.dll
 0002:000003f0       __imp_?DisposeGlobal@V8@v8@@CAXPAPAVObject@internal@2@@Z 100283f0     nw:nw.dll
 0002:000003f4       __imp_?ToLocalEmpty@V8@v8@@CAXXZ 100283f4     nw:nw.dll
 0002:000003f8       __imp_?CreateHandle@HandleScope@v8@@CAPAPAVObject@internal@2@PAVHeapObject@42@PAV342@@Z 100283f8     nw:nw.dll
 0002:000003fc       __imp_?CreateHandle@HandleScope@v8@@KAPAPAVObject@internal@2@PAVIsolate@42@PAV342@@Z 100283fc     nw:nw.dll
 0002:00000400       __imp_?GetCurrentContext@Isolate@v8@@QAE?AV?$Local@VContext@v8@@@2@XZ 10028400     nw:nw.dll
 0002:00000404       __imp_?New@External@v8@@SA?AV?$Local@VExternal@v8@@@2@PAVIsolate@2@PAX@Z 10028404     nw:nw.dll
 0002:00000408       __imp_?Value@External@v8@@QBEPAXXZ 10028408     nw:nw.dll
 0002:0000040c       __imp_?Global@Context@v8@@QAE?AV?$Local@VObject@v8@@@2@XZ 1002840c     nw:nw.dll
 0002:00000410       __imp_??0HandleScope@v8@@QAE@PAVIsolate@1@@Z 10028410     nw:nw.dll
 0002:00000414       __imp_??1HandleScope@v8@@QAE@XZ 10028414     nw:nw.dll
 0002:00000418       __imp_?GetCurrent@Isolate@v8@@SAPAV12@XZ 10028418     nw:nw.dll
 0002:0000041c       __imp_?Set@Object@v8@@QAE_NIV?$Local@VValue@v8@@@2@@Z 1002841c     nw:nw.dll
 0002:00000420       __imp_?Call@Function@v8@@QAE?AV?$MaybeLocal@VValue@v8@@@2@V?$Local@VContext@v8@@@2@V?$Local@VValue@v8@@@2@HQAV52@@Z 10028420     nw:nw.dll
 0002:00000424       __imp_?ToObject@Value@v8@@QBE?AV?$Local@VObject@v8@@@2@XZ 10028424     nw:nw.dll
 0002:00000428       \177nw_NULL_THUNK_DATA     10028428     nw:nw.dll
 0002:0000042c       ___guard_check_icall_fptr  1002842c     MSVCRT:guard_support.obj
 0002:00000430       ___xc_a                    10028430     MSVCRT:initializers.obj
 0002:00000438       __register_edge_coreclr_   10028438     edge.obj
 0002:00000444       ___xc_z                    10028444     MSVCRT:initializers.obj
 0002:00000448       ___xi_a                    10028448     MSVCRT:initializers.obj
 0002:0000044c       ___xi_z                    1002844c     MSVCRT:initializers.obj
 0002:00000450       ___xp_a                    10028450     MSVCRT:initializers.obj
 0002:00000454       ___xp_z                    10028454     MSVCRT:initializers.obj
 0002:00000458       ___xt_a                    10028458     MSVCRT:initializers.obj
 0002:0000045c       ___xt_z                    1002845c     MSVCRT:initializers.obj
 0002:00000464       ??_7type_info@@6B@         10028464     MSVCRT:std_type_info_static.obj
 0002:00000468       __pDefaultRawDllMain       10028468     MSVCRT:dll_dllmain.obj
 0002:00000468       __pRawDllMain              10028468     MSVCRT:dll_dllmain.obj
 0002:00000478       ??_7exception@std@@6B@     10028478     MSVCRT:throw_bad_alloc.obj
 0002:00000484       ??_7bad_alloc@std@@6B@     10028484     MSVCRT:throw_bad_alloc.obj
 0002:0000048c       ??_C@_0P@GHFPNOJB@bad?5allocation@ 1002848c     MSVCRT:throw_bad_alloc.obj
 0002:000004a0       ??_7bad_array_new_length@std@@6B@ 100284a0     MSVCRT:throw_bad_alloc.obj
 0002:000004a8       ??_C@_0BF@KINCDENJ@bad?5array?5new?5length@ 100284a8     MSVCRT:throw_bad_alloc.obj
 0002:000004c0       ??_C@_0BD@IIICBIPG@continueOnV8Thread@ 100284c0     v8synchronizationcontext.obj
 0002:000004d4       ??_C@_01EEMJAFIK@?6@       100284d4     v8synchronizationcontext.obj
 0002:000004d8       ??_C@_0CF@NBIIEHG@V8SynchronizationContext?3?3Initi@ 100284d8     v8synchronizationcontext.obj
 0002:00000500       ??_C@_0CA@GEGBHOOH@V8SynchronizationContext?3?3Unref@ 10028500     v8synchronizationcontext.obj
 0002:00000520       ??_C@_0CJ@GHCFCBME@V8SynchronizationContext?3?3Regis@ 10028520     v8synchronizationcontext.obj
 0002:0000054c       ??_C@_0DG@JFAEAFDF@V8SynchronizationContext?3?3Regis@ 1002854c     v8synchronizationcontext.obj
 0002:00000584       ??_C@_0DH@KHELHDDP@V8SynchronizationContext?3?3Regis@ 10028584     v8synchronizationcontext.obj
 0002:000005bc       ??_C@_0CI@BPHFDAEB@V8SynchronizationContext?3?3Execu@ 100285bc     v8synchronizationcontext.obj
 0002:000005e4       ??_C@_0CH@IOBLEAG@V8SynchronizationContext?3?3Cance@ 100285e4     v8synchronizationcontext.obj
 0002:0000060c       ??_C@_0BC@EBHDFLHM@nan?3Callback?3Call@ 1002860c     callbackhelper.obj
 0002:00000620       ??_C@_0BL@KGOBFBBG@CallbackHelper?3?3Initialize@ 10028620     callbackhelper.obj
 0002:0000063c       ??_C@_0L@EKKNFNBB@EDGE_DEBUG@ 1002863c     edge.obj
 0002:00000648       ??_C@_0L@CHICJFFH@edge?3?3init@ 10028648     edge.obj
 0002:00000654       ??_C@_0CN@GCNHABKO@Error?5occurred?5during?5CoreCLR?5i@ 10028654     edge.obj
 0002:00000684       ??_C@_0CC@HGMALJDA@EDGE_ENABLE_SCRIPTIGNOREATTRIBU@ 10028684     edge.obj
 0002:000006a8       ??_C@_0BJ@HEIPPCF@EDGE_MARSHAL_ENUM_AS_INT@ 100286a8     edge.obj
 0002:000006c4       ??_C@_0BC@PHGCDEGB@initializeClrFunc@ 100286c4     edge.obj
 0002:000006d8       ??_C@_0DP@OBFDDEDC@c?3?2users?2usuario?2test?2node_modu@ 100286d8     edge.obj
 0002:00000718       ??_C@_0N@GKDMPLBB@edge_coreclr@ 10028718     edge.obj
 0002:00000728       ??_C@_0BA@JFNIOLAK@string?5too?5long@ 10028728     coreclrembedding.obj
 0002:00000738       ??_C@_19DOGDICKI@?$AA?4?$AAe?$AAx?$AAe@ 10028738     coreclrembedding.obj
 0002:00000748       ??_C@_1KG@GIOKDHCP@?$AAc?$AA?3?$AA?2?$AAu?$AAs?$AAe?$AAr?$AAs?$AA?2?$AAu?$AAs?$AAu?$AAa?$AAr?$AAi@ 10028748     coreclrembedding.obj
 0002:000007f0       ??_C@_1FA@JJMGCHKI@?$AAt?$AAy?$AAp?$AAe?$AA?5?$AA?$DM?$AA?5?$AAd?$AAe?$AAp?$AAs?$AA_?$AAe?$AAn?$AAt@ 100287f0     coreclrembedding.obj
 0002:00000840       ??_C@_1BO@FEIGGILH@?$AAh?$AAo?$AAs?$AAt?$AAp?$AAo?$AAl?$AAi?$AAc?$AAy?$AA?4?$AAd?$AAl?$AAl@ 10028840     coreclrembedding.obj
 0002:00000860       ??_C@_1LI@HEKIGKPE@?$AAT?$AAh?$AAe?$AA?5?$AAv?$AAe?$AAr?$AAs?$AAi?$AAo?$AAn?$AA?5?$AAo?$AAf?$AA?5@ 10028860     coreclrembedding.obj
 0002:00000918       ??_C@_1JM@ELGPCKBJ@?$AAT?$AAh?$AAe?$AA?5?$AAs?$AAi?$AAz?$AAe?$AA?5?$AAo?$AAf?$AA?5?$AAt?$AAh?$AAe@ 10028918     coreclrembedding.obj
 0002:000009b8       ??_C@_1LG@JJJLDALB@?$AAR?$AAe?$AAa?$AAd?$AAi?$AAn?$AAg?$AA?5?$AAf?$AAr?$AAo?$AAm?$AA?5?$AAh?$AAo@ 100289b8     coreclrembedding.obj
 0002:00000a70       ??_C@_1CM@IIKCNBIL@?$AAU?$AAs?$AAi?$AAn?$AAg?$AA?5?$AA?$CF?$AAs?$AA?5?$AAF?$AAX?$AA?5?$AAd?$AAe?$AAp@ 10028a70     coreclrembedding.obj
 0002:00000a9c       ??_C@_1CG@OPJCMPEJ@?$AAU?$AAs?$AAi?$AAn?$AAg?$AA?5?$AA?$CF?$AAs?$AA?5?$AAd?$AAe?$AAp?$AAs?$AA?5?$AAf@ 10028a9c     coreclrembedding.obj
 0002:00000ac8       ??_C@_1EC@MBDPFHBF@?$AAA?$AAn?$AA?5?$AAe?$AAr?$AAr?$AAo?$AAr?$AA?5?$AAo?$AAc?$AAc?$AAu?$AAr?$AAr@ 10028ac8     coreclrembedding.obj
 0002:00000b10       ??_C@_1IE@DLJDNKBO@?$AAA?$AA?5?$AAf?$AAa?$AAt?$AAa?$AAl?$AA?5?$AAe?$AAr?$AAr?$AAo?$AAr?$AA?5?$AAw@ 10028b10     coreclrembedding.obj
 0002:00000b94       ??_C@_1BG@IAKAALL@?$AA?4?$AAd?$AAe?$AAp?$AAs?$AA?4?$AAj?$AAs?$AAo?$AAn@ 10028b94     coreclrembedding.obj
 0002:00000bac       ??_C@_17MIEKGGLN@?$AAw?$AAi?$AAn@ 10028bac     coreclrembedding.obj
 0002:00000bb4       ??_C@_17NIABIIAO@?$AAx?$AA8?$AA6@ 10028bb4     coreclrembedding.obj
 0002:00000bbc       ??_C@_13LDEHOAPL@?$AA7@    10028bbc     coreclrembedding.obj
 0002:00000bc0       ??_C@_13OLCEPAKN@?$AA8@    10028bc0     coreclrembedding.obj
 0002:00000bc4       ??_C@_15OOIDEEFI@?$AA8?$AA1@ 10028bc4     coreclrembedding.obj
 0002:00000bcc       ??_C@_15HBDAHCPF@?$AA1?$AA0@ 10028bcc     coreclrembedding.obj
 0002:00000bd4       ??_C@_11LOCGONAA@@         10028bd4     coreclrembedding.obj
 0002:00000bd8       ??_C@_1BG@KJNBIDOP@?$AAE?$AAD?$AAG?$AAE?$AA_?$AAD?$AAE?$AAB?$AAU?$AAG@ 10028bd8     coreclrembedding.obj
 0002:00000bf0       ??_C@_1EO@FDPHJDN@?$AAC?$AAo?$AAr?$AAe?$AAC?$AAl?$AAr?$AAE?$AAm?$AAb?$AAe?$AAd?$AAd?$AAi?$AAn@ 10028bf0     coreclrembedding.obj
 0002:00000c40       ??_C@_13IMODFHAA@?$AA?9@   10028c40     coreclrembedding.obj
 0002:00000c44       ??_C@_0CF@KEJBMJAG@Unable?5to?5get?5the?5current?5direc@ 10028c44     coreclrembedding.obj
 0002:00000c70       ??_C@_1GI@OEOGPNMA@?$AAC?$AAo?$AAr?$AAe?$AAC?$AAl?$AAr?$AAE?$AAm?$AAb?$AAe?$AAd?$AAd?$AAi?$AAn@ 10028c70     coreclrembedding.obj
 0002:00000cd8       ??_C@_1GE@PHHGDDLM@?$AAC?$AAo?$AAr?$AAe?$AAC?$AAl?$AAr?$AAE?$AAm?$AAb?$AAe?$AAd?$AAd?$AAi?$AAn@ 10028cd8     coreclrembedding.obj
 0002:00000d40       ??_C@_1HG@JPIBAAJN@?$AAC?$AAo?$AAr?$AAe?$AAC?$AAl?$AAr?$AAE?$AAm?$AAb?$AAe?$AAd?$AAd?$AAi?$AAn@ 10028d40     coreclrembedding.obj
 0002:00000db8       ??_C@_1BM@MHCBPDGI@?$AAE?$AAD?$AAG?$AAE?$AA_?$AAA?$AAP?$AAP?$AA_?$AAR?$AAO?$AAO?$AAT@ 10028db8     coreclrembedding.obj
 0002:00000dd4       ??_C@_1CG@EDIBGAMC@?$AAE?$AAD?$AAG?$AAE?$AA_?$AAB?$AAO?$AAO?$AAT?$AAS?$AAT?$AAR?$AAA?$AAP?$AA_@ 10028dd4     coreclrembedding.obj
 0002:00000e00       ??_C@_1PE@MHGANPNB@?$AAC?$AAo?$AAr?$AAe?$AAC?$AAl?$AAr?$AAE?$AAm?$AAb?$AAe?$AAd?$AAd?$AAi?$AAn@ 10028e00     coreclrembedding.obj
 0002:00000ef8       ??_C@_1OA@PCCLMAKO@?$AAC?$AAo?$AAr?$AAe?$AAC?$AAl?$AAr?$AAE?$AAm?$AAb?$AAe?$AAd?$AAd?$AAi?$AAn@ 10028ef8     coreclrembedding.obj
 0002:00000fd8       ??_C@_1MG@POECBGDF@?$AAC?$AAo?$AAr?$AAe?$AAC?$AAl?$AAr?$AAE?$AAm?$AAb?$AAe?$AAd?$AAd?$AAi?$AAn@ 10028fd8     coreclrembedding.obj
 0002:000010a0       ??_C@_1BI@PGACHFLA@?$AA?$CK?$AA?4?$AAd?$AAe?$AAp?$AAs?$AA?4?$AAj?$AAs?$AAo?$AAn@ 100290a0     coreclrembedding.obj
 0002:000010b8       ??_C@_0GC@KPMHNIMJ@Multiple?5dependency?5manifest?5?$CI?$CK@ 100290b8     coreclrembedding.obj
 0002:00001120       ??_C@_1OG@EALCGPIJ@?$AAC?$AAo?$AAr?$AAe?$AAC?$AAl?$AAr?$AAE?$AAm?$AAb?$AAe?$AAd?$AAd?$AAi?$AAn@ 10029120     coreclrembedding.obj
 0002:00001208       ??_C@_19BHIGINDB@?$AA?4?$AAd?$AAl?$AAl@ 10029208     coreclrembedding.obj
 0002:00001214       ??_C@_19IJOJOJIB@?$AAP?$AAA?$AAT?$AAH@ 10029214     coreclrembedding.obj
 0002:00001220       ??_C@_1FE@OBBOLJNB@?$AAC?$AAo?$AAr?$AAe?$AAC?$AAl?$AAr?$AAE?$AAm?$AAb?$AAe?$AAd?$AAd?$AAi?$AAn@ 10029220     coreclrembedding.obj
 0002:00001274       ??_C@_1O@GHFEELDK@?$AAd?$AAo?$AAt?$AAn?$AAe?$AAt@ 10029274     coreclrembedding.obj
 0002:00001288       ??_C@_1HC@NEKGHOIE@?$AAC?$AAo?$AAr?$AAe?$AAC?$AAl?$AAr?$AAE?$AAm?$AAb?$AAe?$AAd?$AAd?$AAi?$AAn@ 10029288     coreclrembedding.obj
 0002:00001300       ??_C@_1GE@KJMEMFLJ@?$AAC?$AAo?$AAr?$AAe?$AAC?$AAl?$AAr?$AAE?$AAm?$AAb?$AAe?$AAd?$AAd?$AAi?$AAn@ 10029300     coreclrembedding.obj
 0002:00001368       ??_C@_0LL@KPLABOMI@This?5is?5not?5a?5published?0?5standa@ 10029368     coreclrembedding.obj
 0002:00001424       ??_C@_1BG@OFPPJFDC@?$AAd?$AAo?$AAt?$AAn?$AAe?$AAt?$AA?4?$AAd?$AAl?$AAl@ 10029424     coreclrembedding.obj
 0002:0000143c       ??_C@_1BO@NPAPHGKJ@?$AAN?$AAU?$AAG?$AAE?$AAT?$AA_?$AAP?$AAA?$AAC?$AAK?$AAA?$AAG?$AAE?$AAS@ 1002943c     coreclrembedding.obj
 0002:0000145c       ??_C@_1BI@FAOJLPH@?$AAU?$AAS?$AAE?$AAR?$AAP?$AAR?$AAO?$AAF?$AAI?$AAL?$AAE@ 1002945c     coreclrembedding.obj
 0002:00001474       ??_C@_19HOKJLBCB@?$AAH?$AAO?$AAM?$AAE@ 10029474     coreclrembedding.obj
 0002:00001480       ??_C@_1O@JPPCFKCK@?$AA?4?$AAn?$AAu?$AAg?$AAe?$AAt@ 10029480     coreclrembedding.obj
 0002:00001490       ??_C@_1BC@KKGBINGP@?$AAp?$AAa?$AAc?$AAk?$AAa?$AAg?$AAe?$AAs@ 10029490     coreclrembedding.obj
 0002:000014a4       ??_C@_1CA@PAGLNMLJ@?$AAC?$AAO?$AAR?$AAE?$AAC?$AAL?$AAR?$AA_?$AAV?$AAE?$AAR?$AAS?$AAI?$AAO?$AAN@ 100294a4     coreclrembedding.obj
 0002:000014c8       ??_C@_1JM@GCEGBLBG@?$AAC?$AAo?$AAr?$AAe?$AAC?$AAl?$AAr?$AAE?$AAm?$AAb?$AAe?$AAd?$AAd?$AAi?$AAn@ 100294c8     coreclrembedding.obj
 0002:00001568       ??_C@_1BCI@IHMHCIMA@?$AAC?$AAo?$AAr?$AAe?$AAC?$AAl?$AAr?$AAE?$AAm?$AAb?$AAe?$AAd?$AAd?$AAi?$AAn@ 10029568     coreclrembedding.obj
 0002:00001690       ??_C@_1HK@PCAMPKMI@?$AAC?$AAo?$AAr?$AAe?$AAC?$AAl?$AAr?$AAE?$AAm?$AAb?$AAe?$AAd?$AAd?$AAi?$AAn@ 10029690     coreclrembedding.obj
 0002:00001710       ??_C@_1HK@MEHALNMD@?$AAC?$AAo?$AAr?$AAe?$AAC?$AAl?$AAr?$AAE?$AAm?$AAb?$AAe?$AAd?$AAd?$AAi?$AAn@ 10029710     coreclrembedding.obj
 0002:00001790       ??_C@_1JK@CANIEANP@?$AAC?$AAo?$AAr?$AAe?$AAC?$AAl?$AAr?$AAE?$AAm?$AAb?$AAe?$AAd?$AAd?$AAi?$AAn@ 10029790     coreclrembedding.obj
 0002:0000182c       ??_C@_0BM@IBJBBDKM@TRUSTED_PLATFORM_ASSEMBLIES@ 1002982c     coreclrembedding.obj
 0002:00001848       ??_C@_09FNIJODON@APP_PATHS@ 10029848     coreclrembedding.obj
 0002:00001854       ??_C@_0N@KLDIAAKH@APP_NI_PATHS@ 10029854     coreclrembedding.obj
 0002:00001864       ??_C@_0BO@LIJIGDEG@NATIVE_DLL_SEARCH_DIRECTORIES@ 10029864     coreclrembedding.obj
 0002:00001884       ??_C@_0BI@HDFGKOG@PLATFORM_RESOURCE_ROOTS@ 10029884     coreclrembedding.obj
 0002:0000189c       ??_C@_0BG@JKEJOHHM@AppDomainCompatSwitch@ 1002989c     coreclrembedding.obj
 0002:000018b4       ??_C@_0BL@GGNJKJJO@APP_CONTEXT_BASE_DIRECTORY@ 100298b4     coreclrembedding.obj
 0002:000018d0       ??_C@_0BH@HGCMLFON@APP_CONTEXT_DEPS_FILES@ 100298d0     coreclrembedding.obj
 0002:000018e8       ??_C@_0N@EAGENMPN@FX_DEPS_FILE@ 100298e8     coreclrembedding.obj
 0002:000018f8       ??_C@_13PJJBFPED@?$AA?$DL@ 100298f8     coreclrembedding.obj
 0002:000018fc       ??_C@_0CF@NBCMLHCK@UseLatestBehaviorWhenTFMNotSpec@ 100298fc     coreclrembedding.obj
 0002:00001924       ??_C@_08GHEHPHK@JIT_PATH@  10029924     coreclrembedding.obj
 0002:00001930       ??_C@_1KK@DIMPMBAK@?$AAc?$AA?3?$AA?2?$AAu?$AAs?$AAe?$AAr?$AAs?$AA?2?$AAu?$AAs?$AAu?$AAa?$AAr?$AAi@ 10029930     coreclrembedding.obj
 0002:000019e0       ??_C@_1FO@GGFFFIBO@?$AAp?$AAr?$AAo?$AAp?$AAe?$AAr?$AAt?$AAy?$AA_?$AAk?$AAe?$AAy?$AAs?$AA?4?$AAs@ 100299e0     coreclrembedding.obj
 0002:00001a40       ??_C@_1IO@NBPHLIHJ@?$AAC?$AAo?$AAr?$AAe?$AAC?$AAl?$AAr?$AAE?$AAm?$AAb?$AAe?$AAd?$AAd?$AAi?$AAn@ 10029a40     coreclrembedding.obj
 0002:00001ad0       ??_C@_1IC@EAKHHMOP@?$AAC?$AAo?$AAr?$AAe?$AAC?$AAl?$AAr?$AAE?$AAm?$AAb?$AAe?$AAd?$AAd?$AAi?$AAn@ 10029ad0     coreclrembedding.obj
 0002:00001b58       ??_C@_1GA@DGJFFNGN@?$AAC?$AAo?$AAr?$AAe?$AAC?$AAl?$AAr?$AAE?$AAm?$AAb?$AAe?$AAd?$AAd?$AAi?$AAn@ 10029b58     coreclrembedding.obj
 0002:00001bb8       ??_C@_04EIJIPNMI@Edge@     10029bb8     coreclrembedding.obj
 0002:00001bc0       ??_C@_1JG@CFPDLKEG@?$AAC?$AAo?$AAr?$AAe?$AAC?$AAl?$AAr?$AAE?$AAm?$AAb?$AAe?$AAd?$AAd?$AAi?$AAn@ 10029bc0     coreclrembedding.obj
 0002:00001c58       ??_C@_1IA@DLLKEEII@?$AAC?$AAo?$AAr?$AAe?$AAC?$AAl?$AAr?$AAE?$AAm?$AAb?$AAe?$AAd?$AAd?$AAi?$AAn@ 10029c58     coreclrembedding.obj
 0002:00001cd8       ??_C@_1KG@CMPLFFPH@?$AAC?$AAo?$AAr?$AAe?$AAC?$AAl?$AAr?$AAE?$AAm?$AAb?$AAe?$AAd?$AAd?$AAi?$AAn@ 10029cd8     coreclrembedding.obj
 0002:00001d80       ??_C@_1BA@IFAPIGON@?$AAE?$AAd?$AAg?$AAe?$AA?4?$AAj?$AAs@ 10029d80     coreclrembedding.obj
 0002:00001d90       ??_C@_07HHHDOEPO@GetFunc@  10029d90     coreclrembedding.obj
 0002:00001d98       ??_C@_0BB@HDMMGCJG@CoreCLREmbedding@ 10029d98     coreclrembedding.obj
 0002:00001dac       ??_C@_06LJDALJFM@EdgeJs@   10029dac     coreclrembedding.obj
 0002:00001db8       ??_C@_0EM@PBKAKPEI@Call?5to?5coreclr_create_delegate@ 10029db8     coreclrembedding.obj
 0002:00001e08       ??_C@_1JC@PMPIDIPO@?$AAC?$AAo?$AAr?$AAe?$AAC?$AAl?$AAr?$AAE?$AAm?$AAb?$AAe?$AAd?$AAd?$AAi?$AAn@ 10029e08     coreclrembedding.obj
 0002:00001e9c       ??_C@_08FGEDLOAP@CallFunc@ 10029e9c     coreclrembedding.obj
 0002:00001ea8       ??_C@_0N@BKHFFGKG@ContinueTask@ 10029ea8     coreclrembedding.obj
 0002:00001eb8       ??_C@_0L@KJILEBBB@FreeHandle@ 10029eb8     coreclrembedding.obj
 0002:00001ec4       ??_C@_0BA@IPNJFKCI@FreeMarshalData@ 10029ec4     coreclrembedding.obj
 0002:00001ed4       ??_C@_0BK@FBNCMMAF@SetCallV8FunctionDelegate@ 10029ed4     coreclrembedding.obj
 0002:00001ef0       ??_C@_0M@IIABFCJK@CompileFunc@ 10029ef0     coreclrembedding.obj
 0002:00001efc       ??_C@_0L@KIAPHAEH@Initialize@ 10029efc     coreclrembedding.obj
 0002:00001f08       ??_C@_1GI@HIDLJDGI@?$AAC?$AAo?$AAr?$AAe?$AAC?$AAl?$AAr?$AAE?$AAm?$AAb?$AAe?$AAd?$AAd?$AAi?$AAn@ 10029f08     coreclrembedding.obj
 0002:00001f70       ??_C@_1GK@ECCPICFO@?$AAC?$AAo?$AAr?$AAe?$AAC?$AAl?$AAr?$AAE?$AAm?$AAb?$AAe?$AAd?$AAd?$AAi?$AAn@ 10029f70     coreclrembedding.obj
 0002:00001fe0       ??_C@_1HC@EGGFPLFP@?$AAC?$AAo?$AAr?$AAe?$AAC?$AAl?$AAr?$AAE?$AAm?$AAb?$AAe?$AAd?$AAd?$AAi?$AAn@ 10029fe0     coreclrembedding.obj
 0002:00002058       ??_C@_1IC@OIHCCBFP@?$AAC?$AAo?$AAr?$AAe?$AAC?$AAl?$AAr?$AAE?$AAm?$AAb?$AAe?$AAd?$AAd?$AAi?$AAn@ 1002a058     coreclrembedding.obj
 0002:000020e0       ??_C@_1JK@DEHCABCH@?$AAC?$AAo?$AAr?$AAe?$AAC?$AAl?$AAr?$AAE?$AAm?$AAb?$AAe?$AAd?$AAd?$AAi?$AAn@ 1002a0e0     coreclrembedding.obj
 0002:00002180       ??_C@_1JA@LNLFBEGF@?$AAC?$AAo?$AAr?$AAe?$AAC?$AAl?$AAr?$AAE?$AAm?$AAb?$AAe?$AAd?$AAd?$AAi?$AAn@ 1002a180     coreclrembedding.obj
 0002:00002210       ??_C@_1FC@JOPJGKLC@?$AAC?$AAo?$AAr?$AAe?$AAC?$AAl?$AAr?$AAE?$AAm?$AAb?$AAe?$AAd?$AAd?$AAi?$AAn@ 1002a210     coreclrembedding.obj
 0002:00002268       ??_C@_1HE@GAHKPEGP@?$AAC?$AAo?$AAr?$AAe?$AAC?$AAl?$AAr?$AAE?$AAm?$AAb?$AAe?$AAd?$AAd?$AAi?$AAn@ 1002a268     coreclrembedding.obj
 0002:000022e0       ??_C@_1HE@DIFEAMJJ@?$AAC?$AAo?$AAr?$AAe?$AAC?$AAl?$AAr?$AAE?$AAm?$AAb?$AAe?$AAd?$AAd?$AAi?$AAn@ 1002a2e0     coreclrembedding.obj
 0002:00002354       ??_C@_1DM@LMLGPDMA@?$AAC?$AAo?$AAr?$AAe?$AAC?$AAl?$AAr?$AAE?$AAm?$AAb?$AAe?$AAd?$AAd?$AAi?$AAn@ 1002a354     coreclrembedding.obj
 0002:00002390       ??_C@_1DO@IKHMOBGI@?$AAC?$AAo?$AAr?$AAe?$AAC?$AAl?$AAr?$AAE?$AAm?$AAb?$AAe?$AAd?$AAd?$AAi?$AAn@ 1002a390     coreclrembedding.obj
 0002:000023d0       ??_C@_1DK@NLAMJDIB@?$AAC?$AAo?$AAr?$AAe?$AAC?$AAl?$AAr?$AAE?$AAm?$AAb?$AAe?$AAd?$AAd?$AAi?$AAn@ 1002a3d0     coreclrembedding.obj
 0002:00002410       ??_C@_1EE@GIBGFPKF@?$AAC?$AAo?$AAr?$AAe?$AAC?$AAl?$AAr?$AAE?$AAm?$AAb?$AAe?$AAd?$AAd?$AAi?$AAn@ 1002a410     coreclrembedding.obj
 0002:00002458       ??_C@_1FC@LMNPFBNH@?$AAC?$AAo?$AAr?$AAe?$AAC?$AAl?$AAr?$AAE?$AAm?$AAb?$AAe?$AAd?$AAd?$AAi?$AAn@ 1002a458     coreclrembedding.obj
 0002:000024b0       ??_C@_1FC@OEPBKJCB@?$AAC?$AAo?$AAr?$AAe?$AAC?$AAl?$AAr?$AAE?$AAm?$AAb?$AAe?$AAd?$AAd?$AAi?$AAn@ 1002a4b0     coreclrembedding.obj
 0002:00002504       ??_C@_0BD@OLBABOEK@vector?$DMT?$DO?5too?5long@ 1002a504     coreclrembedding.obj
 0002:00002518       ??_C@_0BI@CFPLBAOH@invalid?5string?5position@ 1002a518     coreclrembedding.obj
 0002:00002530       ??_C@_1FK@CEJDDMAH@?$AAc?$AA?3?$AA?2?$AAu?$AAs?$AAe?$AAr?$AAs?$AA?2?$AAu?$AAs?$AAu?$AAa?$AAr?$AAi@ 1002a530     coreclrfunc.obj
 0002:00002590       ??_C@_1FM@LOELJOFK@?$AAs?$AAi?$AAz?$AAe?$AA?5?$AA?$DM?$AA?$DN?$AA?5?$AAi?$AAm?$AAp?$AA?3?$AA?3?$AAk?$AAM@ 1002a590     coreclrfunc.obj
 0002:000025ec       ??_C@_0BB@JCFIOHAE@coreClrFuncProxy@ 1002a5ec     coreclrfunc.obj
 0002:00002600       ??_C@_0CK@JOCBAKLJ@CoreClrFunc?3?3InitializeInstance@ 1002a600     coreclrfunc.obj
 0002:0000262c       ??_C@_0DJ@FECJNGLN@CoreClrFunc?3?3InitializeInstance@ 1002a62c     coreclrfunc.obj
 0002:00002668       ??_C@_0EL@KKIBEIKK@?$CIfunction?5?$CIf?0?5ctx?$CJ?5?$HL?5return?5fun@ 1002a668     coreclrfunc.obj
 0002:000026b4       ??_C@_0CL@GMIKELAO@CoreClrFunc?3?3InitializeInstance@ 1002a6b4     coreclrfunc.obj
 0002:000026e0       ??_C@_0BM@PMFNGNMG@CoreClrFunc?3?3Call?5?9?5Started@ 1002a6e0     coreclrfunc.obj
 0002:00002700       ??_C@_0EI@NNHINKLJ@CoreClrFunc?3?3Call?5?9?5Marshalling@ 1002a700     coreclrfunc.obj
 0002:00002748       ??_C@_0DK@EOCDEGPD@CoreClrFunc?3?3Call?5?9?5Object?5type@ 1002a748     coreclrfunc.obj
 0002:00002784       ??_C@_0DM@BLKPFMHK@CoreClrFunc?3?3Call?5?9?5Calling?5Cor@ 1002a784     coreclrfunc.obj
 0002:000027c0       ??_C@_0FA@PBOGPILF@CoreClrFunc?3?3Call?5?9?5CoreClrEmbe@ 1002a7c0     coreclrfunc.obj
 0002:00002810       ??_C@_0DL@PHNMDJII@CoreClrFunc?3?3Call?5?9?5Freeing?5the@ 1002a810     coreclrfunc.obj
 0002:00002850       ??_C@_0EH@MLJIDCAA@CoreClrFunc?3?3Call?5?9?5Task?5ran?5sy@ 1002a850     coreclrfunc.obj
 0002:00002898       ??_C@_0FC@KGJNEELM@CoreClrFunc?3?3Call?5?9?5Task?5threw?5@ 1002a898     coreclrfunc.obj
 0002:000028f0       ??_C@_0FK@FJFNGCEL@CoreClrFunc?3?3Call?5?9?5Task?5was?5ex@ 1002a8f0     coreclrfunc.obj
 0002:00002950       ??_C@_0KE@JHOINBKF@The?5JavaScript?5function?5was?5cal@ 1002a950     coreclrfunc.obj
 0002:000029f8       ??_C@_0EG@OMFCGCBJ@CoreClrFunc?3?3Call?5?9?5Task?5runnin@ 1002a9f8     coreclrfunc.obj
 0002:00002a40       ??_C@_0BN@KMFCFLME@CoreClrFunc?3?3Call?5?9?5Finished@ 1002aa40     coreclrfunc.obj
 0002:00002a60       ??_C@_0CD@NODFPGFF@CoreClrFunc?3?3Initialize?5?9?5Start@ 1002aa60     coreclrfunc.obj
 0002:00002a84       ??_C@_0N@LHDHBBAP@assemblyFile@ 1002aa84     coreclrfunc.obj
 0002:00002a94       ??_C@_08IPCLAMCO@typeName@ 1002aa94     coreclrfunc.obj
 0002:00002aa0       ??_C@_0L@EEPALDFA@methodName@ 1002aaa0     coreclrfunc.obj
 0002:00002aac       ??_C@_0DC@KPOCHOBM@CoreClrFunc?3?3Initialize?5?9?5Loadi@ 1002aaac     coreclrfunc.obj
 0002:00002ae0       ??_C@_0DH@PBGFAFGM@CoreClrFunc?3?3Initialize?5?9?5Funct@ 1002aae0     coreclrfunc.obj
 0002:00002b18       ??_C@_0DM@KAFJCDFE@CoreClrFunc?3?3Initialize?5?9?5Callb@ 1002ab18     coreclrfunc.obj
 0002:00002b58       ??_C@_0EM@FOBFJGOL@CoreClrFunc?3?3Initialize?5?9?5Error@ 1002ab58     coreclrfunc.obj
 0002:00002ba4       ??_C@_0DK@BJALFLJM@CoreClrFunc?3?3Initialize?5?9?5Compi@ 1002aba4     coreclrfunc.obj
 0002:00002be0       ??_C@_0DJ@JKFFAPPP@CoreClrFunc?3?3Initialize?5?9?5Funct@ 1002abe0     coreclrfunc.obj
 0002:00002c1c       ??_C@_0CD@GNGBFAHH@CoreClrFunc?3?3Initialize?5?9?5Finis@ 1002ac1c     coreclrfunc.obj
 0002:00002c40       ??_C@_05IANLDAEP@stack@    1002ac40     coreclrfunc.obj
 0002:00002c48       ??_C@_04FABLJDN@Name@      1002ac48     coreclrfunc.obj
 0002:00002c50       ??_C@_07BEIHKDLJ@Message@  1002ac50     coreclrfunc.obj
 0002:00002c58       ??_C@_07ONPBMBOP@message@  1002ac58     coreclrfunc.obj
 0002:00002c60       ??_C@_04MEMAJGDJ@name@     1002ac60     coreclrfunc.obj
 0002:00002c68       ??_C@_0DC@FBOMFLNO@Unsupported?5object?5type?5receive@ 1002ac68     coreclrfunc.obj
 0002:00002c9c       ??_C@_0BK@NNABPODB@coreClrFuncProxyNearDeath@ 1002ac9c     coreclrfunc.obj
 0002:00002cb8       ??_C@_0CF@NNKEAHHP@CoreClrNodejsFunc?3?3CoreClrNodej@ 1002acb8     coreclrnodejsfunc.obj
 0002:00002ce0       ??_C@_0BI@PAGMKOFJ@CoreClrNodejsFunc?3?3Call@ 1002ace0     coreclrnodejsfunc.obj
 0002:00002cf8       ??_C@_0DD@OGDMNEBK@CoreClrFuncInvokeContext?3?3CoreC@ 1002acf8     coreclrfuncinvokecontext.obj
 0002:00002d2c       ??_C@_0DE@FDBAJEIA@CoreClrFuncInvokeContext?3?3?$HOCore@ 1002ad2c     coreclrfuncinvokecontext.obj
 0002:00002d60       ??_C@_0DD@FJJIBMLM@CoreClrFuncInvokeContext?3?3Initi@ 1002ad60     coreclrfuncinvokecontext.obj
 0002:00002d94       ??_C@_0CH@OLDHIAPG@CoreClrFuncInvokeContext?3?3TaskC@ 1002ad94     coreclrfuncinvokecontext.obj
 0002:00002dbc       ??_C@_0DC@OFOHDEFO@CoreClrFuncInvokeContext?3?3TaskC@ 1002adbc     coreclrfuncinvokecontext.obj
 0002:00002df0       ??_C@_0CJ@FIFAKIC@CoreClrFuncInvokeContext?3?3Invok@ 1002adf0     coreclrfuncinvokecontext.obj
 0002:00002e20       ??_C@_0EA@HIFALOAL@CoreClrFuncInvokeContext?3?3Invok@ 1002ae20     coreclrfuncinvokecontext.obj
 0002:00002e60       ??_C@_0DP@JDDNAOCF@CoreClrFuncInvokeContext?3?3Invok@ 1002ae60     coreclrfuncinvokecontext.obj
 0002:00002ea0       ??_C@_0EB@JBAOPKAM@CoreClrFuncInvokeContext?3?3Invok@ 1002aea0     coreclrfuncinvokecontext.obj
 0002:00002ee4       ??_C@_0DE@FCDGCCCJ@CoreClrFuncInvokeContext?3?3Invok@ 1002aee4     coreclrfuncinvokecontext.obj
 0002:00002f18       ??_C@_0BG@HEOIFONN@coreClrV8FuncCallback@ 1002af18     coreclrnodejsfuncinvokecontext.obj
 0002:00002f30       ??_C@_0DP@COGDDMEG@CoreClrNodejsFuncInvokeContext?3@ 1002af30     coreclrnodejsfuncinvokecontext.obj
 0002:00002f70       ??_C@_0CJ@ENAFMLAI@CoreClrNodejsFuncInvokeContext?3@ 1002af70     coreclrnodejsfuncinvokecontext.obj
 0002:00002f9c       ??_C@_0CP@JCLJGOBO@CoreClrNodejsFuncInvokeContext?3@ 1002af9c     coreclrnodejsfuncinvokecontext.obj
 0002:00002fd0       ??_C@_0EL@LNNJMAII@?$CIfunction?5?$CIcb?0?5ctx?$CJ?5?$HL?5return?5fu@ 1002afd0     coreclrnodejsfuncinvokecontext.obj
 0002:00003020       ??_C@_0EN@MPLBIHPL@CoreClrNodejsFuncInvokeContext?3@ 1002b020     coreclrnodejsfuncinvokecontext.obj
 0002:00003070       ??_C@_0EM@MPOBHPMH@CoreClrNodejsFuncInvokeContext?3@ 1002b070     coreclrnodejsfuncinvokecontext.obj
 0002:000030c0       ??_C@_0EN@BIIBMAJ@CoreClrNodejsFuncInvokeContext?3@ 1002b0c0     coreclrnodejsfuncinvokecontext.obj
 0002:00003110       ??_C@_0EK@GDILFCAM@CoreClrNodejsFuncInvokeContext?3@ 1002b110     coreclrnodejsfuncinvokecontext.obj
 0002:0000315c       ??_C@_1BI@DBHPJHNN@?$AAc?$AAo?$AAr?$AAe?$AAc?$AAl?$AAr?$AA?4?$AAd?$AAl?$AAl@ 1002b15c     pal_utils.obj
 0002:00003178       ??_C@_1EK@GKBCANMH@?$AAC?$AAh?$AAe?$AAc?$AAk?$AAi?$AAn?$AAg?$AA?5?$AAi?$AAf?$AA?5?$AAC?$AAo?$AAr@ 1002b178     pal_utils.obj
 0002:000031c4       ??_C@_15DJBMFJKF@?$AA?1?$AA?2@ 1002b1c4     pal_utils.obj
 0002:000031cc       ??_C@_0BB@MOGOBHAF@list?$DMT?$DO?5too?5long@ 1002b1cc     pal_utils.obj
 0002:000031e4       ?s_known_asset_types@deps_entry_t@@2V?$array@PB_W$02@std@@B 1002b1e4     deps_format.obj
 0002:000031f0       ??_C@_15JNBOKNOG@?$AA?$AN?$AA?6@ 1002b1f0     trace.obj
 0002:000031f8       ??_C@_1BO@BJOHMCMD@?$AAC?$AAO?$AAR?$AAE?$AAH?$AAO?$AAS?$AAT?$AA_?$AAT?$AAR?$AAA?$AAC?$AAE@ 1002b1f8     trace.obj
 0002:00003218       ??_C@_1CA@HFJPHJMK@?$AAT?$AAr?$AAa?$AAc?$AAi?$AAn?$AAg?$AA?5?$AAe?$AAn?$AAa?$AAb?$AAl?$AAe?$AAd@ 1002b218     trace.obj
 0002:00003238       ??_C@_0BH@DPNNDOEK@invalid?5stoul?5argument@ 1002b238     fx_ver.obj
 0002:00003250       ??_C@_0BM@MOLGGFGJ@stoul?5argument?5out?5of?5range@ 1002b250     fx_ver.obj
 0002:0000326c       ??_C@_13JOFGPIOO@?$AA?4@   1002b26c     fx_ver.obj
 0002:00003270       ??_C@_13KJIIAINM@?$AA?$CL@ 1002b270     fx_ver.obj
 0002:00003274       ??_C@_15DKIAAHOO@?$AA?9?$AA?$CK@ 1002b274     fx_ver.obj
 0002:0000327c       ??_C@_15LMBEHFEA@?$AA?4?$AA?$CK@ 1002b27c     fx_ver.obj
 0002:00003284       ??_C@_1BG@PGBNDIAE@?$AA0?$AA1?$AA2?$AA3?$AA4?$AA5?$AA6?$AA7?$AA8?$AA9@ 1002b284     fx_ver.obj
 0002:000032a0       ??_C@_1JO@HDBMEEJ@?$AAc?$AA?3?$AA?2?$AAu?$AAs?$AAe?$AAr?$AAs?$AA?2?$AAu?$AAs?$AAu?$AAa?$AAr?$AAi@ 1002b2a0     fx_ver.obj
 0002:00003340       ??_C@_1EE@HLGJIJEM@?$AA?$CB?$AAv?$AAa?$AAl?$AAi?$AAd?$AA?5?$AA?$HM?$AA?$HM?$AA?5?$AAf?$AAx?$AA_?$AAv?$AAe@ 1002b340     fx_ver.obj
 0002:00003384       ??_8?$basic_stringstream@_WU?$char_traits@_W@std@@V?$allocator@_W@2@@std@@7B?$basic_istream@_WU?$char_traits@_W@std@@@1@@ 1002b384     fx_ver.obj
 0002:0000338c       ??_8?$basic_stringstream@_WU?$char_traits@_W@std@@V?$allocator@_W@2@@std@@7B?$basic_ostream@_WU?$char_traits@_W@std@@@1@@ 1002b38c     fx_ver.obj
 0002:00003398       ??_7?$basic_stringbuf@_WU?$char_traits@_W@std@@V?$allocator@_W@2@@std@@6B@ 1002b398     fx_ver.obj
 0002:000033d8       ??_7?$basic_stringstream@_WU?$char_traits@_W@std@@V?$allocator@_W@2@@std@@6B@ 1002b3d8     fx_ver.obj
 0002:000033e0       ??_C@_1GE@KBJOEBNB@?$AAC?$AAL?$AAI?$AA?5?$AAd?$AAi?$AAr?$AAe?$AAc?$AAt?$AAo?$AAr?$AAy?$AA?5?$AA?$FL@ 1002b3e0     fx_muxer.obj
 0002:00003444       ??_C@_1CK@PGEGEECO@?$AAF?$AAo?$AAu?$AAn?$AAd?$AA?5?$AAC?$AAL?$AAI?$AA?5?$AAS?$AAD?$AAK?$AA?5?$AAi@ 1002b444     fx_muxer.obj
 0002:00003474       ??_7json_exception@json@web@@6B@ 1002b474     fx_muxer.obj
 0002:00003480       ??_7?$basic_filebuf@DU?$char_traits@D@std@@@std@@6B@ 1002b480     fx_muxer.obj
 0002:000034c0       ??_7bad_cast@std@@6B@      1002b4c0     fx_muxer.obj
 0002:000034c8       ??_8?$basic_ifstream@DU?$char_traits@D@std@@@std@@7B@ 1002b4c8     fx_muxer.obj
 0002:000034d4       ??_7?$basic_ifstream@DU?$char_traits@D@std@@@std@@6B@ 1002b4d4     fx_muxer.obj
 0002:000034d8       ??_C@_0BC@EOODALEL@Unknown?5exception@ 1002b4d8     fx_muxer.obj
 0002:000034ec       ??_C@_08EPJLHIJG@bad?5cast@ 1002b4ec     fx_muxer.obj
 0002:000034f8       ??_C@_1BM@IDCDCAHB@?$AAK?$AAe?$AAy?$AA?5?$AAn?$AAo?$AAt?$AA?5?$AAf?$AAo?$AAu?$AAn?$AAd@ 1002b4f8     fx_muxer.obj
 0002:00003518       ??_C@_1EK@HLLJJOF@?$AAU?$AAT?$AAF?$AA?9?$AA8?$AA?5?$AAB?$AAO?$AAM?$AA?5?$AAs?$AAk?$AAi?$AAp?$AAp@ 1002b518     fx_muxer.obj
 0002:00003564       ??_C@_1BE@JGMPJPM@?$AAl?$AAi?$AAb?$AAr?$AAa?$AAr?$AAi?$AAe?$AAs@ 1002b564     fx_muxer.obj
 0002:00003578       ??_C@_1FM@BKOBLKLM@?$AAA?$AA?5?$AAJ?$AAS?$AAO?$AAN?$AA?5?$AAp?$AAa?$AAr?$AAs?$AAi?$AAn?$AAg?$AA?5@ 1002b578     fx_muxer.obj
 0002:000035d4       ??_C@_19LMGJOGM@?$AAp?$AAk?$AAg?$AAs@ 1002b5d4     fx_muxer.obj
 0002:000035e0       ??_C@_1KC@IMOPCNLC@?$AAc?$AA?3?$AA?2?$AAu?$AAs?$AAe?$AAr?$AAs?$AA?2?$AAu?$AAs?$AAu?$AAa?$AAr?$AAi@ 1002b5e0     fx_muxer.obj
 0002:00003688       ??_C@_1EA@DKDKNEMK@?$AAm?$AAo?$AAd?$AAe?$AA?5?$AA?$CB?$AA?$DN?$AA?5?$AAh?$AAo?$AAs?$AAt?$AA_?$AAm?$AAo@ 1002b688     fx_muxer.obj
 0002:000036c8       ??_C@_1DG@BHMABGLL@?$AAm?$AAo?$AAd?$AAe?$AA?5?$AA?$DN?$AA?$DN?$AA?5?$AAh?$AAo?$AAs?$AAt?$AA_?$AAm?$AAo@ 1002b6c8     fx_muxer.obj
 0002:00003700       ??_C@_1HO@MIANHIJE@?$AA?9?$AA?9?$AA?9?$AA?5?$AAR?$AAe?$AAs?$AAo?$AAl?$AAv?$AAi?$AAn?$AAg?$AA?5?$AAF@ 1002b700     fx_muxer.obj
 0002:00003780       ??_C@_1HC@NPCCCLOD@?$AAT?$AAh?$AAe?$AA?5?$AAs?$AAp?$AAe?$AAc?$AAi?$AAf?$AAi?$AAe?$AAd?$AA?5?$AAf@ 1002b780     fx_muxer.obj
 0002:000037f4       ??_C@_1O@KKDJANEO@?$AAs?$AAh?$AAa?$AAr?$AAe?$AAd@ 1002b7f4     fx_muxer.obj
 0002:00003808       ??_C@_1KG@KFIKLOEM@?$AAD?$AAi?$AAd?$AA?5?$AAn?$AAo?$AAt?$AA?5?$AAr?$AAo?$AAl?$AAl?$AA?5?$AAf?$AAo@ 1002b808     fx_muxer.obj
 0002:000038b0       ??_C@_1FM@FHNKMGNB@?$AAA?$AAt?$AAt?$AAe?$AAm?$AAp?$AAt?$AAi?$AAn?$AAg?$AA?5?$AAF?$AAX?$AA?5?$AAr@ 1002b8b0     fx_muxer.obj
 0002:0000390c       ??_C@_1DG@EGLPHMD@?$AAI?$AAn?$AAs?$AAp?$AAe?$AAc?$AAt?$AAi?$AAn?$AAg?$AA?5?$AAv?$AAe?$AAr?$AAs@ 1002b90c     fx_muxer.obj
 0002:00003944       ??_C@_1CM@KBDCCCDI@?$AAC?$AAh?$AAo?$AAs?$AAe?$AA?5?$AAF?$AAX?$AA?5?$AAv?$AAe?$AAr?$AAs?$AAi?$AAo@ 1002b944     fx_muxer.obj
 0002:00003970       ??_C@_1GA@ILDCEBNG@?$AA?9?$AA?9?$AA?9?$AA?5?$AAR?$AAe?$AAs?$AAo?$AAl?$AAv?$AAi?$AAn?$AAg?$AA?5?$AAC@ 1002b970     fx_muxer.obj
 0002:000039d0       ??_C@_1CI@GHCJFCHE@?$AA?$FL?$AA?$CF?$AAs?$AA?$FN?$AA?5?$AAd?$AAo?$AAe?$AAs?$AA?5?$AAn?$AAo?$AAt?$AA?5?$AAe@ 1002b9d0     fx_muxer.obj
 0002:000039f8       ??_C@_1DC@HMFEFGCK@?$AA?$FL?$AA?$CF?$AAs?$AA?$FN?$AA?5?$AAc?$AAo?$AAu?$AAl?$AAd?$AA?5?$AAn?$AAo?$AAt?$AA?5@ 1002b9f8     fx_muxer.obj
 0002:00003a2c       ??_C@_17MHEAILKL@?$AAs?$AAd?$AAk@ 1002ba2c     fx_muxer.obj
 0002:00003a38       ??_C@_1GE@HDEPOMBB@?$AAC?$AAL?$AAI?$AA?5?$AA?8?$AA?1?$AAs?$AAd?$AAk?$AA?1?$AAv?$AAe?$AAr?$AAs?$AAi@ 1002ba38     fx_muxer.obj
 0002:00003a9c       ??_C@_1BA@KPDNCIMM@?$AAv?$AAe?$AAr?$AAs?$AAi?$AAo?$AAn@ 1002ba9c     fx_muxer.obj
 0002:00003ab0       ??_C@_1GC@HHFCMBHP@?$AAC?$AAL?$AAI?$AA?5?$AA?8?$AAs?$AAd?$AAk?$AA?1?$AAv?$AAe?$AAr?$AAs?$AAi?$AAo@ 1002bab0     fx_muxer.obj
 0002:00003b18       ??_C@_1FK@JPICIND@?$AAC?$AAL?$AAI?$AA?5?$AAv?$AAe?$AAr?$AAs?$AAi?$AAo?$AAn?$AA?5?$AAi?$AAs?$AA?5@ 1002bb18     fx_muxer.obj
 0002:00003b78       ??_C@_1FI@BMDGDHCE@?$AA?9?$AA?9?$AA?9?$AA?5?$AAR?$AAe?$AAs?$AAo?$AAl?$AAv?$AAi?$AAn?$AAg?$AA?5?$AAS@ 1002bb78     fx_muxer.obj
 0002:00003bd0       ??_C@_1DI@GIKKHFLI@?$AAC?$AAo?$AAn?$AAs?$AAi?$AAd?$AAe?$AAr?$AAi?$AAn?$AAg?$AA?5?$AAv?$AAe?$AAr@ 1002bbd0     fx_muxer.obj
 0002:00003c08       ??_C@_1HA@FMIEDFEG@?$AAN?$AAo?$AA?5?$AAp?$AAr?$AAo?$AAd?$AAu?$AAc?$AAt?$AAi?$AAo?$AAn?$AA?5?$AAv@ 1002bc08     fx_muxer.obj
 0002:00003c78       ??_C@_1FC@MGKKDJCI@?$AAC?$AAh?$AAe?$AAc?$AAk?$AAi?$AAn?$AAg?$AA?5?$AAi?$AAf?$AA?5?$AAr?$AAe?$AAs@ 1002bc78     fx_muxer.obj
 0002:00003ccc       ??_C@_1DC@PMGAJKIO@?$AAR?$AAe?$AAs?$AAo?$AAl?$AAv?$AAe?$AAd?$AA?5?$AAS?$AAD?$AAK?$AA?5?$AAd?$AAi@ 1002bccc     fx_muxer.obj
 0002:00003d00       ??_C@_1EM@HBECIEAC@?$AA?9?$AA?9?$AA?9?$AA?5?$AAR?$AAe?$AAs?$AAo?$AAl?$AAv?$AAi?$AAn?$AAg?$AA?5?$AAd@ 1002bd00     fx_muxer.obj
 0002:00003d4c       ??_C@_1BI@KFNLBEAN@?$AAg?$AAl?$AAo?$AAb?$AAa?$AAl?$AA?4?$AAj?$AAs?$AAo?$AAn@ 1002bd4c     fx_muxer.obj
 0002:00003d68       ??_C@_1EE@FFDCNFDF@?$AAP?$AAr?$AAo?$AAb?$AAi?$AAn?$AAg?$AA?5?$AAp?$AAa?$AAt?$AAh?$AA?5?$AA?$FL?$AA?$CF@ 1002bd68     fx_muxer.obj
 0002:00003dac       ??_C@_1CO@DEIIOIMN@?$AAF?$AAo?$AAu?$AAn?$AAd?$AA?5?$AAg?$AAl?$AAo?$AAb?$AAa?$AAl?$AA?4?$AAj?$AAs@ 1002bdac     fx_muxer.obj
 0002:00003de0       ??_C@_1EO@HPIFGGLI@?$AAT?$AAe?$AAr?$AAm?$AAi?$AAn?$AAa?$AAt?$AAi?$AAn?$AAg?$AA?5?$AAg?$AAl?$AAo@ 1002bde0     fx_muxer.obj
 0002:00003e30       ??_C@_1EK@PBFLLEAG@?$AAF?$AAa?$AAi?$AAl?$AAe?$AAd?$AA?5?$AAt?$AAo?$AA?5?$AAo?$AAb?$AAt?$AAa?$AAi@ 1002be30     fx_muxer.obj
 0002:00003e80       ??_C@_1FG@KEEKBNDN@?$AAC?$AAL?$AAI?$AA?5?$AAd?$AAi?$AAr?$AAe?$AAc?$AAt?$AAo?$AAr?$AAy?$AA?5?$AA?$FL@ 1002be80     fx_muxer.obj
 0002:00003ed8       ??_C@_05LAPONLG@false@     1002bed8     json.obj
 0002:00003ee0       ??_C@_04LOAJBDKD@true@     1002bee0     json.obj
 0002:00003ee8       ??_C@_04CLCAKCEI@json@     1002bee8     json.obj
 0002:00003ef0       ??_C@_0DK@MKOMAHJK@Left?9over?5characters?5in?5stream?5@ 1002bef0     json.obj
 0002:00003f2c       ??_C@_0BI@EEFEMBBG@Malformed?5array?5literal@ 1002bf2c     json.obj
 0002:00003f44       ??_C@_0BC@OFPEDGMK@Malformed?5comment@ 1002bf44     json.obj
 0002:00003f58       ??_C@_0BC@PCELJIM@Malformed?5literal@ 1002bf58     json.obj
 0002:00003f6c       ??_C@_0BJ@IBMMOHGA@Malformed?5object?5literal@ 1002bf6c     json.obj
 0002:00003f88       ??_C@_0BK@DBJOEEBL@Malformed?5numeric?5literal@ 1002bf88     json.obj
 0002:00003fa4       ??_C@_0BJ@PCCIOJML@Malformed?5string?5literal@ 1002bfa4     json.obj
 0002:00003fc0       ??_C@_0BA@EAGGNBJD@Malformed?5token@ 1002bfc0     json.obj
 0002:00003fd0       ??_C@_0BC@HHAHEAE@Mismatched?5braces@ 1002bfd0     json.obj
 0002:00003fe4       ??_C@_0BB@CMIABPIE@Nesting?5too?5deep@ 1002bfe4     json.obj
 0002:00003ff8       ??_C@_0BB@FKAIECKK@Unexpected?5token@ 1002bff8     json.obj
 0002:0000400c       ??_C@_0BD@HDNBPLHL@Unknown?5json?5error@ 1002c00c     json.obj
 0002:00004020       ??_C@_1BM@CFCIKPNI@?$AAn?$AAo?$AAt?$AA?5?$AAa?$AAn?$AA?5?$AAo?$AAb?$AAj?$AAe?$AAc?$AAt@ 1002c020     json.obj
 0002:0000403c       ??_C@_1BK@EBBAPMJJ@?$AAn?$AAo?$AAt?$AA?5?$AAa?$AAn?$AA?5?$AAa?$AAr?$AAr?$AAa?$AAy@ 1002c03c     json.obj
 0002:00004058       ??_C@_1BK@CMFOKGGD@?$AAn?$AAo?$AAt?$AA?5?$AAa?$AA?5?$AAn?$AAu?$AAm?$AAb?$AAe?$AAr@ 1002c058     json.obj
 0002:00004074       ??_C@_1BM@MOILHJPB@?$AAn?$AAo?$AAt?$AA?5?$AAa?$AA?5?$AAb?$AAo?$AAo?$AAl?$AAe?$AAa?$AAn@ 1002c074     json.obj
 0002:00004090       ??_C@_1BK@OAHMDHGG@?$AAn?$AAo?$AAt?$AA?5?$AAa?$AA?5?$AAs?$AAt?$AAr?$AAi?$AAn?$AAg@ 1002c090     json.obj
 0002:000040ac       ??_C@_04MLLLIHIP@null@     1002c0ac     json.obj
 0002:000040b4       ??_C@_19DJCNLLCE@?$AAn?$AAu?$AAl?$AAl@ 1002c0b4     json.obj
 0002:000040c0       ??_C@_19FKLFLPMF@?$AAt?$AAr?$AAu?$AAe@ 1002c0c0     json.obj
 0002:000040cc       ??_C@_1M@HLGKFCJM@?$AAf?$AAa?$AAl?$AAs?$AAe@ 1002c0cc     json.obj
 0002:000040dc       ??_7_Object@details@json@web@@6B@ 1002c0dc     json.obj
 0002:0000414c       ??_7_Value@details@json@web@@6B@ 1002c14c     json.obj
 0002:000041bc       ??_7_Boolean@details@json@web@@6B@ 1002c1bc     json.obj
 0002:0000422c       ??_7json_error_category_impl@details@json@web@@6B@ 1002c22c     json.obj
 0002:00004248       ??_7_String@details@json@web@@6B@ 1002c248     json.obj
 0002:000042b8       ??_7_Array@details@json@web@@6B@ 1002c2b8     json.obj
 0002:00004328       ??_7_Null@details@json@web@@6B@ 1002c328     json.obj
 0002:00004398       ??_7_Number@details@json@web@@6B@ 1002c398     json.obj
 0002:00004404       ??_C@_07DCLBNMLN@generic@  1002c404     json_parsing.obj
 0002:0000440c       ??_C@_06FHFOAHML@system@   1002c40c     json_parsing.obj
 0002:00004414       ??_C@_0O@BFJCFAAK@unknown?5error@ 1002c414     json_parsing.obj
 0002:00004424       ??_C@_05OINFJHGD@?$CFI64u@ 1002c424     json_parsing.obj
 0002:00004430       ??_C@_1HE@JEHILNMK@?$AAL?$AAe?$AAf?$AAt?$AA?9?$AAo?$AAv?$AAe?$AAr?$AA?5?$AAc?$AAh?$AAa?$AAr?$AAa@ 1002c430     json_parsing.obj
 0002:000044a4       ??_C@_1CA@ECFFOAKN@?$AA?5?$AAS?$AAy?$AAn?$AAt?$AAa?$AAx?$AA?5?$AAe?$AAr?$AAr?$AAo?$AAr?$AA?3?$AA?5@ 1002c4a4     json_parsing.obj
 0002:000044c4       ??_C@_1BE@FNEDNDFO@?$AA?0?$AA?5?$AAC?$AAo?$AAl?$AAu?$AAm?$AAn?$AA?5@ 1002c4c4     json_parsing.obj
 0002:000044d8       ??_C@_1BA@BIFNFLLG@?$AA?$CK?$AA?5?$AAL?$AAi?$AAn?$AAe?$AA?5@ 1002c4d8     json_parsing.obj
 0002:000044ec       ??_7_Generic_error_category@std@@6B@ 1002c4ec     json_parsing.obj
 0002:00004508       ??_7?$basic_ostringstream@_WU?$char_traits@_W@std@@V?$allocator@_W@2@@std@@6B@ 1002c508     json_parsing.obj
 0002:00004510       ??_7?$JSON_StreamParser@D@details@json@web@@6B@ 1002c510     json_parsing.obj
 0002:00004524       ??_7_System_error_category@std@@6B@ 1002c524     json_parsing.obj
 0002:0000453c       ??_8?$basic_ostringstream@_WU?$char_traits@_W@std@@V?$allocator@_W@2@@std@@7B@ 1002c53c     json_parsing.obj
 0002:00004544       ??_C@_04GPHHEOMN@?$CF?4?$CKg@ 1002c544     json_serialization.obj
 0002:0000454c       ??_C@_19FJDLMGJD@?$AA?$CF?$AA?4?$AA?$CK?$AAg@ 1002c54c     json_serialization.obj
 0002:00004558       ?intToHex@?L@???$append_escape_string@_W@details@json@web@@YAXAAV?$basic_string@_WU?$char_traits@_W@std@@V?$allocator@_W@2@@std@@ABV45@@Z@4V?$array@_W$0BA@@5@B 1002c558     json_serialization.obj
 0002:00004578       ?intToHex@?L@???$append_escape_string@D@details@json@web@@YAXAAV?$basic_string@DU?$char_traits@D@std@@V?$allocator@D@2@@std@@ABV45@@Z@4V?$array@D$0BA@@5@B 1002c578     json_serialization.obj
 0002:00004588       ??_C@_01GFHCPBMG@C@        1002c588     asyncrt_utils.obj
 0002:0000458c       ??_C@_0BN@OKOBAODO@Unable?5to?5create?5?8C?8?5locale?4@ 1002c58c     asyncrt_utils.obj
 0002:000045ac       ??_C@_0DF@BAMDPNHD@UTF?98?5string?5character?5can?5neve@ 1002c5ac     asyncrt_utils.obj
 0002:000045e4       ??_C@_0CM@MNDJELFD@UTF?98?5string?5has?5invalid?5Unicod@ 1002c5e4     asyncrt_utils.obj
 0002:00004610       ??_C@_0CL@MOEKFC@UTF?98?5string?5is?5missing?5bytes?5i@ 1002c610     asyncrt_utils.obj
 0002:0000463c       ??_C@_0DA@OAONAKMF@UTF?98?5continuation?5byte?5is?5miss@ 1002c63c     asyncrt_utils.obj
 0002:0000466c       ??_C@_0CH@OOEEBHBJ@UTF?916?5string?5is?5missing?5low?5su@ 1002c66c     asyncrt_utils.obj
 0002:00004694       ??_C@_0CI@HBKFOCNJ@UTF?916?5string?5has?5invalid?5low?5s@ 1002c694     asyncrt_utils.obj
 0002:000046c0       ??_7range_error@std@@6B@   1002c6c0     asyncrt_utils.obj
 0002:000046cc       ??_7runtime_error@std@@6B@ 1002c6cc     asyncrt_utils.obj
 0002:000046d4       ??_C@_1BA@GMLJMFCJ@?$AAr?$AAu?$AAn?$AAt?$AAi?$AAm?$AAe@ 1002c6d4     deps_format.obj
 0002:000046e4       ??_C@_1BE@OLHCEJMH@?$AAr?$AAe?$AAs?$AAo?$AAu?$AAr?$AAc?$AAe?$AAs@ 1002c6e4     deps_format.obj
 0002:000046f8       ??_C@_1O@DLHAALGJ@?$AAn?$AAa?$AAt?$AAi?$AAv?$AAe@ 1002c6f8     deps_format.obj
 0002:00004708       ??_C@_1CO@MNDBJEAF@?$AAR?$AAe?$AAc?$AAo?$AAn?$AAc?$AAi?$AAl?$AAi?$AAn?$AAg?$AA?5?$AAl?$AAi?$AAb@ 1002c708     deps_format.obj
 0002:00004738       ??_C@_1BA@KOHDLAGF@?$AAp?$AAa?$AAc?$AAk?$AAa?$AAg?$AAe@ 1002c738     deps_format.obj
 0002:00004748       ??_C@_19FHBCDCCA@?$AAt?$AAy?$AAp?$AAe@ 1002c748     deps_format.obj
 0002:00004754       ??_C@_1DI@MJKPMIKP@?$AAL?$AAi?$AAb?$AAr?$AAa?$AAr?$AAy?$AA?5?$AA?$CF?$AAs?$AA?5?$AAi?$AAs?$AA?5?$AAn@ 1002c754     deps_format.obj
 0002:0000478c       ??_C@_1DE@JGANAJCE@?$AAL?$AAi?$AAb?$AAr?$AAa?$AAr?$AAy?$AA?5?$AA?$CF?$AAs?$AA?5?$AAd?$AAo?$AAe?$AAs@ 1002c78c     deps_format.obj
 0002:000047c0       ??_C@_1O@PABINMCF@?$AAs?$AAh?$AAa?$AA5?$AA1?$AA2@ 1002c7c0     deps_format.obj
 0002:000047d0       ??_C@_1BI@BDFDJGJD@?$AAs?$AAe?$AAr?$AAv?$AAi?$AAc?$AAe?$AAa?$AAb?$AAl?$AAe@ 1002c7d0     deps_format.obj
 0002:000047e8       ??_C@_17CPBIGFB@?$AA?4?$AAn?$AAi@ 1002c7e8     deps_format.obj
 0002:000047f0       ??_C@_13CGOKJPIL@?$AA?1@   1002c7f0     deps_format.obj
 0002:000047f8       ??_C@_1FC@FIINNLON@?$AAA?$AAd?$AAd?$AAe?$AAd?$AA?5?$AA?$CF?$AAs?$AA?5?$AA?$CF?$AAs?$AA?5?$AAd?$AAe?$AAp@ 1002c7f8     deps_format.obj
 0002:00004850       ??_C@_1PK@CJGKIBJL@?$AAT?$AAh?$AAe?$AA?5?$AAt?$AAa?$AAr?$AAg?$AAe?$AAt?$AAe?$AAd?$AA?5?$AAf?$AAr@ 1002c850     deps_format.obj
 0002:00004950       ??_C@_1HM@LEMNPAGH@?$AAC?$AAh?$AAo?$AAs?$AAe?$AA?5?$AA?$CF?$AAs?$AA?0?$AA?5?$AAs?$AAo?$AA?5?$AAr?$AAe@ 1002c950     deps_format.obj
 0002:000049cc       ??_C@_1BA@IDLJMLHD@?$AAt?$AAa?$AAr?$AAg?$AAe?$AAt?$AAs@ 1002c9cc     deps_format.obj
 0002:000049dc       ??_C@_1BO@FHLBODBJ@?$AAr?$AAu?$AAn?$AAt?$AAi?$AAm?$AAe?$AAT?$AAa?$AAr?$AAg?$AAe?$AAt?$AAs@ 1002c9dc     deps_format.obj
 0002:000049fc       ??_C@_1BE@EEABBMFO@?$AAa?$AAs?$AAs?$AAe?$AAt?$AAT?$AAy?$AAp?$AAe@ 1002c9fc     deps_format.obj
 0002:00004a10       ??_C@_17OPBHIILN@?$AAr?$AAi?$AAd@ 1002ca10     deps_format.obj
 0002:00004a18       ??_C@_1DG@CMDPDFBC@?$AAA?$AAd?$AAd?$AAi?$AAn?$AAg?$AA?5?$AA?$CF?$AAs?$AA?5?$AAa?$AAs?$AAs?$AAe?$AAt@ 1002ca18     deps_format.obj
 0002:00004a50       ??_C@_1FG@LPPHDACH@?$AAT?$AAh?$AAe?$AAr?$AAe?$AA?5?$AAw?$AAe?$AAr?$AAe?$AA?5?$AAn?$AAo?$AA?5?$AAr@ 1002ca50     deps_format.obj
 0002:00004aa8       ??_C@_1BC@NGMCMKBP@?$AAr?$AAu?$AAn?$AAt?$AAi?$AAm?$AAe?$AAs@ 1002caa8     deps_format.obj
 0002:00004abc       ??_C@_1DK@EHJFEELJ@?$AAT?$AAh?$AAe?$AA?5?$AAr?$AAi?$AAd?$AA?5?$AAf?$AAa?$AAl?$AAl?$AAb?$AAa?$AAc@ 1002cabc     deps_format.obj
 0002:00004af8       ??_C@_1BA@OGPHJKPF@?$AA?$CF?$AAs?$AA?5?$AA?$DN?$AA?$DO?$AA?5?$AA?$FL@ 1002caf8     deps_format.obj
 0002:00004b08       ??_C@_19EHICKDBN@?$AA?$CF?$AAs?$AA?0?$AA?5@ 1002cb08     deps_format.obj
 0002:00004b14       ??_C@_13OHNMPHJM@?$AA?$FN@ 1002cb14     deps_format.obj
 0002:00004b18       ??_C@_13EHOOFIKC@?$AA?$HN@ 1002cb18     deps_format.obj
 0002:00004b20       ??_C@_1LE@OMOBMAFC@?$AAC?$AAo?$AAu?$AAl?$AAd?$AA?5?$AAn?$AAo?$AAt?$AA?5?$AAl?$AAo?$AAc?$AAa?$AAt@ 1002cb20     deps_format.obj
 0002:00004bd8       ??_C@_1FO@JNBCOELJ@?$AAC?$AAo?$AAu?$AAl?$AAd?$AA?5?$AAn?$AAo?$AAt?$AA?5?$AAo?$AAp?$AAe?$AAn?$AA?5@ 1002cbd8     deps_format.obj
 0002:00004c38       ??_C@_1BM@IEHEICNM@?$AAr?$AAu?$AAn?$AAt?$AAi?$AAm?$AAe?$AAT?$AAa?$AAr?$AAg?$AAe?$AAt@ 1002cc38     deps_format.obj
 0002:00004c54       ??_C@_19HHIIBINK@?$AAn?$AAa?$AAm?$AAe@ 1002cc54     deps_format.obj
 0002:00004c60       ??_C@_1FC@JNIHPKHH@?$AAL?$AAo?$AAa?$AAd?$AAi?$AAn?$AAg?$AA?5?$AAd?$AAe?$AAp?$AAs?$AA?5?$AAf?$AAi@ 1002cc60     deps_format.obj
 0002:00004d24       ??_C@_1M@HNJDKPAA@?$AAL?$AAo?$AAc?$AAa?$AAl@ 1002cd24     deps_entry.obj
 0002:00004d30       ??_C@_1BC@LOFMGOCE@?$AAR?$AAe?$AAl?$AAa?$AAt?$AAi?$AAv?$AAe@ 1002cd30     deps_entry.obj
 0002:00004d48       ??_C@_1EG@HHNMMAMM@?$AA?5?$AA?5?$AA?5?$AA?5?$AA?$CF?$AAs?$AA?5?$AAp?$AAa?$AAt?$AAh?$AA?5?$AAq?$AAu?$AAe@ 1002cd48     deps_entry.obj
 0002:00004d90       ??_C@_1DI@ICAEJJHF@?$AA?5?$AA?5?$AA?5?$AA?5?$AA?$CF?$AAs?$AA?5?$AAp?$AAa?$AAt?$AAh?$AA?5?$AAq?$AAu?$AAe@ 1002cd90     deps_entry.obj
 0002:00004dc8       ??_C@_1JO@HIODNDNJ@?$AAD?$AAe?$AAt?$AAe?$AAc?$AAt?$AAe?$AAd?$AA?5?$AAa?$AA?5?$AAr?$AAe?$AAs?$AAo@ 1002cdc8     deps_entry.obj
 0002:00004e68       ??_C@_1FM@EHJENIEC@?$AAI?$AAn?$AAv?$AAa?$AAl?$AAi?$AAd?$AA?5?$AAh?$AAa?$AAs?$AAh?$AA?5?$AA?$CF?$AAs@ 1002ce68     deps_entry.obj
 0002:00004ec4       ??_C@_1BA@PBICMLKL@?$AA?4?$AAn?$AAu?$AAp?$AAk?$AAg?$AA?4@ 1002cec4     deps_entry.obj
 0002:00004ed4       ??_C@_1DM@OHPNBDJE@?$AAT?$AAh?$AAe?$AA?5?$AAh?$AAa?$AAs?$AAh?$AA?5?$AAf?$AAi?$AAl?$AAe?$AA?5?$AAi@ 1002ced4     deps_entry.obj
 0002:00004f10       ??_C@_1HC@JAECPBJD@?$AAT?$AAh?$AAe?$AA?5?$AAf?$AAi?$AAl?$AAe?$AA?5?$AAh?$AAa?$AAs?$AAh?$AA?5?$AA?$FL@ 1002cf10     deps_entry.obj
 0002:00004f88       ??_C@_1NO@NCBCKNOM@?$AAp?$AAr?$AAo?$AAb?$AAe?$AA_?$AAc?$AAo?$AAn?$AAf?$AAi?$AAg?$AA_?$AAt?$AA?3@ 1002cf88     deps_resolver.obj
 0002:00005068       ??_C@_1CK@JMHMODCI@?$AAA?$AAd?$AAd?$AAi?$AAn?$AAg?$AA?5?$AAt?$AAp?$AAa?$AA?5?$AAe?$AAn?$AAt?$AAr@ 1002d068     deps_resolver.obj
 0002:00005094       ??_C@_1CM@DCIJJIHM@?$AAA?$AAd?$AAd?$AAi?$AAn?$AAg?$AA?5?$AAt?$AAo?$AA?5?$AA?$CF?$AAs?$AA?5?$AAp?$AAa@ 1002d094     deps_resolver.obj
 0002:000050c0       ??_C@_1DI@INEGPHNL@?$AAA?$AAd?$AAd?$AAi?$AAn?$AAg?$AA?5?$AAf?$AAi?$AAl?$AAe?$AAs?$AA?5?$AAf?$AAr@ 1002d0c0     deps_resolver.obj
 0002:000050f8       ??_C@_1BA@NNLHKPPE@?$AA?4?$AAn?$AAi?$AA?4?$AAd?$AAl?$AAl@ 1002d0f8     deps_resolver.obj
 0002:00005108       ??_C@_1BA@PEFCKAGN@?$AA?4?$AAn?$AAi?$AA?4?$AAe?$AAx?$AAe@ 1002d108     deps_resolver.obj
 0002:00005118       ??_C@_1HG@KIAAMJMM@?$AAS?$AAk?$AAi?$AAp?$AAp?$AAi?$AAn?$AAg?$AA?5?$AA?$CF?$AAs?$AA?5?$AAb?$AAe?$AAc@ 1002d118     deps_resolver.obj
 0002:00005190       ??_C@_1EK@PHKDDHAO@?$AAA?$AAd?$AAd?$AAi?$AAn?$AAg?$AA?5?$AA?$CF?$AAs?$AA?5?$AAt?$AAo?$AA?5?$AA?$CF?$AAs@ 1002d190     deps_resolver.obj
 0002:000051e0       ??_C@_1GC@HFPFCOLM@?$AAA?$AAt?$AAt?$AAe?$AAm?$AAp?$AAt?$AAi?$AAn?$AAg?$AA?5?$AAa?$AA?5?$AAr?$AAo@ 1002d1e0     deps_resolver.obj
 0002:00005248       ??_C@_1HM@CMMMBPHE@?$AAN?$AAo?$AA?5?$AAr?$AAo?$AAl?$AAl?$AA?5?$AAf?$AAo?$AAr?$AAw?$AAa?$AAr?$AAd@ 1002d248     deps_resolver.obj
 0002:000052c8       ??_C@_1FO@JAFLLKL@?$AAF?$AAo?$AAu?$AAn?$AAd?$AA?5?$AAc?$AAa?$AAc?$AAh?$AAe?$AAd?$AA?5?$AAr?$AAo@ 1002d2c8     deps_resolver.obj
 0002:00005328       ??_C@_1EG@BHCMBKBC@?$AA?9?$AA?9?$AA?5?$AAL?$AAi?$AAs?$AAt?$AAi?$AAn?$AAg?$AA?5?$AAp?$AAr?$AAo?$AAb@ 1002d328     deps_resolver.obj
 0002:00005370       ??_C@_1GE@PKGAIFJJ@?$AA?5?$AA?5?$AAC?$AAo?$AAn?$AAs?$AAi?$AAd?$AAe?$AAr?$AAi?$AAn?$AAg?$AA?5?$AAe@ 1002d370     deps_resolver.obj
 0002:000053d8       ??_C@_1EM@NEHBKAPM@?$AA?5?$AA?5?$AA?5?$AA?5?$AAS?$AAk?$AAi?$AAp?$AAp?$AAi?$AAn?$AAg?$AA?4?$AA?4?$AA?4@ 1002d3d8     deps_resolver.obj
 0002:00005428       ??_C@_1EE@BOAJHEOM@?$AA?5?$AA?5?$AA?5?$AA?5?$AAS?$AAk?$AAi?$AAp?$AAp?$AAi?$AAn?$AAg?$AA?4?$AA?4?$AA?4@ 1002d428     deps_resolver.obj
 0002:00005470       ??_C@_1KO@PGFBNKHK@?$AAc?$AA?3?$AA?2?$AAu?$AAs?$AAe?$AAr?$AAs?$AA?2?$AAu?$AAs?$AAu?$AAa?$AAr?$AAi@ 1002d470     deps_resolver.obj
 0002:00005520       ??_C@_1DE@EJMLPMAF@?$AA?$CB?$AAc?$AAo?$AAn?$AAf?$AAi?$AAg?$AA?4?$AAi?$AAs?$AA_?$AAr?$AAo?$AAl?$AAl@ 1002d520     deps_resolver.obj
 0002:00005554       ??_C@_1DE@GGCBALEE@?$AA?5?$AA?5?$AA?5?$AA?5?$AAM?$AAa?$AAt?$AAc?$AAh?$AAe?$AAd?$AA?5?$AAh?$AAa?$AAs@ 1002d554     deps_resolver.obj
 0002:00005588       ??_C@_1EE@JNEFANKJ@?$AA?5?$AA?5?$AA?5?$AA?5?$AAS?$AAk?$AAi?$AAp?$AAp?$AAi?$AAn?$AAg?$AA?4?$AA?4?$AA?4@ 1002d588     deps_resolver.obj
 0002:000055d0       ??_C@_1EM@GOAHMHGI@?$AA?5?$AA?5?$AA?5?$AA?5?$AAP?$AAr?$AAo?$AAb?$AAe?$AAd?$AA?5?$AAd?$AAe?$AAp?$AAs@ 1002d5d0     deps_resolver.obj
 0002:00005620       ??_C@_1FE@KOJBALOF@?$AA?5?$AA?5?$AA?5?$AA?5?$AAS?$AAk?$AAi?$AAp?$AAp?$AAi?$AAn?$AAg?$AA?4?$AA?4?$AA?4@ 1002d620     deps_resolver.obj
 0002:00005678       ??_C@_1FI@DPHHFEN@?$AA?5?$AA?5?$AA?5?$AA?5?$AAS?$AAp?$AAe?$AAc?$AAi?$AAf?$AAi?$AAe?$AAd?$AA?5?$AAn@ 1002d678     deps_resolver.obj
 0002:000056d0       ??_C@_1EO@EMHPMKAG@?$AA?5?$AA?5?$AA?5?$AA?5?$AAS?$AAk?$AAi?$AAp?$AAp?$AAi?$AAn?$AAg?$AA?4?$AA?4?$AA?4@ 1002d6d0     deps_resolver.obj
 0002:00005720       ??_C@_1FC@LHKPKHIF@?$AA?5?$AA?5?$AA?5?$AA?5?$AAS?$AAp?$AAe?$AAc?$AAi?$AAf?$AAi?$AAe?$AAd?$AA?5?$AAr@ 1002d720     deps_resolver.obj
 0002:00005778       ??_C@_1HM@FFNCAIIC@?$AA?5?$AA?5?$AA?5?$AA?5?$AAS?$AAk?$AAi?$AAp?$AAp?$AAi?$AAn?$AAg?$AA?4?$AA?4?$AA?4@ 1002d778     deps_resolver.obj
 0002:000057f4       ??_C@_13DEFPDAGF@?$AA?0@   1002d7f4     deps_resolver.obj
 0002:000057f8       ??_C@_19IAONFFAM@?$AA?1?$AA_?$AA?4?$AA_@ 1002d7f8     deps_resolver.obj
 0002:00005808       ??_C@_1FG@MNPENDLO@?$AAP?$AAr?$AAo?$AAc?$AAe?$AAs?$AAs?$AAi?$AAn?$AAg?$AA?5?$AAT?$AAP?$AAA?$AA?5@ 1002d808     deps_resolver.obj
 0002:00005860       ??_C@_1BC@BLHMOICC@?$AAm?$AAs?$AAc?$AAo?$AAr?$AAl?$AAi?$AAb@ 1002d860     deps_resolver.obj
 0002:00005878       ??_C@_1OC@FFEMONHI@?$AAE?$AAr?$AAr?$AAo?$AAr?$AA?3?$AA?5?$AAa?$AAs?$AAs?$AAe?$AAm?$AAb?$AAl?$AAy@ 1002d878     deps_resolver.obj
 0002:0000595c       ??_C@_1M@GFKCHEPI@?$AAl?$AAo?$AAc?$AAa?$AAl@ 1002d95c     deps_resolver.obj
 0002:00005968       ??_C@_1BG@NPDHIHJH@?$AAc?$AAl?$AAr?$AAj?$AAi?$AAt?$AA?4?$AAd?$AAl?$AAl@ 1002d968     deps_resolver.obj
 0002:00005980       ??_C@_1GM@JIGGGCLI@?$AAP?$AAr?$AAo?$AAc?$AAe?$AAs?$AAs?$AAi?$AAn?$AAg?$AA?5?$AAn?$AAa?$AAt?$AAi@ 1002d980     deps_resolver.obj
 0002:000059ec       ??_C@_1DM@IGJEFBGN@?$AA?4?$AAM?$AAi?$AAc?$AAr?$AAo?$AAs?$AAo?$AAf?$AAt?$AA?4?$AAN?$AAE?$AAT?$AAC@ 1002d9ec     deps_resolver.obj
 0002:00005a28       ??_C@_1OG@IFBCLPMB@?$AAW?$AAa?$AAr?$AAn?$AAi?$AAn?$AAg?$AA?3?$AA?5?$AAa?$AAs?$AAs?$AAe?$AAm?$AAb@ 1002da28     deps_resolver.obj
 0002:00005b10       ??_C@_1EE@GNAAIHFE@?$AAM?$AAi?$AAc?$AAr?$AAo?$AAs?$AAo?$AAf?$AAt?$AA?4?$AAN?$AAE?$AAT?$AAC?$AAo@ 1002db10     deps_resolver.obj
 0002:00005b58       ??_C@_1IA@PGBDMGGO@?$AAi?$AAs?$AA_?$AAr?$AAe?$AAs?$AAo?$AAu?$AAr?$AAc?$AAe?$AAs?$AA?5?$AA?$HM?$AA?$HM@ 1002db58     deps_resolver.obj
 0002:00005c10       ??_C@_1KC@BLJJECIH@?$AAc?$AA?3?$AA?2?$AAu?$AAs?$AAe?$AAr?$AAs?$AA?2?$AAu?$AAs?$AAu?$AAa?$AAr?$AAi@ 1002dc10     coreclr.obj
 0002:00005cb4       ??_C@_1CK@MGIKNGHE@?$AAg?$AA_?$AAc?$AAo?$AAr?$AAe?$AAc?$AAl?$AAr?$AA?5?$AA?$DN?$AA?$DN?$AA?5?$AAn?$AAu@ 1002dcb4     coreclr.obj
 0002:00005ce0       ??_C@_0BD@NEMOMELH@coreclr_initialize@ 1002dce0     coreclr.obj
 0002:00005cf4       ??_C@_0BB@DGKEDJID@coreclr_shutdown@ 1002dcf4     coreclr.obj
 0002:00005d08       ??_C@_0BJ@JLIPOMIL@coreclr_execute_assembly@ 1002dd08     coreclr.obj
 0002:00005d24       ??_C@_0BI@IIHBMDHD@coreclr_create_delegate@ 1002dd24     coreclr.obj
 0002:00005d40       ??_C@_1GM@JAECAJKE@?$AAg?$AA_?$AAc?$AAo?$AAr?$AAe?$AAc?$AAl?$AAr?$AA?5?$AA?$CB?$AA?$DN?$AA?5?$AAn?$AAu@ 1002dd40     coreclr.obj
 0002:00005dac       ??_C@_1CI@BIGIEGKG@?$AA?4?$AAr?$AAu?$AAn?$AAt?$AAi?$AAm?$AAe?$AAc?$AAo?$AAn?$AAf?$AAi?$AAg?$AA?4@ 1002ddac     libhost.obj
 0002:00005dd4       ??_C@_1DA@GNJDPBGG@?$AA?4?$AAr?$AAu?$AAn?$AAt?$AAi?$AAm?$AAe?$AAc?$AAo?$AAn?$AAf?$AAi?$AAg?$AA?4@ 1002ddd4     libhost.obj
 0002:00005e08       ??_C@_1EA@CGCMBHMM@?$AAR?$AAu?$AAn?$AAt?$AAi?$AAm?$AAe?$AA?5?$AAc?$AAo?$AAn?$AAf?$AAi?$AAg?$AA?5@ 1002de08     libhost.obj
 0002:00005e48       ??_C@_1IG@EMAILNGL@?$AAR?$AAe?$AAa?$AAd?$AAi?$AAn?$AAg?$AA?5?$AAp?$AAa?$AAt?$AAc?$AAh?$AA?5?$AAr@ 1002de48     libhost.obj
 0002:00005ed0       ??_C@_1GM@CEDECNNH@?$AAC?$AAo?$AAn?$AAs?$AAi?$AAd?$AAe?$AAr?$AAi?$AAn?$AAg?$AA?5?$AAp?$AAa?$AAt@ 1002ded0     libhost.obj
 0002:00005f40       ??_C@_1FE@BBLLAGFM@?$AAP?$AAa?$AAt?$AAc?$AAh?$AA?5?$AAr?$AAo?$AAl?$AAl?$AA?5?$AAf?$AAo?$AAr?$AAw@ 1002df40     libhost.obj
 0002:00005f98       ??_C@_1JA@NILHPNEA@?$AAR?$AAe?$AAa?$AAd?$AAi?$AAn?$AAg?$AA?5?$AAp?$AAr?$AAe?$AAr?$AAe?$AAl?$AAe@ 1002df98     libhost.obj
 0002:00006028       ??_C@_1HG@IGGPEAKI@?$AAC?$AAo?$AAn?$AAs?$AAi?$AAd?$AAe?$AAr?$AAi?$AAn?$AAg?$AA?5?$AAp?$AAr?$AAe@ 1002e028     libhost.obj
 0002:000060a0       ??_C@_1FO@FMCIIHMM@?$AAP?$AAr?$AAe?$AAr?$AAe?$AAl?$AAe?$AAa?$AAs?$AAe?$AA?5?$AAr?$AAo?$AAl?$AAl@ 1002e0a0     libhost.obj
 0002:00006100       ??_C@_1EE@GBNKOCFJ@?$AAR?$AAu?$AAn?$AAt?$AAi?$AAm?$AAe?$AA?5?$AAc?$AAo?$AAn?$AAf?$AAi?$AAg?$AA?5@ 1002e100     runtime_config.obj
 0002:00006144       ??_C@_1CC@GFEPEAPE@?$AAc?$AAo?$AAn?$AAf?$AAi?$AAg?$AAP?$AAr?$AAo?$AAp?$AAe?$AAr?$AAt?$AAi?$AAe@ 1002e144     runtime_config.obj
 0002:00006168       ??_C@_1CO@IALOKKFN@?$AAa?$AAd?$AAd?$AAi?$AAt?$AAi?$AAo?$AAn?$AAa?$AAl?$AAP?$AAr?$AAo?$AAb?$AAi@ 1002e168     runtime_config.obj
 0002:00006198       ??_C@_1BK@JLLFHIHK@?$AAa?$AAp?$AAp?$AAl?$AAy?$AAP?$AAa?$AAt?$AAc?$AAh?$AAe?$AAs@ 1002e198     runtime_config.obj
 0002:000061b4       ??_C@_1CM@PINHPNE@?$AAp?$AAr?$AAe?$AAR?$AAe?$AAl?$AAe?$AAa?$AAs?$AAe?$AAR?$AAo?$AAl?$AAl?$AAF@ 1002e1b4     runtime_config.obj
 0002:000061e0       ??_C@_1BE@DMNNPODD@?$AAf?$AAr?$AAa?$AAm?$AAe?$AAw?$AAo?$AAr?$AAk@ 1002e1e0     runtime_config.obj
 0002:000061f8       ??_C@_1FE@NDPGCKCC@?$AAA?$AAt?$AAt?$AAe?$AAm?$AAp?$AAt?$AAi?$AAn?$AAg?$AA?5?$AAt?$AAo?$AA?5?$AAr@ 1002e1f8     runtime_config.obj
 0002:0000624c       ??_C@_1DA@CBLCIAMP@?$AAF?$AAi?$AAl?$AAe?$AA?5?$AAs?$AAt?$AAr?$AAe?$AAa?$AAm?$AA?5?$AAn?$AAo?$AAt@ 1002e24c     runtime_config.obj
 0002:0000627c       ??_C@_1BO@NCIJIDEG@?$AAr?$AAu?$AAn?$AAt?$AAi?$AAm?$AAe?$AAO?$AAp?$AAt?$AAi?$AAo?$AAn?$AAs@ 1002e27c     runtime_config.obj
 0002:000062a0       ??_C@_1EM@NGDNEJEF@?$AAA?$AAt?$AAt?$AAe?$AAm?$AAp?$AAt?$AAi?$AAn?$AAg?$AA?5?$AAt?$AAo?$AA?5?$AAr@ 1002e2a0     runtime_config.obj
 0002:000062f0       ??_C@_1GM@DICMCJDF@?$AAD?$AAi?$AAd?$AA?5?$AAn?$AAo?$AAt?$AA?5?$AAs?$AAu?$AAc?$AAc?$AAe?$AAs?$AAs@ 1002e2f0     runtime_config.obj
 0002:00006360       ??_C@_1LA@HOKGPHGG@?$AAc?$AA?3?$AA?2?$AAu?$AAs?$AAe?$AAr?$AAs?$AA?2?$AAu?$AAs?$AAu?$AAa?$AAr?$AAi@ 1002e360     runtime_config.obj
 0002:00006410       ??_C@_1BA@LLHJMEHH@?$AAm?$AA_?$AAv?$AAa?$AAl?$AAi?$AAd@ 1002e410     runtime_config.obj
 0002:00006420       ??_C@_1CA@PJDGBGEG@?$AAS?$AAe?$AAt?$AAt?$AAi?$AAn?$AAg?$AA?5?$AAP?$AAA?$AAT?$AAH?$AA?$DN?$AA?$CF?$AAs@ 1002e420     pal.windows.obj
 0002:00006440       ??_C@_1KI@CDKADMBA@?$AAc?$AA?3?$AA?2?$AAu?$AAs?$AAe?$AAr?$AAs?$AA?2?$AAu?$AAs?$AAu?$AAa?$AAr?$AAi@ 1002e440     pal.windows.obj
 0002:000064e8       ??_C@_1CK@JFDNHCJI@?$AAr?$AAe?$AAs?$AAu?$AAl?$AAt?$AA?5?$AA?$DM?$AA?$DN?$AA?5?$AAs?$AAt?$AAr?$AA?4?$AAs@ 1002e4e8     pal.windows.obj
 0002:00006518       ??_C@_1GE@IGNADPON@?$AAF?$AAa?$AAi?$AAl?$AAe?$AAd?$AA?5?$AAt?$AAo?$AA?5?$AAo?$AAb?$AAt?$AAa?$AAi@ 1002e518     pal.windows.obj
 0002:00006580       ??_C@_1GA@INCEJPHP@?$AAF?$AAa?$AAi?$AAl?$AAe?$AAd?$AA?5?$AAt?$AAo?$AA?5?$AAl?$AAo?$AAa?$AAd?$AA?5@ 1002e580     pal.windows.obj
 0002:000065e0       ??_C@_1CE@BHIJJHLH@?$AAp?$AAa?$AAl?$AA?3?$AA?3?$AAl?$AAo?$AAa?$AAd?$AA_?$AAl?$AAi?$AAb?$AAr?$AAa@ 1002e5e0     pal.windows.obj
 0002:00006608       ??_C@_1EG@FJOKPLAF@?$AAF?$AAa?$AAi?$AAl?$AAe?$AAd?$AA?5?$AAt?$AAo?$AA?5?$AAp?$AAi?$AAn?$AA?5?$AAl@ 1002e608     pal.windows.obj
 0002:00006650       ??_C@_1CO@FBBMJJLK@?$AAL?$AAo?$AAa?$AAd?$AAe?$AAd?$AA?5?$AAl?$AAi?$AAb?$AAr?$AAa?$AAr?$AAy?$AA?5@ 1002e650     pal.windows.obj
 0002:00006680       ??_C@_1HA@ICALBJIL@?$AAF?$AAa?$AAi?$AAl?$AAe?$AAd?$AA?5?$AAt?$AAo?$AA?5?$AAr?$AAe?$AAa?$AAd?$AA?5@ 1002e680     pal.windows.obj
 0002:000066f0       ??_C@_1CA@FDCOCBNE@?$AAl?$AAi?$AAs?$AAt?$AA?5?$AA?$CB?$AA?$DN?$AA?5?$AAn?$AAu?$AAl?$AAl?$AAp?$AAt?$AAr@ 1002e6f0     pal.windows.obj
 0002:00006710       ??_C@_13BBDEGPLJ@?$AA?$CK@ 1002e710     pal.windows.obj
 0002:00006718       __real@3fe6666666666666    1002e718     asyncrt_utils.obj
 0002:00006720       __real@bff0000000000000    1002e720     callbackhelper.obj
 0002:00006730       __xmm@41f00000000000000000000000000000 1002e730     deps_resolver.obj
 0002:00006740       __xmm@80000000000000008000000000000000 1002e740     json_parsing.obj
 0002:00006850       __load_config_used         1002e850     MSVCRT:loadcfg.obj
 0002:000068f0       ??_R4type_info@@6B@        1002e8f0     MSVCRT:std_type_info_static.obj
 0002:00006904       ??_R3type_info@@8          1002e904     MSVCRT:std_type_info_static.obj
 0002:00006914       ??_R2type_info@@8          1002e914     MSVCRT:std_type_info_static.obj
 0002:0000691c       ??_R1A@?0A@EA@type_info@@8 1002e91c     MSVCRT:std_type_info_static.obj
 0002:00006938       ??_R4bad_alloc@std@@6B@    1002e938     MSVCRT:throw_bad_alloc.obj
 0002:0000694c       ??_R3bad_alloc@std@@8      1002e94c     MSVCRT:throw_bad_alloc.obj
 0002:0000695c       ??_R2bad_alloc@std@@8      1002e95c     MSVCRT:throw_bad_alloc.obj
 0002:00006968       ??_R1A@?0A@EA@bad_alloc@std@@8 1002e968     MSVCRT:throw_bad_alloc.obj
 0002:00006984       ??_R4bad_array_new_length@std@@6B@ 1002e984     MSVCRT:throw_bad_alloc.obj
 0002:00006998       ??_R3bad_array_new_length@std@@8 1002e998     MSVCRT:throw_bad_alloc.obj
 0002:000069a8       ??_R2bad_array_new_length@std@@8 1002e9a8     MSVCRT:throw_bad_alloc.obj
 0002:000069b8       ??_R1A@?0A@EA@bad_array_new_length@std@@8 1002e9b8     MSVCRT:throw_bad_alloc.obj
 0002:000069d4       ??_R2?$basic_streambuf@_WU?$char_traits@_W@std@@@std@@8 1002e9d4     fx_ver.obj
 0002:000069dc       ??_R4?$basic_stringbuf@_WU?$char_traits@_W@std@@V?$allocator@_W@2@@std@@6B@ 1002e9dc     fx_ver.obj
 0002:000069f0       ??_R3?$basic_stringstream@_WU?$char_traits@_W@std@@V?$allocator@_W@2@@std@@8 1002e9f0     fx_ver.obj
 0002:00006a00       ??_R2?$basic_ostream@_WU?$char_traits@_W@std@@@std@@8 1002ea00     fx_ver.obj
 0002:00006a14       ??_R3?$basic_iostream@_WU?$char_traits@_W@std@@@std@@8 1002ea14     fx_ver.obj
 0002:00006a24       ??_R17A@3EA@?$_Iosb@H@std@@8 1002ea24     fx_ver.obj
 0002:00006a40       ??_R2?$basic_stringstream@_WU?$char_traits@_W@std@@V?$allocator@_W@2@@std@@8 1002ea40     fx_ver.obj
 0002:00006a6c       ??_R1A@?0A@EA@?$basic_stringbuf@_WU?$char_traits@_W@std@@V?$allocator@_W@2@@std@@8 1002ea6c     fx_ver.obj
 0002:00006a88       ??_R1A@?0A@EA@?$basic_stringstream@_WU?$char_traits@_W@std@@V?$allocator@_W@2@@std@@8 1002ea88     fx_ver.obj
 0002:00006aa4       ??_R2?$basic_iostream@_WU?$char_traits@_W@std@@@std@@8 1002eaa4     fx_ver.obj
 0002:00006acc       ??_R1A@?0A@EA@?$basic_istream@_WU?$char_traits@_W@std@@@std@@8 1002eacc     fx_ver.obj
 0002:00006ae8       ??_R4?$basic_stringstream@_WU?$char_traits@_W@std@@V?$allocator@_W@2@@std@@6B@ 1002eae8     fx_ver.obj
 0002:00006afc       ??_R2?$basic_ios@_WU?$char_traits@_W@std@@@std@@8 1002eafc     fx_ver.obj
 0002:00006b0c       ??_R3?$basic_stringbuf@_WU?$char_traits@_W@std@@V?$allocator@_W@2@@std@@8 1002eb0c     fx_ver.obj
 0002:00006b1c       ??_R1A@?0A@EA@?$basic_iostream@_WU?$char_traits@_W@std@@@std@@8 1002eb1c     fx_ver.obj
 0002:00006b38       ??_R3?$basic_ios@_WU?$char_traits@_W@std@@@std@@8 1002eb38     fx_ver.obj
 0002:00006b48       ??_R1A@?0A@EA@ios_base@std@@8 1002eb48     fx_ver.obj
 0002:00006b64       ??_R2?$basic_stringbuf@_WU?$char_traits@_W@std@@V?$allocator@_W@2@@std@@8 1002eb64     fx_ver.obj
 0002:00006b70       ??_R1A@?0A@EA@?$_Iosb@H@std@@8 1002eb70     fx_ver.obj
 0002:00006b8c       ??_R1A@?0A@EA@?$basic_streambuf@_WU?$char_traits@_W@std@@@std@@8 1002eb8c     fx_ver.obj
 0002:00006ba8       ??_R3?$basic_istream@_WU?$char_traits@_W@std@@@std@@8 1002eba8     fx_ver.obj
 0002:00006bb8       ??_R1BA@?0A@EA@?$basic_ostream@_WU?$char_traits@_W@std@@@std@@8 1002ebb8     fx_ver.obj
 0002:00006bd4       ??_R2?$basic_istream@_WU?$char_traits@_W@std@@@std@@8 1002ebd4     fx_ver.obj
 0002:00006be8       ??_R1A@?0A@EA@?$basic_ostream@_WU?$char_traits@_W@std@@@std@@8 1002ebe8     fx_ver.obj
 0002:00006c04       ??_R2ios_base@std@@8       1002ec04     fx_ver.obj
 0002:00006c10       ??_R3?$basic_streambuf@_WU?$char_traits@_W@std@@@std@@8 1002ec10     fx_ver.obj
 0002:00006c20       ??_R1A@A@3FA@?$basic_ios@_WU?$char_traits@_W@std@@@std@@8 1002ec20     fx_ver.obj
 0002:00006c3c       ??_R3ios_base@std@@8       1002ec3c     fx_ver.obj
 0002:00006c4c       ??_R1A@?0A@EA@?$basic_ios@_WU?$char_traits@_W@std@@@std@@8 1002ec4c     fx_ver.obj
 0002:00006c68       ??_R2?$_Iosb@H@std@@8      1002ec68     fx_ver.obj
 0002:00006c70       ??_R1A@A@3EA@ios_base@std@@8 1002ec70     fx_ver.obj
 0002:00006c8c       ??_R3?$_Iosb@H@std@@8      1002ec8c     fx_ver.obj
 0002:00006c9c       ??_R17?0A@EA@?$_Iosb@H@std@@8 1002ec9c     fx_ver.obj
 0002:00006cb8       ??_R3?$basic_ostream@_WU?$char_traits@_W@std@@@std@@8 1002ecb8     fx_ver.obj
 0002:00006cc8       ??_R3?$basic_istream@DU?$char_traits@D@std@@@std@@8 1002ecc8     fx_muxer.obj
 0002:00006cd8       ??_R4exception@std@@6B@    1002ecd8     fx_muxer.obj
 0002:00006cec       ??_R1A@?0A@EA@?$basic_istream@DU?$char_traits@D@std@@@std@@8 1002ecec     fx_muxer.obj
 0002:00006d08       ??_R4json_exception@json@web@@6B@ 1002ed08     fx_muxer.obj
 0002:00006d1c       ??_R1A@?0A@EA@bad_cast@std@@8 1002ed1c     fx_muxer.obj
 0002:00006d38       ??_R3?$basic_ifstream@DU?$char_traits@D@std@@@std@@8 1002ed38     fx_muxer.obj
 0002:00006d48       ??_R1A@?0A@EA@?$basic_ifstream@DU?$char_traits@D@std@@@std@@8 1002ed48     fx_muxer.obj
 0002:00006d64       ??_R1A@?0A@EA@exception@std@@8 1002ed64     fx_muxer.obj
 0002:00006d80       ??_R1A@?0A@EA@?$basic_streambuf@DU?$char_traits@D@std@@@std@@8 1002ed80     fx_muxer.obj
 0002:00006d9c       ??_R2?$basic_istream@DU?$char_traits@D@std@@@std@@8 1002ed9c     fx_muxer.obj
 0002:00006db0       ??_R2bad_cast@std@@8       1002edb0     fx_muxer.obj
 0002:00006dbc       ??_R2exception@std@@8      1002edbc     fx_muxer.obj
 0002:00006dc4       ??_R3?$basic_ios@DU?$char_traits@D@std@@@std@@8 1002edc4     fx_muxer.obj
 0002:00006dd4       ??_R2json_exception@json@web@@8 1002edd4     fx_muxer.obj
 0002:00006de0       ??_R4?$basic_ifstream@DU?$char_traits@D@std@@@std@@6B@ 1002ede0     fx_muxer.obj
 0002:00006df4       ??_R3exception@std@@8      1002edf4     fx_muxer.obj
 0002:00006e04       ??_R4?$basic_filebuf@DU?$char_traits@D@std@@@std@@6B@ 1002ee04     fx_muxer.obj
 0002:00006e18       ??_R2?$basic_streambuf@DU?$char_traits@D@std@@@std@@8 1002ee18     fx_muxer.obj
 0002:00006e20       ??_R1A@?0A@EA@json_exception@json@web@@8 1002ee20     fx_muxer.obj
 0002:00006e3c       ??_R3bad_cast@std@@8       1002ee3c     fx_muxer.obj
 0002:00006e4c       ??_R4bad_cast@std@@6B@     1002ee4c     fx_muxer.obj
 0002:00006e60       ??_R3json_exception@json@web@@8 1002ee60     fx_muxer.obj
 0002:00006e70       ??_R1A@?0A@EA@?$basic_filebuf@DU?$char_traits@D@std@@@std@@8 1002ee70     fx_muxer.obj
 0002:00006e8c       ??_R1A@A@3FA@?$basic_ios@DU?$char_traits@D@std@@@std@@8 1002ee8c     fx_muxer.obj
 0002:00006ea8       ??_R3?$basic_filebuf@DU?$char_traits@D@std@@@std@@8 1002eea8     fx_muxer.obj
 0002:00006eb8       ??_R2?$basic_filebuf@DU?$char_traits@D@std@@@std@@8 1002eeb8     fx_muxer.obj
 0002:00006ec4       ??_R3?$basic_streambuf@DU?$char_traits@D@std@@@std@@8 1002eec4     fx_muxer.obj
 0002:00006ed4       ??_R1A@?0A@EA@?$basic_ios@DU?$char_traits@D@std@@@std@@8 1002eed4     fx_muxer.obj
 0002:00006ef0       ??_R2?$basic_ifstream@DU?$char_traits@D@std@@@std@@8 1002eef0     fx_muxer.obj
 0002:00006f08       ??_R2?$basic_ios@DU?$char_traits@D@std@@@std@@8 1002ef08     fx_muxer.obj
 0002:00006f18       ??_R2_Boolean@details@json@web@@8 1002ef18     json.obj
 0002:00006f24       ??_R3_Value@details@json@web@@8 1002ef24     json.obj
 0002:00006f34       ??_R3json_error_category_impl@details@json@web@@8 1002ef34     json.obj
 0002:00006f44       ??_R3_Null@details@json@web@@8 1002ef44     json.obj
 0002:00006f54       ??_R1A@?0A@EA@_Object@details@json@web@@8 1002ef54     json.obj
 0002:00006f70       ??_R1A@?0A@EA@json_error_category_impl@details@json@web@@8 1002ef70     json.obj
 0002:00006f8c       ??_R3_Number@details@json@web@@8 1002ef8c     json.obj
 0002:00006f9c       ??_R3_Array@details@json@web@@8 1002ef9c     json.obj
 0002:00006fac       ??_R1A@?0A@EA@_Array@details@json@web@@8 1002efac     json.obj
 0002:00006fc8       ??_R1A@?0A@EA@_Boolean@details@json@web@@8 1002efc8     json.obj
 0002:00006fe4       ??_R1A@?0A@EA@_Number@details@json@web@@8 1002efe4     json.obj
 0002:00007000       ??_R4_Array@details@json@web@@6B@ 1002f000     json.obj
 0002:00007014       ??_R4_String@details@json@web@@6B@ 1002f014     json.obj
 0002:00007028       ??_R2_Null@details@json@web@@8 1002f028     json.obj
 0002:00007034       ??_R3_Object@details@json@web@@8 1002f034     json.obj
 0002:00007044       ??_R2json_error_category_impl@details@json@web@@8 1002f044     json.obj
 0002:00007050       ??_R4json_error_category_impl@details@json@web@@6B@ 1002f050     json.obj
 0002:00007064       ??_R2_String@details@json@web@@8 1002f064     json.obj
 0002:00007070       ??_R2error_category@std@@8 1002f070     json.obj
 0002:00007078       ??_R4_Value@details@json@web@@6B@ 1002f078     json.obj
 0002:0000708c       ??_R4_Null@details@json@web@@6B@ 1002f08c     json.obj
 0002:000070a0       ??_R1A@?0A@EA@_String@details@json@web@@8 1002f0a0     json.obj
 0002:000070bc       ??_R2_Number@details@json@web@@8 1002f0bc     json.obj
 0002:000070c8       ??_R4_Number@details@json@web@@6B@ 1002f0c8     json.obj
 0002:000070dc       ??_R1A@?0A@EA@_Value@details@json@web@@8 1002f0dc     json.obj
 0002:000070f8       ??_R4_Object@details@json@web@@6B@ 1002f0f8     json.obj
 0002:0000710c       ??_R3_Boolean@details@json@web@@8 1002f10c     json.obj
 0002:0000711c       ??_R3error_category@std@@8 1002f11c     json.obj
 0002:0000712c       ??_R3_String@details@json@web@@8 1002f12c     json.obj
 0002:0000713c       ??_R2_Value@details@json@web@@8 1002f13c     json.obj
 0002:00007144       ??_R1A@?0A@EA@_Null@details@json@web@@8 1002f144     json.obj
 0002:00007160       ??_R2_Object@details@json@web@@8 1002f160     json.obj
 0002:0000716c       ??_R2_Array@details@json@web@@8 1002f16c     json.obj
 0002:00007178       ??_R4_Boolean@details@json@web@@6B@ 1002f178     json.obj
 0002:0000718c       ??_R1A@?0A@EA@error_category@std@@8 1002f18c     json.obj
 0002:000071a8       ??_R4?$JSON_StreamParser@D@details@json@web@@6B@ 1002f1a8     json_parsing.obj
 0002:000071bc       ??_R4_System_error_category@std@@6B@ 1002f1bc     json_parsing.obj
 0002:000071d0       ??_R4_Generic_error_category@std@@6B@ 1002f1d0     json_parsing.obj
 0002:000071e4       ??_R1A@?0A@EA@?$basic_ostringstream@_WU?$char_traits@_W@std@@V?$allocator@_W@2@@std@@8 1002f1e4     json_parsing.obj
 0002:00007200       ??_R1A@?0A@EA@_Generic_error_category@std@@8 1002f200     json_parsing.obj
 0002:0000721c       ??_R2_System_error_category@std@@8 1002f21c     json_parsing.obj
 0002:00007228       ??_R3?$basic_ostringstream@_WU?$char_traits@_W@std@@V?$allocator@_W@2@@std@@8 1002f228     json_parsing.obj
 0002:00007238       ??_R3_Generic_error_category@std@@8 1002f238     json_parsing.obj
 0002:00007248       ??_R2?$JSON_Parser@D@details@json@web@@8 1002f248     json_parsing.obj
 0002:00007250       ??_R3?$JSON_StreamParser@D@details@json@web@@8 1002f250     json_parsing.obj
 0002:00007260       ??_R2_Generic_error_category@std@@8 1002f260     json_parsing.obj
 0002:0000726c       ??_R2?$basic_ostringstream@_WU?$char_traits@_W@std@@V?$allocator@_W@2@@std@@8 1002f26c     json_parsing.obj
 0002:00007284       ??_R3?$JSON_Parser@D@details@json@web@@8 1002f284     json_parsing.obj
 0002:00007294       ??_R3_System_error_category@std@@8 1002f294     json_parsing.obj
 0002:000072a4       ??_R2?$JSON_StreamParser@D@details@json@web@@8 1002f2a4     json_parsing.obj
 0002:000072b0       ??_R1A@?0A@EA@?$JSON_Parser@D@details@json@web@@8 1002f2b0     json_parsing.obj
 0002:000072cc       ??_R1A@?0A@EA@?$JSON_StreamParser@D@details@json@web@@8 1002f2cc     json_parsing.obj
 0002:000072e8       ??_R1A@?0A@EA@_System_error_category@std@@8 1002f2e8     json_parsing.obj
 0002:00007304       ??_R4?$basic_ostringstream@_WU?$char_traits@_W@std@@V?$allocator@_W@2@@std@@6B@ 1002f304     json_parsing.obj
 0002:00007318       ??_R4runtime_error@std@@6B@ 1002f318     asyncrt_utils.obj
 0002:0000732c       ??_R1A@?0A@EA@runtime_error@std@@8 1002f32c     asyncrt_utils.obj
 0002:00007348       ??_R2range_error@std@@8    1002f348     asyncrt_utils.obj
 0002:00007358       ??_R1A@?0A@EA@range_error@std@@8 1002f358     asyncrt_utils.obj
 0002:00007374       ??_R2runtime_error@std@@8  1002f374     asyncrt_utils.obj
 0002:00007380       ??_R3range_error@std@@8    1002f380     asyncrt_utils.obj
 0002:00007390       ??_R4range_error@std@@6B@  1002f390     asyncrt_utils.obj
 0002:000073a4       ??_R3runtime_error@std@@8  1002f3a4     asyncrt_utils.obj
 0002:000073d0       ??_R2?$_Func_base@ABV?$vector@V?$basic_string@_WU?$char_traits@_W@std@@V?$allocator@_W@2@@std@@V?$allocator@V?$basic_string@_WU?$char_traits@_W@std@@V?$allocator@_W@2@@std@@@2@@std@@ABV?$basic_string@_WU?$char_traits@_W@std@@V?$allocator@_W@2@@2@HPA_N@std@@8 1002f3d0     deps_format.obj
 0002:0000742c       ??_R2?$_Func_base@_NABV?$basic_string@_WU?$char_traits@_W@std@@V?$allocator@_W@2@@std@@@std@@8 1002f42c     deps_format.obj
 0002:00007444       ??_R1A@?0A@EA@?$_Func_base@_NABV?$basic_string@_WU?$char_traits@_W@std@@V?$allocator@_W@2@@std@@@std@@8 1002f444     deps_format.obj
 0002:00007474       ??_R1A@?0A@EA@?$_Func_base@ABV?$vector@V?$basic_string@_WU?$char_traits@_W@std@@V?$allocator@_W@2@@std@@V?$allocator@V?$basic_string@_WU?$char_traits@_W@std@@V?$allocator@_W@2@@std@@@2@@std@@ABV?$basic_string@_WU?$char_traits@_W@std@@V?$allocator@_W@2@@2@HPA_N@std@@8 1002f474     deps_format.obj
 0002:000074ac       ??_R3?$_Func_base@ABV?$vector@V?$basic_string@_WU?$char_traits@_W@std@@V?$allocator@_W@2@@std@@V?$allocator@V?$basic_string@_WU?$char_traits@_W@std@@V?$allocator@_W@2@@std@@@2@@std@@ABV?$basic_string@_WU?$char_traits@_W@std@@V?$allocator@_W@2@@2@HPA_N@std@@8 1002f4ac     deps_format.obj
 0002:000074f4       ??_R3?$_Func_base@_NABV?$basic_string@_WU?$char_traits@_W@std@@V?$allocator@_W@2@@std@@@std@@8 1002f4f4     deps_format.obj
 0002:00007590       ??_R3?$_Func_base@V?$basic_string@_WU?$char_traits@_W@std@@V?$allocator@_W@2@@std@@ABV12@@std@@8 1002f590     deps_resolver.obj
 0002:000075b0       ??_R1A@?0A@EA@?$_Func_base@V?$basic_string@_WU?$char_traits@_W@std@@V?$allocator@_W@2@@std@@ABV12@@std@@8 1002f5b0     deps_resolver.obj
 0002:00007600       ??_R2?$_Func_base@V?$basic_string@_WU?$char_traits@_W@std@@V?$allocator@_W@2@@std@@ABV12@@std@@8 1002f600     deps_resolver.obj
 0002:00007620       ___safe_se_handler_table   1002f620     <linker-defined>
 0002:00007b8c       ___rtc_iaa                 1002fb8c     MSVCRT:_initsect_.obj
 0002:00007b90       ___rtc_izz                 1002fb90     MSVCRT:_initsect_.obj
 0002:00007b94       ___rtc_taa                 1002fb94     MSVCRT:_initsect_.obj
 0002:00007b98       ___rtc_tzz                 1002fb98     MSVCRT:_initsect_.obj
 0002:0000a80c       __TI2?AVbad_alloc@std@@    1003280c     MSVCRT:throw_bad_alloc.obj
 0002:0000a81c       __CTA2?AVbad_alloc@std@@   1003281c     MSVCRT:throw_bad_alloc.obj
 0002:0000a828       __CT??_R0?AVbad_alloc@std@@@8??0bad_alloc@std@@QAE@ABV01@@Z12 10032828     MSVCRT:throw_bad_alloc.obj
 0002:0000a844       __TI3?AVbad_array_new_length@std@@ 10032844     MSVCRT:throw_bad_alloc.obj
 0002:0000a854       __CTA3?AVbad_array_new_length@std@@ 10032854     MSVCRT:throw_bad_alloc.obj
 0002:0000a864       __CT??_R0?AVbad_array_new_length@std@@@8??0bad_array_new_length@std@@QAE@ABV01@@Z12 10032864     MSVCRT:throw_bad_alloc.obj
 0002:0000a880       __CTA2?AVjson_exception@json@web@@ 10032880     fx_muxer.obj
 0002:0000a88c       __CT??_R0?AVbad_cast@std@@@8??0bad_cast@std@@QAE@ABV01@@Z12 1003288c     fx_muxer.obj
 0002:0000a8a8       __CTA2?AVbad_cast@std@@    100328a8     fx_muxer.obj
 0002:0000a8b4       __TI2?AVbad_cast@std@@     100328b4     fx_muxer.obj
 0002:0000a8c4       __CT??_R0?AVjson_exception@json@web@@@8??0json_exception@json@web@@QAE@ABV012@@Z36 100328c4     fx_muxer.obj
 0002:0000a8e0       __CT??_R0?AVexception@std@@@8??0exception@std@@QAE@ABV01@@Z12 100328e0     fx_muxer.obj
 0002:0000a8fc       __TI2?AVjson_exception@json@web@@ 100328fc     fx_muxer.obj
 0002:0000a90c       __TI1?AVSafeIntException@safeint3@msl@@ 1003290c     json.obj
 0002:0000a91c       __CT??_R0?AVSafeIntException@safeint3@msl@@@84 1003291c     json.obj
 0002:0000a938       __CTA1?AVSafeIntException@safeint3@msl@@ 10032938     json.obj
 0002:0000a940       __CTA3?AVrange_error@std@@ 10032940     asyncrt_utils.obj
 0002:0000a950       __TI3?AVrange_error@std@@  10032950     asyncrt_utils.obj
 0002:0000a960       __CT??_R0?AVrange_error@std@@@8??0range_error@std@@QAE@ABV01@@Z12 10032960     asyncrt_utils.obj
 0002:0000a97c       __TI2?AVruntime_error@std@@ 1003297c     asyncrt_utils.obj
 0002:0000a98c       __CT??_R0?AVruntime_error@std@@@8??0runtime_error@std@@QAE@ABV01@@Z12 1003298c     asyncrt_utils.obj
 0002:0000a9a8       __CTA2?AVruntime_error@std@@ 100329a8     asyncrt_utils.obj
 0002:0000aa1c       __IMPORT_DESCRIPTOR_KERNEL32 10032a1c     kernel32:KERNEL32.dll
 0002:0000aa30       __IMPORT_DESCRIPTOR_nw     10032a30     nw:nw.dll
 0002:0000aa44       __IMPORT_DESCRIPTOR_node   10032a44     node:node.dll
 0002:0000aa58       __IMPORT_DESCRIPTOR_MSVCP140 10032a58     msvcprt:MSVCP140.dll
 0002:0000aa6c       __IMPORT_DESCRIPTOR_VCRUNTIME140 10032a6c     vcruntime:VCRUNTIME140.dll
 0002:0000aa80       __IMPORT_DESCRIPTOR_api-ms-win-crt-stdio-l1-1-0 10032a80     ucrt:api-ms-win-crt-stdio-l1-1-0.dll
 0002:0000aa94       __IMPORT_DESCRIPTOR_api-ms-win-crt-runtime-l1-1-0 10032a94     ucrt:api-ms-win-crt-runtime-l1-1-0.dll
 0002:0000aaa8       __IMPORT_DESCRIPTOR_api-ms-win-crt-string-l1-1-0 10032aa8     ucrt:api-ms-win-crt-string-l1-1-0.dll
 0002:0000aabc       __IMPORT_DESCRIPTOR_api-ms-win-crt-convert-l1-1-0 10032abc     ucrt:api-ms-win-crt-convert-l1-1-0.dll
 0002:0000aad0       __IMPORT_DESCRIPTOR_api-ms-win-crt-filesystem-l1-1-0 10032ad0     ucrt:api-ms-win-crt-filesystem-l1-1-0.dll
 0002:0000aae4       __IMPORT_DESCRIPTOR_api-ms-win-crt-locale-l1-1-0 10032ae4     ucrt:api-ms-win-crt-locale-l1-1-0.dll
 0002:0000aaf8       __IMPORT_DESCRIPTOR_api-ms-win-crt-heap-l1-1-0 10032af8     ucrt:api-ms-win-crt-heap-l1-1-0.dll
 0002:0000ab0c       __IMPORT_DESCRIPTOR_api-ms-win-crt-math-l1-1-0 10032b0c     ucrt:api-ms-win-crt-math-l1-1-0.dll
 0002:0000ab20       __NULL_IMPORT_DESCRIPTOR   10032b20     kernel32:KERNEL32.dll
 0003:00000000       ___scrt_native_dllmain_reason 10036000     MSVCRT:utility.obj
 0003:00000004       ___security_cookie_complement 10036004     MSVCRT:gs_cookie.obj
 0003:00000008       ___security_cookie         10036008     MSVCRT:gs_cookie.obj
 0003:00000010       ___isa_enabled             10036010     MSVCRT:_cpu_disp_.obj
 0003:00000014       ___scrt_ucrt_dll_is_in_use 10036014     MSVCRT:ucrt_stubs.obj
 0003:00000018       ?_hexval@@3V?$array@C$0IA@@std@@A 10036018     json_parsing.obj
 0003:000000bc       ?g_c_locale@details@utility@@3V?$unique_ptr@PAU__crt_locale_pointers@@P6AXPAPAU1@@Z@std@@A 100360bc     asyncrt_utils.obj
 0003:000000e0       __fltused                  100360e0     MSVCRT:fltused.obj
 0003:000000e8       ??_R0?AVtype_info@@@8      100360e8     MSVCRT:std_type_info_static.obj
 0003:00000100       ??_R0?AVbad_alloc@std@@@8  10036100     MSVCRT:throw_bad_alloc.obj
 0003:0000011c       ??_R0?AVbad_array_new_length@std@@@8 1003611c     MSVCRT:throw_bad_alloc.obj
 0003:00000148       ??_R0?AV?$basic_stringbuf@_WU?$char_traits@_W@std@@V?$allocator@_W@2@@std@@@8 10036148     fx_ver.obj
 0003:00000198       ??_R0?AVios_base@std@@@8   10036198     fx_ver.obj
 0003:000001b4       ??_R0?AV?$_Iosb@H@std@@@8  100361b4     fx_ver.obj
 0003:000001d0       ??_R0?AV?$basic_iostream@_WU?$char_traits@_W@std@@@std@@@8 100361d0     fx_ver.obj
 0003:00000210       ??_R0?AV?$basic_stringstream@_WU?$char_traits@_W@std@@V?$allocator@_W@2@@std@@@8 10036210     fx_ver.obj
 0003:00000264       ??_R0?AV?$basic_ostream@_WU?$char_traits@_W@std@@@std@@@8 10036264     fx_ver.obj
 0003:000002a0       ??_R0?AV?$basic_ios@_WU?$char_traits@_W@std@@@std@@@8 100362a0     fx_ver.obj
 0003:000002d8       ??_R0?AV?$basic_istream@_WU?$char_traits@_W@std@@@std@@@8 100362d8     fx_ver.obj
 0003:00000314       ??_R0?AV?$basic_streambuf@_WU?$char_traits@_W@std@@@std@@@8 10036314     fx_ver.obj
 0003:00000354       ??_R0?AV?$basic_filebuf@DU?$char_traits@D@std@@@std@@@8 10036354     fx_muxer.obj
 0003:00000390       ??_R0?AV?$basic_ifstream@DU?$char_traits@D@std@@@std@@@8 10036390     fx_muxer.obj
 0003:000003cc       ??_R0?AV?$basic_streambuf@DU?$char_traits@D@std@@@std@@@8 100363cc     fx_muxer.obj
 0003:00000408       ??_R0?AVjson_exception@json@web@@@8 10036408     fx_muxer.obj
 0003:00000430       ??_R0?AVbad_cast@std@@@8   10036430     fx_muxer.obj
 0003:0000044c       ??_R0?AV?$basic_istream@DU?$char_traits@D@std@@@std@@@8 1003644c     fx_muxer.obj
 0003:00000488       ??_R0?AV?$basic_ios@DU?$char_traits@D@std@@@std@@@8 10036488     fx_muxer.obj
 0003:000004c0       ??_R0?AVexception@std@@@8  100364c0     fx_muxer.obj
 0003:000004dc       ??_R0?AV_Object@details@json@web@@@8 100364dc     json.obj
 0003:00000504       ??_R0?AVerror_category@std@@@8 10036504     json.obj
 0003:00000528       ??_R0?AV_Null@details@json@web@@@8 10036528     json.obj
 0003:00000550       ??_R0?AV_Value@details@json@web@@@8 10036550     json.obj
 0003:00000578       ??_R0?AV_Boolean@details@json@web@@@8 10036578     json.obj
 0003:000005a0       ??_R0?AVjson_error_category_impl@details@json@web@@@8 100365a0     json.obj
 0003:000005d8       ??_R0?AV_String@details@json@web@@@8 100365d8     json.obj
 0003:00000600       ??_R0?AVSafeIntException@safeint3@msl@@@8 10036600     json.obj
 0003:0000062c       ??_R0?AV_Array@details@json@web@@@8 1003662c     json.obj
 0003:00000654       ??_R0?AV_Number@details@json@web@@@8 10036654     json.obj
 0003:0000067c       ??_R0?AV?$JSON_StreamParser@D@details@json@web@@@8 1003667c     json_parsing.obj
 0003:000006b4       ??_R0?AV_System_error_category@std@@@8 100366b4     json_parsing.obj
 0003:000006e0       ??_R0?AV_Generic_error_category@std@@@8 100366e0     json_parsing.obj
 0003:0000070c       ??_R0?AV?$JSON_Parser@D@details@json@web@@@8 1003670c     json_parsing.obj
 0003:00000740       ??_R0?AV?$basic_ostringstream@_WU?$char_traits@_W@std@@V?$allocator@_W@2@@std@@@8 10036740     json_parsing.obj
 0003:00000794       ??_R0?AVruntime_error@std@@@8 10036794     asyncrt_utils.obj
 0003:000007b4       ??_R0?AVrange_error@std@@@8 100367b4     asyncrt_utils.obj
 0003:000007d8       ??_R0?AV?$_Func_base@_NABV?$basic_string@_WU?$char_traits@_W@std@@V?$allocator@_W@2@@std@@@std@@@8 100367d8     deps_format.obj
 0003:00000980       ??_R0?AV?$_Func_base@ABV?$vector@V?$basic_string@_WU?$char_traits@_W@std@@V?$allocator@_W@2@@std@@V?$allocator@V?$basic_string@_WU?$char_traits@_W@std@@V?$allocator@_W@2@@std@@@2@@std@@ABV?$basic_string@_WU?$char_traits@_W@std@@V?$allocator@_W@2@@2@HPA_N@std@@@8 10036980     deps_format.obj
 0003:00000fa0       ??_R0?AV?$_Func_base@V?$basic_string@_WU?$char_traits@_W@std@@V?$allocator@_W@2@@std@@ABV12@@std@@@8 10036fa0     deps_resolver.obj
 0003:00001010       ___scrt_current_native_startup_state 10037010     MSVCRT:utility.obj
 0003:00001014       ___scrt_native_startup_lock 10037014     MSVCRT:utility.obj
 0003:00001354       ___isa_available           10037354     MSVCRT:_cpu_disp_.obj
 0003:00001358       ___favor                   10037358     MSVCRT:_cpu_disp_.obj
 0003:0000135c       ___scrt_debugger_hook_flag 1003735c     MSVCRT:utility_desktop.obj
 0003:00001360       ?__type_info_root_node@@3U__type_info_node@@A 10037360     MSVCRT:tncleanup.obj
 0003:00001368       ?_OptionsStorage@?1??__local_stdio_scanf_options@@9@4_KA 10037368     MSVCRT:default_local_stdio_options.obj
 0003:00001370       ?funcWaitHandle@V8SynchronizationContext@@2PAPAXA 10037370     v8synchronizationcontext.obj
 0003:00001374       ?v8ThreadId@V8SynchronizationContext@@0KA 10037374     v8synchronizationcontext.obj
 0003:00001378       ?uv_edge_async@V8SynchronizationContext@@2PAUuv_edge_async_s@@A 10037378     v8synchronizationcontext.obj
 0003:0000137c       ?tickCallback@CallbackHelper@@0PAVCallback@Nan@@A 1003737c     callbackhelper.obj
 0003:00001380       ?debugMode@@3HA            10037380     edge.obj
 0003:00001384       ?callFunc@@3P6GXPAX0HPAHPAPAX1@ZA 10037384     coreclrembedding.obj
 0003:00001388       ?freeMarshalData@@3P6GXPAXH@ZA 10037388     coreclrembedding.obj
 0003:0000138c       ?compileFunc@@3P6GPAXPBXHPAPAX@ZA 1003738c     coreclrembedding.obj
 0003:00001390       ?continueTask@@3P6GXPAX0P6AX0HHPAVCoreClrFuncInvokeContext@@@ZPAPAX@ZA 10037390     coreclrembedding.obj
 0003:00001394       ?getFunc@@3P6GPAXPBD00PAPAX@ZA 10037394     coreclrembedding.obj
 0003:00001398       ?freeHandle@@3P6GXPAX@ZA   10037398     coreclrembedding.obj
 0003:0000139c       ?initialize@@3P6GXPAUbootstrapperContext@@PAPAX@ZA 1003739c     coreclrembedding.obj
 0003:000013a0       ?g_keep_json_object_unsorted@details@json@web@@3_NA 100373a0     json.obj
 0003:000013a4       ?g_c_localeFlag@details@utility@@3Uonce_flag@std@@A 100373a4     asyncrt_utils.obj
 0003:000013b8       ?_OptionsStorage@?1??__local_stdio_printf_options@@9@4_KA 100373b8     v8synchronizationcontext.obj
 0003:000013c0       ?_Psave@?$_Facetptr@V?$codecvt@DDU_Mbstatet@@@std@@@std@@2PBVfacet@locale@2@B 100373c0     fx_muxer.obj
 0003:000013c4       ?_Stinit@?1??_Init@?$basic_filebuf@DU?$char_traits@D@std@@@std@@IAEXPAU_iobuf@@W4_Initfl@23@@Z@4U_Mbstatet@@A 100373c4     fx_muxer.obj
 0003:000013cc       ?_Storage@?1???$_Immortalize@V_System_error_category@std@@@std@@YAAAV_System_error_category@1@XZ@4T?$_Align_type@H$07@1@A 100373cc     json_parsing.obj
 0003:000013d4       ?_Flag@?1???$_Immortalize@V_Generic_error_category@std@@@std@@YAAAV_Generic_error_category@1@XZ@4PAXA 100373d4     json_parsing.obj
 0003:000013d8       ?_Storage@?1???$_Immortalize@V_Generic_error_category@std@@@std@@YAAAV_Generic_error_category@1@XZ@4T?$_Align_type@H$07@1@A 100373d8     json_parsing.obj
 0003:000013e0       ?_Flag@?1???$_Immortalize@V_System_error_category@std@@@std@@YAAAV_System_error_category@1@XZ@4PAXA 100373e0     json_parsing.obj
 0003:00001408       ___dyn_tls_init_callback   10037408     <common>

 entry point at        0001:00023420

 Static symbols

 0000:fffc4000       .debug$S                   10000000     kernel32:KERNEL32.dll
 0000:fffc4000       .debug$S                   10000000     kernel32:KERNEL32.dll
 0000:fffc4000       .debug$S                   10000000     ucrt:api-ms-win-crt-math-l1-1-0.dll
 0000:fffc4000       .debug$S                   10000000     vcruntime:VCRUNTIME140.dll
 0000:fffc4000       .debug$S                   10000000     vcruntime:VCRUNTIME140.dll
 0000:fffc4000       .debug$S                   10000000     ucrt:api-ms-win-crt-stdio-l1-1-0.dll
 0000:fffc4000       .debug$S                   10000000     ucrt:api-ms-win-crt-stdio-l1-1-0.dll
 0000:fffc4000       .debug$S                   10000000     ucrt:api-ms-win-crt-stdio-l1-1-0.dll
 0000:fffc4000       .debug$S                   10000000     ucrt:api-ms-win-crt-stdio-l1-1-0.dll
 0000:fffc4000       .debug$S                   10000000     ucrt:api-ms-win-crt-stdio-l1-1-0.dll
 0000:fffc4000       .debug$S                   10000000     ucrt:api-ms-win-crt-stdio-l1-1-0.dll
 0000:fffc4000       .debug$S                   10000000     ucrt:api-ms-win-crt-stdio-l1-1-0.dll
 0000:fffc4000       .debug$S                   10000000     ucrt:api-ms-win-crt-string-l1-1-0.dll
 0000:fffc4000       .debug$S                   10000000     ucrt:api-ms-win-crt-stdio-l1-1-0.dll
 0000:fffc4000       .debug$S                   10000000     ucrt:api-ms-win-crt-stdio-l1-1-0.dll
 0000:fffc4000       .debug$S                   10000000     ucrt:api-ms-win-crt-runtime-l1-1-0.dll
 0000:fffc4000       .debug$S                   10000000     ucrt:api-ms-win-crt-string-l1-1-0.dll
 0000:fffc4000       .debug$S                   10000000     ucrt:api-ms-win-crt-locale-l1-1-0.dll
 0000:fffc4000       .debug$S                   10000000     ucrt:api-ms-win-crt-convert-l1-1-0.dll
 0000:fffc4000       .debug$S                   10000000     ucrt:api-ms-win-crt-convert-l1-1-0.dll
 0000:fffc4000       .debug$S                   10000000     ucrt:api-ms-win-crt-string-l1-1-0.dll
 0000:fffc4000       .debug$S                   10000000     ucrt:api-ms-win-crt-stdio-l1-1-0.dll
 0000:fffc4000       .debug$S                   10000000     ucrt:api-ms-win-crt-convert-l1-1-0.dll
 0000:fffc4000       .debug$S                   10000000     ucrt:api-ms-win-crt-stdio-l1-1-0.dll
 0000:fffc4000       .debug$S                   10000000     ucrt:api-ms-win-crt-convert-l1-1-0.dll
 0000:fffc4000       .debug$S                   10000000     kernel32:KERNEL32.dll
 0000:fffc4000       .debug$S                   10000000     kernel32:KERNEL32.dll
 0000:fffc4000       .debug$S                   10000000     kernel32:KERNEL32.dll
 0000:fffc4000       .debug$S                   10000000     kernel32:KERNEL32.dll
 0000:fffc4000       .debug$S                   10000000     kernel32:KERNEL32.dll
 0000:fffc4000       .debug$S                   10000000     kernel32:KERNEL32.dll
 0000:fffc4000       .debug$S                   10000000     kernel32:KERNEL32.dll
 0000:fffc4000       .debug$S                   10000000     kernel32:KERNEL32.dll
 0000:fffc4000       .debug$S                   10000000     kernel32:KERNEL32.dll
 0000:fffc4000       .debug$S                   10000000     kernel32:KERNEL32.dll
 0000:fffc4000       .debug$S                   10000000     ucrt:api-ms-win-crt-string-l1-1-0.dll
 0000:fffc4000       .debug$S                   10000000     ucrt:api-ms-win-crt-convert-l1-1-0.dll
 0000:fffc4000       .debug$S                   10000000     ucrt:api-ms-win-crt-convert-l1-1-0.dll
 0000:fffc4000       .debug$S                   10000000     ucrt:api-ms-win-crt-locale-l1-1-0.dll
 0000:fffc4000       .debug$S                   10000000     ucrt:api-ms-win-crt-locale-l1-1-0.dll
 0000:fffc4000       .debug$S                   10000000     ucrt:api-ms-win-crt-locale-l1-1-0.dll
 0000:fffc4000       .debug$S                   10000000     ucrt:api-ms-win-crt-string-l1-1-0.dll
 0000:fffc4000       .debug$S                   10000000     ucrt:api-ms-win-crt-locale-l1-1-0.dll
 0000:fffc4000       .debug$S                   10000000     ucrt:api-ms-win-crt-heap-l1-1-0.dll
 0000:fffc4000       .debug$S                   10000000     ucrt:api-ms-win-crt-string-l1-1-0.dll
 0000:fffc4000       .debug$S                   10000000     ucrt:api-ms-win-crt-convert-l1-1-0.dll
 0000:fffc4000       .debug$S                   10000000     ucrt:api-ms-win-crt-heap-l1-1-0.dll
 0000:fffc4000       .debug$S                   10000000     kernel32:KERNEL32.dll
 0000:fffc4000       .debug$S                   10000000     kernel32:KERNEL32.dll
 0000:fffc4000       .debug$S                   10000000     kernel32:KERNEL32.dll
 0000:fffc4000       .debug$S                   10000000     kernel32:KERNEL32.dll
 0000:fffc4000       .debug$S                   10000000     kernel32:KERNEL32.dll
 0000:fffc4000       .debug$S                   10000000     kernel32:KERNEL32.dll
 0000:fffc4000       .debug$S                   10000000     kernel32:KERNEL32.dll
 0000:fffc4000       .debug$S                   10000000     kernel32:KERNEL32.dll
 0000:fffc4000       .debug$S                   10000000     kernel32:KERNEL32.dll
 0000:fffc4000       .debug$S                   10000000     kernel32:KERNEL32.dll
 0000:fffc4000       .debug$S                   10000000     kernel32:KERNEL32.dll
 0000:fffc4000       .debug$S                   10000000     kernel32:KERNEL32.dll
 0000:fffc4000       .debug$S                   10000000     ucrt:api-ms-win-crt-heap-l1-1-0.dll
 0000:fffc4000       .debug$S                   10000000     ucrt:api-ms-win-crt-heap-l1-1-0.dll
 0000:fffc4000       .debug$S                   10000000     ucrt:api-ms-win-crt-runtime-l1-1-0.dll
 0000:fffc4000       .debug$S                   10000000     ucrt:api-ms-win-crt-runtime-l1-1-0.dll
 0000:fffc4000       .debug$S                   10000000     ucrt:api-ms-win-crt-runtime-l1-1-0.dll
 0000:fffc4000       .debug$S                   10000000     ucrt:api-ms-win-crt-runtime-l1-1-0.dll
 0000:fffc4000       .debug$S                   10000000     ucrt:api-ms-win-crt-runtime-l1-1-0.dll
 0000:fffc4000       .debug$S                   10000000     ucrt:api-ms-win-crt-runtime-l1-1-0.dll
 0000:fffc4000       .debug$S                   10000000     ucrt:api-ms-win-crt-runtime-l1-1-0.dll
 0000:fffc4000       .debug$S                   10000000     ucrt:api-ms-win-crt-runtime-l1-1-0.dll
 0000:fffc4000       .debug$S                   10000000     ucrt:api-ms-win-crt-runtime-l1-1-0.dll
 0000:fffc4000       .debug$S                   10000000     ucrt:api-ms-win-crt-runtime-l1-1-0.dll
 0000:fffc4000       .debug$S                   10000000     ucrt:api-ms-win-crt-runtime-l1-1-0.dll
 0000:fffc4000       .debug$S                   10000000     ucrt:api-ms-win-crt-filesystem-l1-1-0.dll
 0000:fffc4000       .debug$S                   10000000     ucrt:api-ms-win-crt-filesystem-l1-1-0.dll
 0000:fffc4000       .debug$S                   10000000     ucrt:api-ms-win-crt-stdio-l1-1-0.dll
 0000:fffc4000       .debug$S                   10000000     ucrt:api-ms-win-crt-stdio-l1-1-0.dll
 0000:fffc4000       .debug$S                   10000000     ucrt:api-ms-win-crt-stdio-l1-1-0.dll
 0000:fffc4000       .debug$S                   10000000     ucrt:api-ms-win-crt-stdio-l1-1-0.dll
 0000:fffc4000       .debug$S                   10000000     ucrt:api-ms-win-crt-runtime-l1-1-0.dll
 0000:fffc4000       .debug$S                   10000000     kernel32:KERNEL32.dll
 0000:fffc4000       .debug$S                   10000000     kernel32:KERNEL32.dll
 0000:fffc4000       .debug$S                   10000000     kernel32:KERNEL32.dll
 0000:fffc4000       .debug$S                   10000000     kernel32:KERNEL32.dll
 0000:fffc4000       .debug$S                   10000000     kernel32:KERNEL32.dll
 0000:fffc4000       .debug$S                   10000000     kernel32:KERNEL32.dll
 0000:fffc4000       .debug$S                   10000000     kernel32:KERNEL32.dll
 0000:fffc4000       .debug$S                   10000000     kernel32:KERNEL32.dll
 0000:fffc4000       .debug$S                   10000000     kernel32:KERNEL32.dll
 0000:fffc4000       .debug$S                   10000000     shell32:SHELL32.dll
 0002:fffd8000       .idata$6                   10000000     shell32:SHELL32.dll
 0000:fffc4000       .debug$S                   10000000     nw:nw.dll
 0000:fffc4000       .debug$S                   10000000     nw:nw.dll
 0000:fffc4000       .debug$S                   10000000     nw:nw.dll
 0000:fffc4000       .debug$S                   10000000     kernel32:KERNEL32.dll
 0000:fffc4000       .debug$S                   10000000     kernel32:KERNEL32.dll
 0000:fffc4000       .debug$S                   10000000     kernel32:KERNEL32.dll
 0000:fffc4000       .debug$S                   10000000     kernel32:KERNEL32.dll
 0000:fffc4000       .debug$S                   10000000     kernel32:KERNEL32.dll
 0000:fffc4000       .debug$S                   10000000     ucrt:api-ms-win-crt-convert-l1-1-0.dll
 0000:fffc4000       .debug$S                   10000000     edge_coreclr.exp
 0000:fffc4000       .debug$S                   10000000     ucrt:api-ms-win-crt-stdio-l1-1-0.dll
 0000:fffc4000       .debug$S                   10000000     ucrt:api-ms-win-crt-stdio-l1-1-0.dll
 0000:fffc4000       .debug$S                   10000000     ucrt:api-ms-win-crt-string-l1-1-0.dll
 0000:fffc4000       .debug$S                   10000000     ucrt:api-ms-win-crt-string-l1-1-0.dll
 0000:fffc4000       .debug$S                   10000000     ucrt:api-ms-win-crt-string-l1-1-0.dll
 0000:fffc4000       .debug$S                   10000000     ucrt:api-ms-win-crt-stdio-l1-1-0.dll
 0000:fffc4000       .debug$S                   10000000     ucrt:api-ms-win-crt-string-l1-1-0.dll
 0000:fffc4000       .debug$S                   10000000     ucrt:api-ms-win-crt-runtime-l1-1-0.dll
 0000:fffc4000       .debug$S                   10000000     ucrt:api-ms-win-crt-runtime-l1-1-0.dll
 0000:fffc4000       .debug$S                   10000000     ucrt:api-ms-win-crt-stdio-l1-1-0.dll
 0000:fffc4000       .debug$S                   10000000     ucrt:api-ms-win-crt-stdio-l1-1-0.dll
 0000:fffc4000       .debug$S                   10000000     vcruntime:VCRUNTIME140.dll
 0000:fffc4000       .debug$S                   10000000     vcruntime:VCRUNTIME140.dll
 0000:fffc4000       .debug$S                   10000000     nw:nw.dll
 0000:fffc4000       .debug$S                   10000000     nw:nw.dll
 0000:fffc4000       .debug$S                   10000000     nw:nw.dll
 0000:fffc4000       .debug$S                   10000000     nw:nw.dll
 0000:fffc4000       .debug$S                   10000000     nw:nw.dll
 0000:fffc4000       .debug$S                   10000000     vcruntime:VCRUNTIME140.dll
 0000:fffc4000       .debug$S                   10000000     vcruntime:VCRUNTIME140.dll
 0000:fffc4000       .debug$S                   10000000     nw:nw.dll
 0000:fffc4000       .debug$S                   10000000     nw:nw.dll
 0000:fffc4000       .debug$S                   10000000     vcruntime:VCRUNTIME140.dll
 0000:fffc4000       .debug$S                   10000000     vcruntime:VCRUNTIME140.dll
 0000:fffc4000       .debug$S                   10000000     vcruntime:VCRUNTIME140.dll
 0000:fffc4000       .debug$S                   10000000     vcruntime:VCRUNTIME140.dll
 0000:fffc4000       .debug$S                   10000000     vcruntime:VCRUNTIME140.dll
 0000:fffc4000       .debug$S                   10000000     msvcprt:MSVCP140.dll
 0000:fffc4000       .debug$S                   10000000     msvcprt:MSVCP140.dll
 0000:fffc4000       .debug$S                   10000000     nw:nw.dll
 0000:fffc4000       .debug$S                   10000000     nw:nw.dll
 0000:fffc4000       .debug$S                   10000000     nw:nw.dll
 0000:fffc4000       .debug$S                   10000000     nw:nw.dll
 0000:fffc4000       .debug$S                   10000000     nw:nw.dll
 0000:fffc4000       .debug$S                   10000000     nw:nw.dll
 0000:fffc4000       .debug$S                   10000000     nw:nw.dll
 0000:fffc4000       .debug$S                   10000000     nw:nw.dll
 0000:fffc4000       .debug$S                   10000000     nw:nw.dll
 0000:fffc4000       .debug$S                   10000000     nw:nw.dll
 0000:fffc4000       .debug$S                   10000000     nw:nw.dll
 0000:fffc4000       .debug$S                   10000000     nw:nw.dll
 0000:fffc4000       .debug$S                   10000000     nw:nw.dll
 0000:fffc4000       .debug$S                   10000000     nw:nw.dll
 0000:fffc4000       .debug$S                   10000000     nw:nw.dll
 0000:fffc4000       .debug$S                   10000000     nw:nw.dll
 0000:fffc4000       .debug$S                   10000000     nw:nw.dll
 0000:fffc4000       .debug$S                   10000000     nw:nw.dll
 0000:fffc4000       .debug$S                   10000000     nw:nw.dll
 0000:fffc4000       .debug$S                   10000000     nw:nw.dll
 0000:fffc4000       .debug$S                   10000000     nw:nw.dll
 0000:fffc4000       .debug$S                   10000000     nw:nw.dll
 0000:fffc4000       .debug$S                   10000000     msvcprt:MSVCP140.dll
 0000:fffc4000       .debug$S                   10000000     msvcprt:MSVCP140.dll
 0000:fffc4000       .debug$S                   10000000     nw:nw.dll
 0000:fffc4000       .debug$S                   10000000     nw:nw.dll
 0000:fffc4000       .debug$S                   10000000     nw:nw.dll
 0000:fffc4000       .debug$S                   10000000     nw:nw.dll
 0000:fffc4000       .debug$S                   10000000     nw:nw.dll
 0000:fffc4000       .debug$S                   10000000     nw:nw.dll
 0000:fffc4000       .debug$S                   10000000     nw:nw.dll
 0000:fffc4000       .debug$S                   10000000     nw:nw.dll
 0000:fffc4000       .debug$S                   10000000     nw:nw.dll
 0000:fffc4000       .debug$S                   10000000     nw:nw.dll
 0000:fffc4000       .debug$S                   10000000     nw:nw.dll
 0000:fffc4000       .debug$S                   10000000     nw:nw.dll
 0000:fffc4000       .debug$S                   10000000     nw:nw.dll
 0000:fffc4000       .debug$S                   10000000     nw:nw.dll
 0000:fffc4000       .debug$S                   10000000     nw:nw.dll
 0000:fffc4000       .debug$S                   10000000     nw:nw.dll
 0000:fffc4000       .debug$S                   10000000     nw:nw.dll
 0000:fffc4000       .debug$S                   10000000     nw:nw.dll
 0000:fffc4000       .debug$S                   10000000     nw:nw.dll
 0000:fffc4000       .debug$S                   10000000     nw:nw.dll
 0000:fffc4000       .debug$S                   10000000     nw:nw.dll
 0000:fffc4000       .debug$S                   10000000     nw:nw.dll
 0000:fffc4000       .debug$S                   10000000     nw:nw.dll
 0000:fffc4000       .debug$S                   10000000     nw:nw.dll
 0000:fffc4000       .debug$S                   10000000     nw:nw.dll
 0000:fffc4000       .debug$S                   10000000     nw:nw.dll
 0000:fffc4000       .debug$S                   10000000     nw:nw.dll
 0000:fffc4000       .debug$S                   10000000     nw:nw.dll
 0000:fffc4000       .debug$S                   10000000     nw:nw.dll
 0000:fffc4000       .debug$S                   10000000     nw:nw.dll
 0000:fffc4000       .debug$S                   10000000     msvcprt:MSVCP140.dll
 0000:fffc4000       .debug$S                   10000000     msvcprt:MSVCP140.dll
 0000:fffc4000       .debug$S                   10000000     msvcprt:MSVCP140.dll
 0000:fffc4000       .debug$S                   10000000     msvcprt:MSVCP140.dll
 0000:fffc4000       .debug$S                   10000000     msvcprt:MSVCP140.dll
 0000:fffc4000       .debug$S                   10000000     msvcprt:MSVCP140.dll
 0000:fffc4000       .debug$S                   10000000     msvcprt:MSVCP140.dll
 0000:fffc4000       .debug$S                   10000000     msvcprt:MSVCP140.dll
 0000:fffc4000       .debug$S                   10000000     msvcprt:MSVCP140.dll
 0000:fffc4000       .debug$S                   10000000     msvcprt:MSVCP140.dll
 0000:fffc4000       .debug$S                   10000000     msvcprt:MSVCP140.dll
 0000:fffc4000       .debug$S                   10000000     msvcprt:MSVCP140.dll
 0000:fffc4000       .debug$S                   10000000     msvcprt:MSVCP140.dll
 0000:fffc4000       .debug$S                   10000000     msvcprt:MSVCP140.dll
 0000:fffc4000       .debug$S                   10000000     msvcprt:MSVCP140.dll
 0000:fffc4000       .debug$S                   10000000     msvcprt:MSVCP140.dll
 0000:fffc4000       .debug$S                   10000000     msvcprt:MSVCP140.dll
 0000:fffc4000       .debug$S                   10000000     msvcprt:MSVCP140.dll
 0000:fffc4000       .debug$S                   10000000     msvcprt:MSVCP140.dll
 0000:fffc4000       .debug$S                   10000000     msvcprt:MSVCP140.dll
 0000:fffc4000       .debug$S                   10000000     msvcprt:MSVCP140.dll
 0000:fffc4000       .debug$S                   10000000     msvcprt:MSVCP140.dll
 0000:fffc4000       .debug$S                   10000000     msvcprt:MSVCP140.dll
 0000:fffc4000       .debug$S                   10000000     msvcprt:MSVCP140.dll
 0000:fffc4000       .debug$S                   10000000     msvcprt:MSVCP140.dll
 0000:fffc4000       .debug$S                   10000000     msvcprt:MSVCP140.dll
 0000:fffc4000       .debug$S                   10000000     msvcprt:MSVCP140.dll
 0000:fffc4000       .debug$S                   10000000     msvcprt:MSVCP140.dll
 0000:fffc4000       .debug$S                   10000000     msvcprt:MSVCP140.dll
 0000:fffc4000       .debug$S                   10000000     msvcprt:MSVCP140.dll
 0000:fffc4000       .debug$S                   10000000     msvcprt:MSVCP140.dll
 0000:fffc4000       .debug$S                   10000000     msvcprt:MSVCP140.dll
 0000:fffc4000       .debug$S                   10000000     msvcprt:MSVCP140.dll
 0000:fffc4000       .debug$S                   10000000     msvcprt:MSVCP140.dll
 0000:fffc4000       .debug$S                   10000000     msvcprt:MSVCP140.dll
 0000:fffc4000       .debug$S                   10000000     msvcprt:MSVCP140.dll
 0000:fffc4000       .debug$S                   10000000     msvcprt:MSVCP140.dll
 0000:fffc4000       .debug$S                   10000000     msvcprt:MSVCP140.dll
 0000:fffc4000       .debug$S                   10000000     msvcprt:MSVCP140.dll
 0000:fffc4000       .debug$S                   10000000     msvcprt:MSVCP140.dll
 0000:fffc4000       .debug$S                   10000000     msvcprt:MSVCP140.dll
 0000:fffc4000       .debug$S                   10000000     msvcprt:MSVCP140.dll
 0000:fffc4000       .debug$S                   10000000     msvcprt:MSVCP140.dll
 0000:fffc4000       .debug$S                   10000000     msvcprt:MSVCP140.dll
 0000:fffc4000       .debug$S                   10000000     msvcprt:MSVCP140.dll
 0000:fffc4000       .debug$S                   10000000     msvcprt:MSVCP140.dll
 0000:fffc4000       .debug$S                   10000000     msvcprt:MSVCP140.dll
 0000:fffc4000       .debug$S                   10000000     msvcprt:MSVCP140.dll
 0000:fffc4000       .debug$S                   10000000     msvcprt:MSVCP140.dll
 0000:fffc4000       .debug$S                   10000000     ucrt:api-ms-win-crt-stdio-l1-1-0.dll
 0000:fffc4000       .debug$S                   10000000     msvcprt:MSVCP140.dll
 0000:fffc4000       .debug$S                   10000000     msvcprt:MSVCP140.dll
 0000:fffc4000       .debug$S                   10000000     msvcprt:MSVCP140.dll
 0000:fffc4000       .debug$S                   10000000     msvcprt:MSVCP140.dll
 0000:fffc4000       .debug$S                   10000000     msvcprt:MSVCP140.dll
 0000:fffc4000       .debug$S                   10000000     msvcprt:MSVCP140.dll
 0000:fffc4000       .debug$S                   10000000     msvcprt:MSVCP140.dll
 0000:fffc4000       .debug$S                   10000000     msvcprt:MSVCP140.dll
 0000:fffc4000       .debug$S                   10000000     msvcprt:MSVCP140.dll
 0000:fffc4000       .debug$S                   10000000     msvcprt:MSVCP140.dll
 0000:fffc4000       .debug$S                   10000000     msvcprt:MSVCP140.dll
 0000:fffc4000       .debug$S                   10000000     msvcprt:MSVCP140.dll
 0000:fffc4000       .debug$S                   10000000     msvcprt:MSVCP140.dll
 0000:fffc4000       .debug$S                   10000000     msvcprt:MSVCP140.dll
 0000:fffc4000       .debug$S                   10000000     msvcprt:MSVCP140.dll
 0000:fffc4000       .debug$S                   10000000     msvcprt:MSVCP140.dll
 0000:fffc4000       .debug$S                   10000000     msvcprt:MSVCP140.dll
 0000:fffc4000       .debug$S                   10000000     msvcprt:MSVCP140.dll
 0000:fffc4000       .debug$S                   10000000     msvcprt:MSVCP140.dll
 0000:fffc4000       .debug$S                   10000000     msvcprt:MSVCP140.dll
 0000:fffc4000       .debug$S                   10000000     msvcprt:MSVCP140.dll
 0000:fffc4000       .debug$S                   10000000     msvcprt:MSVCP140.dll
 0000:fffc4000       .debug$S                   10000000     msvcprt:MSVCP140.dll
 0000:fffc4000       .debug$S                   10000000     msvcprt:MSVCP140.dll
 0000:fffc4000       .debug$S                   10000000     msvcprt:MSVCP140.dll
 0000:fffc4000       .debug$S                   10000000     msvcprt:MSVCP140.dll
 0000:fffc4000       .debug$S                   10000000     msvcprt:MSVCP140.dll
 0000:fffc4000       .debug$S                   10000000     msvcprt:MSVCP140.dll
 0000:fffc4000       .debug$S                   10000000     msvcprt:MSVCP140.dll
 0000:fffc4000       .debug$S                   10000000     msvcprt:MSVCP140.dll
 0000:fffc4000       .debug$S                   10000000     msvcprt:MSVCP140.dll
 0000:fffc4000       .debug$S                   10000000     msvcprt:MSVCP140.dll
 0000:fffc4000       .debug$S                   10000000     msvcprt:MSVCP140.dll
 0000:fffc4000       .debug$S                   10000000     msvcprt:MSVCP140.dll
 0000:fffc4000       .debug$S                   10000000     msvcprt:MSVCP140.dll
 0000:fffc4000       .debug$S                   10000000     msvcprt:MSVCP140.dll
 0000:fffc4000       .debug$S                   10000000     msvcprt:MSVCP140.dll
 0000:fffc4000       .debug$S                   10000000     msvcprt:MSVCP140.dll
 0000:fffc4000       .debug$S                   10000000     msvcprt:MSVCP140.dll
 0000:fffc4000       .debug$S                   10000000     msvcprt:MSVCP140.dll
 0000:fffc4000       .debug$S                   10000000     msvcprt:MSVCP140.dll
 0000:fffc4000       .debug$S                   10000000     msvcprt:MSVCP140.dll
 0000:fffc4000       .debug$S                   10000000     msvcprt:MSVCP140.dll
 0000:fffc4000       .debug$S                   10000000     msvcprt:MSVCP140.dll
 0000:fffc4000       .debug$S                   10000000     msvcprt:MSVCP140.dll
 0000:fffc4000       .debug$S                   10000000     msvcprt:MSVCP140.dll
 0000:fffc4000       .debug$S                   10000000     msvcprt:MSVCP140.dll
 0000:fffc4000       .debug$S                   10000000     msvcprt:MSVCP140.dll
 0000:fffc4000       .debug$S                   10000000     msvcprt:MSVCP140.dll
 0000:fffc4000       .debug$S                   10000000     msvcprt:MSVCP140.dll
 0000:fffc4000       .debug$S                   10000000     msvcprt:MSVCP140.dll
 0000:fffc4000       .debug$S                   10000000     msvcprt:MSVCP140.dll
 0000:fffc4000       .debug$S                   10000000     msvcprt:MSVCP140.dll
 0000:fffc4000       .debug$S                   10000000     nw:nw.dll
 0000:fffc4000       .debug$S                   10000000     nw:nw.dll
 0000:fffc4000       .debug$S                   10000000     nw:nw.dll
 0000:fffc4000       .debug$S                   10000000     nw:nw.dll
 0000:fffc4000       .debug$S                   10000000     nw:nw.dll
 0000:fffc4000       .debug$S                   10000000     nw:nw.dll
 0000:fffc4000       .debug$S                   10000000     nw:nw.dll
 0000:fffc4000       .debug$S                   10000000     nw:nw.dll
 0000:fffc4000       .debug$S                   10000000     nw:nw.dll
 0000:fffc4000       .debug$S                   10000000     nw:nw.dll
 0000:fffc4000       .debug$S                   10000000     nw:nw.dll
 0000:fffc4000       .debug$S                   10000000     nw:nw.dll
 0000:fffc4000       .debug$S                   10000000     msvcprt:MSVCP140.dll
 0000:fffc4000       .debug$S                   10000000     msvcprt:MSVCP140.dll
 0000:fffc4000       .debug$S                   10000000     msvcprt:MSVCP140.dll
 0000:fffc4000       .debug$S                   10000000     msvcprt:MSVCP140.dll
 0000:fffc4000       .debug$S                   10000000     msvcprt:MSVCP140.dll
 0000:fffc4000       .debug$S                   10000000     msvcprt:MSVCP140.dll
 0000:fffc4000       .debug$S                   10000000     msvcprt:MSVCP140.dll
 0000:fffc4000       .debug$S                   10000000     msvcprt:MSVCP140.dll
 0000:fffc4000       .debug$S                   10000000     msvcprt:MSVCP140.dll
 0000:fffc4000       .debug$S                   10000000     msvcprt:MSVCP140.dll
 0000:fffc4000       .debug$S                   10000000     msvcprt:MSVCP140.dll
 0000:fffc4000       .debug$S                   10000000     msvcprt:MSVCP140.dll
 0000:fffc4000       .debug$S                   10000000     msvcprt:MSVCP140.dll
 0000:fffc4000       .debug$S                   10000000     msvcprt:MSVCP140.dll
 0000:fffc4000       .debug$S                   10000000     msvcprt:MSVCP140.dll
 0000:fffc4000       .debug$S                   10000000     msvcprt:MSVCP140.dll
 0000:fffc4000       .debug$S                   10000000     msvcprt:MSVCP140.dll
 0000:fffc4000       .debug$S                   10000000     msvcprt:MSVCP140.dll
 0000:fffc4000       .debug$S                   10000000     msvcprt:MSVCP140.dll
 0000:fffc4000       .debug$S                   10000000     msvcprt:MSVCP140.dll
 0000:fffc4000       .debug$S                   10000000     msvcprt:MSVCP140.dll
 0000:fffc4000       .debug$S                   10000000     node:node.dll
 0000:fffc4000       .debug$S                   10000000     node:node.dll
 0000:fffc4000       .debug$S                   10000000     nw:nw.dll
 0000:fffc4000       .debug$S                   10000000     nw:nw.dll
 0000:fffc4000       .debug$S                   10000000     nw:nw.dll
 0000:fffc4000       .debug$S                   10000000     nw:nw.dll
 0000:fffc4000       .debug$S                   10000000     nw:nw.dll
 0000:fffc4000       .debug$S                   10000000     nw:nw.dll
 0000:fffc4000       .debug$S                   10000000     nw:nw.dll
 0000:fffc4000       .debug$S                   10000000     nw:nw.dll
 0000:fffc4000       .debug$S                   10000000     nw:nw.dll
 0000:fffc4000       .debug$S                   10000000     nw:nw.dll
 0000:fffc4000       .debug$S                   10000000     nw:nw.dll
 0000:fffc4000       .debug$S                   10000000     nw:nw.dll
 0000:fffc4000       .debug$S                   10000000     nw:nw.dll
 0000:fffc4000       .debug$S                   10000000     node:node.dll
 0000:fffc4000       .debug$S                   10000000     node:node.dll
 0000:fffc4000       .debug$S                   10000000     node:node.dll
 0000:fffc4000       .debug$S                   10000000     node:node.dll
 0000:fffc4000       .debug$S                   10000000     nw:nw.dll
 0000:fffc4000       .debug$S                   10000000     node:node.dll
 0000:fffc4000       .debug$S                   10000000     node:node.dll
 0000:fffc4000       .debug$S                   10000000     node:node.dll
 0000:fffc4000       .debug$S                   10000000     node:node.dll
 0000:fffc4000       .debug$S                   10000000     node:node.dll
 0000:fffc4000       .debug$S                   10000000     node:node.dll
 0000:fffc4000       .debug$S                   10000000     node:node.dll
 0000:fffc4000       .debug$S                   10000000     node:node.dll
 0000:fffc4000       .debug$S                   10000000     node:node.dll
 0000:fffc4000       .debug$S                   10000000     node:node.dll
 0000:fffc4000       .debug$S                   10000000     node:node.dll
 0000:fffc4000       .debug$S                   10000000     node:node.dll
 0001:00000000       ??__Eg_c_locale@details@utility@@YAXXZ 10001000 f   asyncrt_utils.obj
 0001:00000010       ??__Erid@@YAXXZ            10001010 f   deps_format.obj
 0001:0000001c       ??__E_Fac_tidy_reg@std@@YAXXZ 1000101c f   msvcprt:locale0_implib.obj
 0001:00000240       ?FunctionCallbackWrapper@imp@Nan@@YAXABV?$FunctionCallbackInfo@VValue@v8@@@v8@@@Z 10001240 f   edge.obj
 0001:00000240       ?FunctionCallbackWrapper@imp@Nan@@YAXABV?$FunctionCallbackInfo@VValue@v8@@@v8@@@Z 10001240 f   callbackhelper.obj
 0001:00000570       ?NoOpFunction@@YAXABV?$FunctionCallbackInfo@VValue@v8@@@Nan@@@Z 10001570 f   callbackhelper.obj
 0001:00000570       ?<lambda_invoker_cdecl>@<lambda_3dfaf8b64b7cf2fc5b172c7928b3e65e>@@CAXPAPAU__crt_locale_pointers@@@Z 10001570 f   asyncrt_utils.obj
 0001:00000ad0       __register_edge_coreclr    10001ad0 f   edge.obj
 0001:00005d05       __catch$??0?$vector@V?$basic_string@_WU?$char_traits@_W@std@@V?$allocator@_W@2@@std@@V?$allocator@V?$basic_string@_WU?$char_traits@_W@std@@V?$allocator@_W@2@@std@@@2@@std@@QAE@ABV01@@Z$0 10006d05 f i coreclrembedding.obj
 0001:000077a7       __catch$??$_Emplace_reallocate@ABV?$basic_string@_WU?$char_traits@_W@std@@V?$allocator@_W@2@@std@@@?$vector@V?$basic_string@_WU?$char_traits@_W@std@@V?$allocator@_W@2@@std@@V?$allocator@V?$basic_string@_WU?$char_traits@_W@std@@V?$allocator@_W@2@@std@@@2@@std@@QAEPAV?$basic_string@_WU?$char_traits@_W@std@@V?$allocator@_W@2@@1@QAV21@ABV21@@Z$0 100087a7 f i coreclrembedding.obj
 0001:00009210       $LN53                      1000a210     coreclrfunc.obj
 0001:0000b9cd       __catch$??$_Insert@AAU?$pair@$$CBV?$basic_string@_WU?$char_traits@_W@std@@V?$allocator@_W@2@@std@@V?$vector@V?$basic_string@_WU?$char_traits@_W@std@@V?$allocator@_W@2@@std@@V?$allocator@V?$basic_string@_WU?$char_traits@_W@std@@V?$allocator@_W@2@@std@@@2@@2@@std@@V?$_List_unchecked_iterator@V?$_List_val@U?$_List_simple_types@U?$pair@$$CBV?$basic_string@_WU?$char_traits@_W@std@@V?$allocator@_W@2@@std@@V?$vector@V?$basic_string@_WU?$char_traits@_W@std@@V?$allocator@_W@2@@std@@V?$allocator@V?$basic_string@_WU?$char_traits@_W@std@@V?$allocator@_W@2@@std@@@2@@2@@std@@@std@@@std@@@2@@?$_Hash@V?$_Umap_traits@V?$basic_string@_WU?$char_traits@_W@std@@V?$allocator@_W@2@@std@@V?$vector@V?$basic_string@_WU?$char_traits@_W@std@@V?$allocator@_W@2@@std@@V?$allocator@V?$basic_string@_WU?$char_traits@_W@std@@V?$allocator@_W@2@@std@@@2@@2@V?$_Uhash_compare@V?$basic_string@_WU?$char_traits@_W@std@@V?$allocator@_W@2@@std@@U?$hash@V?$basic_string@_WU?$char_traits@_W@std@@V?$allocator@_W@2@@std@@@2@U?$equal_to@V?$basic_string@_WU?$char_traits@_W@std@@V?$allocator@_W@2@@std@@@2@@2@V?$allocator@U?$pair@$$CBV?$basic_string@_WU?$char_traits@_W@std@@V?$allocator@_W@2@@std@@V?$vector@V?$basic_string@_WU?$char_traits@_W@std@@V?$allocator@_W@2@@std@@V?$allocator@V?$basic_string@_WU?$char_traits@_W@std@@V?$allocator@_W@2@@std@@@2@@2@@std@@@2@$0A@@std@@@std@@IAE?AU?$pair@V?$_List_iterator@V?$_List_val@U?$_List_simple_types@U?$pair@$$CBV?$basic_string@_WU?$char_traits@_W@std@@V?$allocator@_W@2@@std@@V?$vector@V?$basic_string@_WU?$char_traits@_W@std@@V?$allocator@_W@2@@std@@V?$allocator@V?$basic_string@_WU?$char_traits@_W@std@@V?$allocator@_W@2@@std@@@2@@2@@std@@@std@@@std@@@std@@_N@1@AAU?$pair@$$CBV?$basic_string@_WU?$char_traits@_W@std@@V?$allocator@_W@2@@std@@V?$vector@V?$basic_string@_WU?$char_traits@_W@std@@V?$allocator@_W@2@@std@@V?$allocator@V?$basic_string@_WU?$char_traits@_W@std@@V?$allocator@_W@2@@std@@@2@@2@@1@V?$_List_unchecked_iterator@V?$_List_val@U?$_List_simple_types@U?$pair@$$CBV?$basic_string@_WU?$char_traits@_W@std@@V?$allocator@_W@2@@std@@V?$vector@V?$basic_string@_WU?$char_traits@_W@std@@V?$allocator@_W@2@@std@@V?$allocator@V?$basic_string@_WU?$char_traits@_W@std@@V?$allocator@_W@2@@std@@@2@@2@@std@@@std@@@std@@@1@@Z$2 1000c9cd f i pal_utils.obj
 0001:0000ba78       __catch$??$_Buynode@ABUpiecewise_construct_t@std@@V?$tuple@ABV?$basic_string@_WU?$char_traits@_W@std@@V?$allocator@_W@2@@std@@@2@V?$tuple@$$V@2@@?$_List_buy@U?$pair@$$CBV?$basic_string@_WU?$char_traits@_W@std@@V?$allocator@_W@2@@std@@V?$vector@V?$basic_string@_WU?$char_traits@_W@std@@V?$allocator@_W@2@@std@@V?$allocator@V?$basic_string@_WU?$char_traits@_W@std@@V?$allocator@_W@2@@std@@@2@@2@@std@@V?$allocator@U?$pair@$$CBV?$basic_string@_WU?$char_traits@_W@std@@V?$allocator@_W@2@@std@@V?$vector@V?$basic_string@_WU?$char_traits@_W@std@@V?$allocator@_W@2@@std@@V?$allocator@V?$basic_string@_WU?$char_traits@_W@std@@V?$allocator@_W@2@@std@@@2@@2@@std@@@2@@std@@QAEPAU?$_List_node@U?$pair@$$CBV?$basic_string@_WU?$char_traits@_W@std@@V?$allocator@_W@2@@std@@V?$vector@V?$basic_string@_WU?$char_traits@_W@std@@V?$allocator@_W@2@@std@@V?$allocator@V?$basic_string@_WU?$char_traits@_W@std@@V?$allocator@_W@2@@std@@@2@@2@@std@@PAX@1@PAU21@0ABUpiecewise_construct_t@1@$$QAV?$tuple@ABV?$basic_string@_WU?$char_traits@_W@std@@V?$allocator@_W@2@@std@@@1@$$QAV?$tuple@$$V@1@@Z$0 1000ca78 f i pal_utils.obj
 0001:0000d651       __catch$??$?6_WU?$char_traits@_W@std@@@std@@YAAAV?$basic_ostream@_WU?$char_traits@_W@std@@@0@AAV10@PB_W@Z$0 1000e651 f i fx_ver.obj
 0001:0000d88d       __catch$??$_Insert_string@_WU?$char_traits@_W@std@@I@std@@YAAAV?$basic_ostream@_WU?$char_traits@_W@std@@@0@AAV10@QB_WI@Z$0 1000e88d f i fx_ver.obj
 0001:0000ea00       __catch$?resolve_cli_version@fx_muxer_t@@CA?AV?$basic_string@_WU?$char_traits@_W@std@@V?$allocator@_W@2@@std@@ABV23@@Z$0 1000fa00 f   fx_muxer.obj
 0001:00010a30       $LN309                     10011a30     json.obj
 0001:00011400       ?_Get@?$_Func_impl_no_alloc@V<lambda_ffcad74291753b6e7369b88f30583b26>@@_NABV?$basic_string@_WU?$char_traits@_W@std@@V?$allocator@_W@2@@std@@@std@@EBEPBXXZ 10012400 f i deps_format.obj
 0001:00011400       ?_Get@?$_Func_impl_no_alloc@V<lambda_18b84c981f36bcffa50a1cc20b29763a>@@_NABV?$basic_string@_WU?$char_traits@_W@std@@V?$allocator@_W@2@@std@@@std@@EBEPBXXZ 10012400 f i deps_format.obj
 0001:00011400       ?_Get@?$_Func_impl_no_alloc@V<lambda_0da8eb3d682bd04afe137e5d5bb4c0f1>@@ABV?$vector@V?$basic_string@_WU?$char_traits@_W@std@@V?$allocator@_W@2@@std@@V?$allocator@V?$basic_string@_WU?$char_traits@_W@std@@V?$allocator@_W@2@@std@@@2@@std@@ABV?$basic_string@_WU?$char_traits@_W@std@@V?$allocator@_W@2@@3@HPA_N@std@@EBEPBXXZ 10012400 f i deps_format.obj
 0001:00011400       ?_Get@?$_Func_impl_no_alloc@V<lambda_4cf1a043bca302a229a9e21dced1c4a6>@@V?$basic_string@_WU?$char_traits@_W@std@@V?$allocator@_W@2@@std@@ABV23@@std@@EBEPBXXZ 10012400 f i deps_resolver.obj
 0001:00011400       ?_Get@?$_Func_impl_no_alloc@V<lambda_82ef3072f71ed8c4e91298afae00be99>@@V?$basic_string@_WU?$char_traits@_W@std@@V?$allocator@_W@2@@std@@ABV23@@std@@EBEPBXXZ 10012400 f i deps_resolver.obj
 0001:00011400       ?_Get@?$_Func_impl_no_alloc@V<lambda_1bf788b2043b7336c06a058b67753ba4>@@ABV?$vector@V?$basic_string@_WU?$char_traits@_W@std@@V?$allocator@_W@2@@std@@V?$allocator@V?$basic_string@_WU?$char_traits@_W@std@@V?$allocator@_W@2@@std@@@2@@std@@ABV?$basic_string@_WU?$char_traits@_W@std@@V?$allocator@_W@2@@3@HPA_N@std@@EBEPBXXZ 10012400 f i deps_format.obj
 0001:00012327       __catch$??$_Resize@V<lambda_78f2db8de09dca8a4d752f953ffc629b>@@@?$vector@Vvalue@json@web@@V?$allocator@Vvalue@json@web@@@std@@@std@@AAEXIV<lambda_78f2db8de09dca8a4d752f953ffc629b>@@@Z$0 10013327 f i json.obj
 0001:00012639       __catch$??0?$vector@Vvalue@json@web@@V?$allocator@Vvalue@json@web@@@std@@@std@@QAE@ABV01@@Z$0 10013639 f i json.obj
 0001:00012791       __catch$??0?$vector@U?$pair@V?$basic_string@_WU?$char_traits@_W@std@@V?$allocator@_W@2@@std@@Vvalue@json@web@@@std@@V?$allocator@U?$pair@V?$basic_string@_WU?$char_traits@_W@std@@V?$allocator@_W@2@@std@@Vvalue@json@web@@@std@@@2@@std@@QAE@ABV01@@Z$0 10013791 f i json.obj
 0001:00013f80       ?_parse_narrow_stream@@YA?AVvalue@json@web@@AAV?$basic_istream@DU?$char_traits@D@std@@@std@@@Z 10014f80 f   json_parsing.obj
 0001:000144b4       $LN88                      100154b4     json_parsing.obj
 0001:000144e0       $LN84                      100154e0     json_parsing.obj
 0001:000148e8       $LN891                     100158e8     json_parsing.obj
 0001:000150c8       $LN221                     100160c8     json_parsing.obj
 0001:000150f0       $LN215                     100160f0     json_parsing.obj
 0001:00016f98       $LN507                     10017f98     json_serialization.obj
 0001:00016fb8       $LN502                     10017fb8     json_serialization.obj
 0001:00017140       $LN98                      10018140     json_serialization.obj
 0001:00017160       $LN96                      10018160     json_serialization.obj
 0001:00017450       ?<lambda_invoker_cdecl>@<lambda_0a2ba8c08cc74a783f7c776120da53a3>@@CAXPAPAU__crt_locale_pointers@@@Z 10018450 f   asyncrt_utils.obj
 0001:000179ce       __catch$??$_Callback_once@V?$tuple@$$QAV<lambda_0825b44a8adc79b986e9f2ddd1b20dad>@@AAVexception_ptr@std@@@std@@U?$integer_sequence@I$0A@@2@$00@std@@YGHPAX0PAPAX@Z$0 100189ce f i asyncrt_utils.obj
 0001:00019981       __catch$?load@deps_json_t@@AAE_N_NABV?$basic_string@_WU?$char_traits@_W@std@@V?$allocator@_W@2@@std@@ABV?$unordered_map@V?$basic_string@_WU?$char_traits@_W@std@@V?$allocator@_W@2@@std@@V?$vector@V?$basic_string@_WU?$char_traits@_W@std@@V?$allocator@_W@2@@std@@V?$allocator@V?$basic_string@_WU?$char_traits@_W@std@@V?$allocator@_W@2@@std@@@2@@2@U?$hash@V?$basic_string@_WU?$char_traits@_W@std@@V?$allocator@_W@2@@std@@@2@U?$equal_to@V?$basic_string@_WU?$char_traits@_W@std@@V?$allocator@_W@2@@std@@@2@V?$allocator@U?$pair@$$CBV?$basic_string@_WU?$char_traits@_W@std@@V?$allocator@_W@2@@std@@V?$vector@V?$basic_string@_WU?$char_traits@_W@std@@V?$allocator@_W@2@@std@@V?$allocator@V?$basic_string@_WU?$char_traits@_W@std@@V?$allocator@_W@2@@std@@@2@@2@@std@@@2@@3@@Z$0 1001a981 f   deps_format.obj
 0001:00019f28       __catch$??$_Emplace_reallocate@ABUdeps_entry_t@@@?$vector@Udeps_entry_t@@V?$allocator@Udeps_entry_t@@@std@@@std@@QAEPAUdeps_entry_t@@QAU2@ABU2@@Z$0 1001af28 f i deps_format.obj
 0001:0001a0f0       ?_Delete_this@?$_Func_impl_no_alloc@V<lambda_4cf1a043bca302a229a9e21dced1c4a6>@@V?$basic_string@_WU?$char_traits@_W@std@@V?$allocator@_W@2@@std@@ABV23@@std@@EAEX_N@Z 1001b0f0 f   deps_resolver.obj
 0001:0001a0f0       ?_Delete_this@?$_Func_impl_no_alloc@V<lambda_ffcad74291753b6e7369b88f30583b26>@@_NABV?$basic_string@_WU?$char_traits@_W@std@@V?$allocator@_W@2@@std@@@std@@EAEX_N@Z 1001b0f0 f   deps_format.obj
 0001:0001a0f0       ?_Delete_this@?$_Func_impl_no_alloc@V<lambda_1bf788b2043b7336c06a058b67753ba4>@@ABV?$vector@V?$basic_string@_WU?$char_traits@_W@std@@V?$allocator@_W@2@@std@@V?$allocator@V?$basic_string@_WU?$char_traits@_W@std@@V?$allocator@_W@2@@std@@@2@@std@@ABV?$basic_string@_WU?$char_traits@_W@std@@V?$allocator@_W@2@@3@HPA_N@std@@EAEX_N@Z 1001b0f0 f   deps_format.obj
 0001:0001a0f0       ?_Delete_this@?$_Func_impl_no_alloc@V<lambda_18b84c981f36bcffa50a1cc20b29763a>@@_NABV?$basic_string@_WU?$char_traits@_W@std@@V?$allocator@_W@2@@std@@@std@@EAEX_N@Z 1001b0f0 f   deps_format.obj
 0001:0001a0f0       ?_Delete_this@?$_Func_impl_no_alloc@V<lambda_82ef3072f71ed8c4e91298afae00be99>@@V?$basic_string@_WU?$char_traits@_W@std@@V?$allocator@_W@2@@std@@ABV23@@std@@EAEX_N@Z 1001b0f0 f   deps_resolver.obj
 0001:0001a110       ?_Target_type@?$_Func_impl_no_alloc@V<lambda_1bf788b2043b7336c06a058b67753ba4>@@ABV?$vector@V?$basic_string@_WU?$char_traits@_W@std@@V?$allocator@_W@2@@std@@V?$allocator@V?$basic_string@_WU?$char_traits@_W@std@@V?$allocator@_W@2@@std@@@2@@std@@ABV?$basic_string@_WU?$char_traits@_W@std@@V?$allocator@_W@2@@3@HPA_N@std@@EBEABVtype_info@@XZ 1001b110 f   deps_format.obj
 0001:0001a120       ?_Copy@?$_Func_impl_no_alloc@V<lambda_1bf788b2043b7336c06a058b67753ba4>@@ABV?$vector@V?$basic_string@_WU?$char_traits@_W@std@@V?$allocator@_W@2@@std@@V?$allocator@V?$basic_string@_WU?$char_traits@_W@std@@V?$allocator@_W@2@@std@@@2@@std@@ABV?$basic_string@_WU?$char_traits@_W@std@@V?$allocator@_W@2@@3@HPA_N@std@@EBEPAV?$_Func_base@ABV?$vector@V?$basic_string@_WU?$char_traits@_W@std@@V?$allocator@_W@2@@std@@V?$allocator@V?$basic_string@_WU?$char_traits@_W@std@@V?$allocator@_W@2@@std@@@2@@std@@ABV?$basic_string@_WU?$char_traits@_W@std@@V?$allocator@_W@2@@2@HPA_N@2@PAX@Z 1001b120 f   deps_format.obj
 0001:0001a120       ?_Move@?$_Func_impl_no_alloc@V<lambda_1bf788b2043b7336c06a058b67753ba4>@@ABV?$vector@V?$basic_string@_WU?$char_traits@_W@std@@V?$allocator@_W@2@@std@@V?$allocator@V?$basic_string@_WU?$char_traits@_W@std@@V?$allocator@_W@2@@std@@@2@@std@@ABV?$basic_string@_WU?$char_traits@_W@std@@V?$allocator@_W@2@@3@HPA_N@std@@EAEPAV?$_Func_base@ABV?$vector@V?$basic_string@_WU?$char_traits@_W@std@@V?$allocator@_W@2@@std@@V?$allocator@V?$basic_string@_WU?$char_traits@_W@std@@V?$allocator@_W@2@@std@@@2@@std@@ABV?$basic_string@_WU?$char_traits@_W@std@@V?$allocator@_W@2@@2@HPA_N@2@PAX@Z 1001b120 f   deps_format.obj
 0001:0001a140       ?_Target_type@?$_Func_impl_no_alloc@V<lambda_ffcad74291753b6e7369b88f30583b26>@@_NABV?$basic_string@_WU?$char_traits@_W@std@@V?$allocator@_W@2@@std@@@std@@EBEABVtype_info@@XZ 1001b140 f   deps_format.obj
 0001:0001a150       ?_Move@?$_Func_impl_no_alloc@V<lambda_ffcad74291753b6e7369b88f30583b26>@@_NABV?$basic_string@_WU?$char_traits@_W@std@@V?$allocator@_W@2@@std@@@std@@EAEPAV?$_Func_base@_NABV?$basic_string@_WU?$char_traits@_W@std@@V?$allocator@_W@2@@std@@@2@PAX@Z 1001b150 f   deps_format.obj
 0001:0001a150       ?_Copy@?$_Func_impl_no_alloc@V<lambda_ffcad74291753b6e7369b88f30583b26>@@_NABV?$basic_string@_WU?$char_traits@_W@std@@V?$allocator@_W@2@@std@@@std@@EBEPAV?$_Func_base@_NABV?$basic_string@_WU?$char_traits@_W@std@@V?$allocator@_W@2@@std@@@2@PAX@Z 1001b150 f   deps_format.obj
 0001:0001a170       ?_Delete_this@?$_Func_impl_no_alloc@V<lambda_0da8eb3d682bd04afe137e5d5bb4c0f1>@@ABV?$vector@V?$basic_string@_WU?$char_traits@_W@std@@V?$allocator@_W@2@@std@@V?$allocator@V?$basic_string@_WU?$char_traits@_W@std@@V?$allocator@_W@2@@std@@@2@@std@@ABV?$basic_string@_WU?$char_traits@_W@std@@V?$allocator@_W@2@@3@HPA_N@std@@EAEX_N@Z 1001b170 f   deps_format.obj
 0001:0001a190       ?_Target_type@?$_Func_impl_no_alloc@V<lambda_0da8eb3d682bd04afe137e5d5bb4c0f1>@@ABV?$vector@V?$basic_string@_WU?$char_traits@_W@std@@V?$allocator@_W@2@@std@@V?$allocator@V?$basic_string@_WU?$char_traits@_W@std@@V?$allocator@_W@2@@std@@@2@@std@@ABV?$basic_string@_WU?$char_traits@_W@std@@V?$allocator@_W@2@@3@HPA_N@std@@EBEABVtype_info@@XZ 1001b190 f   deps_format.obj
 0001:0001a1a0       ?_Move@?$_Func_impl_no_alloc@V<lambda_0da8eb3d682bd04afe137e5d5bb4c0f1>@@ABV?$vector@V?$basic_string@_WU?$char_traits@_W@std@@V?$allocator@_W@2@@std@@V?$allocator@V?$basic_string@_WU?$char_traits@_W@std@@V?$allocator@_W@2@@std@@@2@@std@@ABV?$basic_string@_WU?$char_traits@_W@std@@V?$allocator@_W@2@@3@HPA_N@std@@EAEPAV?$_Func_base@ABV?$vector@V?$basic_string@_WU?$char_traits@_W@std@@V?$allocator@_W@2@@std@@V?$allocator@V?$basic_string@_WU?$char_traits@_W@std@@V?$allocator@_W@2@@std@@@2@@std@@ABV?$basic_string@_WU?$char_traits@_W@std@@V?$allocator@_W@2@@2@HPA_N@2@PAX@Z 1001b1a0 f   deps_format.obj
 0001:0001a1a0       ?_Copy@?$_Func_impl_no_alloc@V<lambda_0da8eb3d682bd04afe137e5d5bb4c0f1>@@ABV?$vector@V?$basic_string@_WU?$char_traits@_W@std@@V?$allocator@_W@2@@std@@V?$allocator@V?$basic_string@_WU?$char_traits@_W@std@@V?$allocator@_W@2@@std@@@2@@std@@ABV?$basic_string@_WU?$char_traits@_W@std@@V?$allocator@_W@2@@3@HPA_N@std@@EBEPAV?$_Func_base@ABV?$vector@V?$basic_string@_WU?$char_traits@_W@std@@V?$allocator@_W@2@@std@@V?$allocator@V?$basic_string@_WU?$char_traits@_W@std@@V?$allocator@_W@2@@std@@@2@@std@@ABV?$basic_string@_WU?$char_traits@_W@std@@V?$allocator@_W@2@@2@HPA_N@2@PAX@Z 1001b1a0 f   deps_format.obj
 0001:0001a1c0       ?_Target_type@?$_Func_impl_no_alloc@V<lambda_18b84c981f36bcffa50a1cc20b29763a>@@_NABV?$basic_string@_WU?$char_traits@_W@std@@V?$allocator@_W@2@@std@@@std@@EBEABVtype_info@@XZ 1001b1c0 f   deps_format.obj
 0001:0001a1d0       ?_Copy@?$_Func_impl_no_alloc@V<lambda_18b84c981f36bcffa50a1cc20b29763a>@@_NABV?$basic_string@_WU?$char_traits@_W@std@@V?$allocator@_W@2@@std@@@std@@EBEPAV?$_Func_base@_NABV?$basic_string@_WU?$char_traits@_W@std@@V?$allocator@_W@2@@std@@@2@PAX@Z 1001b1d0 f   deps_format.obj
 0001:0001a1d0       ?_Move@?$_Func_impl_no_alloc@V<lambda_18b84c981f36bcffa50a1cc20b29763a>@@_NABV?$basic_string@_WU?$char_traits@_W@std@@V?$allocator@_W@2@@std@@@std@@EAEPAV?$_Func_base@_NABV?$basic_string@_WU?$char_traits@_W@std@@V?$allocator@_W@2@@std@@@2@PAX@Z 1001b1d0 f   deps_format.obj
 0001:0001a1f0       ?_Do_call@?$_Func_impl_no_alloc@V<lambda_18b84c981f36bcffa50a1cc20b29763a>@@_NABV?$basic_string@_WU?$char_traits@_W@std@@V?$allocator@_W@2@@std@@@std@@EAE_NABV?$basic_string@_WU?$char_traits@_W@std@@V?$allocator@_W@2@@2@@Z 1001b1f0 f   deps_format.obj
 0001:0001a260       ?_Do_call@?$_Func_impl_no_alloc@V<lambda_0da8eb3d682bd04afe137e5d5bb4c0f1>@@ABV?$vector@V?$basic_string@_WU?$char_traits@_W@std@@V?$allocator@_W@2@@std@@V?$allocator@V?$basic_string@_WU?$char_traits@_W@std@@V?$allocator@_W@2@@std@@@2@@std@@ABV?$basic_string@_WU?$char_traits@_W@std@@V?$allocator@_W@2@@3@HPA_N@std@@EAEABV?$vector@V?$basic_string@_WU?$char_traits@_W@std@@V?$allocator@_W@2@@std@@V?$allocator@V?$basic_string@_WU?$char_traits@_W@std@@V?$allocator@_W@2@@std@@@2@@2@ABV?$basic_string@_WU?$char_traits@_W@std@@V?$allocator@_W@2@@2@$$QAH$$QAPA_N@Z 1001b260 f   deps_format.obj
 0001:0001a370       ?_Do_call@?$_Func_impl_no_alloc@V<lambda_ffcad74291753b6e7369b88f30583b26>@@_NABV?$basic_string@_WU?$char_traits@_W@std@@V?$allocator@_W@2@@std@@@std@@EAE_NABV?$basic_string@_WU?$char_traits@_W@std@@V?$allocator@_W@2@@2@@Z 1001b370 f   deps_format.obj
 0001:0001a3b0       ?_Do_call@?$_Func_impl_no_alloc@V<lambda_1bf788b2043b7336c06a058b67753ba4>@@ABV?$vector@V?$basic_string@_WU?$char_traits@_W@std@@V?$allocator@_W@2@@std@@V?$allocator@V?$basic_string@_WU?$char_traits@_W@std@@V?$allocator@_W@2@@std@@@2@@std@@ABV?$basic_string@_WU?$char_traits@_W@std@@V?$allocator@_W@2@@3@HPA_N@std@@EAEABV?$vector@V?$basic_string@_WU?$char_traits@_W@std@@V?$allocator@_W@2@@std@@V?$allocator@V?$basic_string@_WU?$char_traits@_W@std@@V?$allocator@_W@2@@std@@@2@@2@ABV?$basic_string@_WU?$char_traits@_W@std@@V?$allocator@_W@2@@2@$$QAH$$QAPA_N@Z 1001b3b0 f   deps_format.obj
 0001:0001a617       __catch$??$_Insert@AAU?$pair@$$CBV?$basic_string@_WU?$char_traits@_W@std@@V?$allocator@_W@2@@std@@H@std@@V?$_List_unchecked_iterator@V?$_List_val@U?$_List_simple_types@U?$pair@$$CBV?$basic_string@_WU?$char_traits@_W@std@@V?$allocator@_W@2@@std@@H@std@@@std@@@std@@@2@@?$_Hash@V?$_Umap_traits@V?$basic_string@_WU?$char_traits@_W@std@@V?$allocator@_W@2@@std@@HV?$_Uhash_compare@V?$basic_string@_WU?$char_traits@_W@std@@V?$allocator@_W@2@@std@@U?$hash@V?$basic_string@_WU?$char_traits@_W@std@@V?$allocator@_W@2@@std@@@2@U?$equal_to@V?$basic_string@_WU?$char_traits@_W@std@@V?$allocator@_W@2@@std@@@2@@2@V?$allocator@U?$pair@$$CBV?$basic_string@_WU?$char_traits@_W@std@@V?$allocator@_W@2@@std@@H@std@@@2@$0A@@std@@@std@@IAE?AU?$pair@V?$_List_iterator@V?$_List_val@U?$_List_simple_types@U?$pair@$$CBV?$basic_string@_WU?$char_traits@_W@std@@V?$allocator@_W@2@@std@@H@std@@@std@@@std@@@std@@_N@1@AAU?$pair@$$CBV?$basic_string@_WU?$char_traits@_W@std@@V?$allocator@_W@2@@std@@H@1@V?$_List_unchecked_iterator@V?$_List_val@U?$_List_simple_types@U?$pair@$$CBV?$basic_string@_WU?$char_traits@_W@std@@V?$allocator@_W@2@@std@@H@std@@@std@@@std@@@1@@Z$2 1001b617 f i deps_format.obj
 0001:0001a87d       __catch$??$_Insert@AAU?$pair@$$CBV?$basic_string@_WU?$char_traits@_W@std@@V?$allocator@_W@2@@std@@Urid_assets_t@deps_json_t@@@std@@V?$_List_unchecked_iterator@V?$_List_val@U?$_List_simple_types@U?$pair@$$CBV?$basic_string@_WU?$char_traits@_W@std@@V?$allocator@_W@2@@std@@Urid_assets_t@deps_json_t@@@std@@@std@@@std@@@2@@?$_Hash@V?$_Umap_traits@V?$basic_string@_WU?$char_traits@_W@std@@V?$allocator@_W@2@@std@@Urid_assets_t@deps_json_t@@V?$_Uhash_compare@V?$basic_string@_WU?$char_traits@_W@std@@V?$allocator@_W@2@@std@@U?$hash@V?$basic_string@_WU?$char_traits@_W@std@@V?$allocator@_W@2@@std@@@2@U?$equal_to@V?$basic_string@_WU?$char_traits@_W@std@@V?$allocator@_W@2@@std@@@2@@2@V?$allocator@U?$pair@$$CBV?$basic_string@_WU?$char_traits@_W@std@@V?$allocator@_W@2@@std@@Urid_assets_t@deps_json_t@@@std@@@2@$0A@@std@@@std@@IAE?AU?$pair@V?$_List_iterator@V?$_List_val@U?$_List_simple_types@U?$pair@$$CBV?$basic_string@_WU?$char_traits@_W@std@@V?$allocator@_W@2@@std@@Urid_assets_t@deps_json_t@@@std@@@std@@@std@@@std@@_N@1@AAU?$pair@$$CBV?$basic_string@_WU?$char_traits@_W@std@@V?$allocator@_W@2@@std@@Urid_assets_t@deps_json_t@@@1@V?$_List_unchecked_iterator@V?$_List_val@U?$_List_simple_types@U?$pair@$$CBV?$basic_string@_WU?$char_traits@_W@std@@V?$allocator@_W@2@@std@@Urid_assets_t@deps_json_t@@@std@@@std@@@std@@@1@@Z$2 1001b87d f i deps_format.obj
 0001:0001aaed       __catch$??$_Insert@AAU?$pair@$$CBV?$basic_string@_WU?$char_traits@_W@std@@V?$allocator@_W@2@@std@@Uassets_t@deps_json_t@@@std@@V?$_List_unchecked_iterator@V?$_List_val@U?$_List_simple_types@U?$pair@$$CBV?$basic_string@_WU?$char_traits@_W@std@@V?$allocator@_W@2@@std@@Uassets_t@deps_json_t@@@std@@@std@@@std@@@2@@?$_Hash@V?$_Umap_traits@V?$basic_string@_WU?$char_traits@_W@std@@V?$allocator@_W@2@@std@@Uassets_t@deps_json_t@@V?$_Uhash_compare@V?$basic_string@_WU?$char_traits@_W@std@@V?$allocator@_W@2@@std@@U?$hash@V?$basic_string@_WU?$char_traits@_W@std@@V?$allocator@_W@2@@std@@@2@U?$equal_to@V?$basic_string@_WU?$char_traits@_W@std@@V?$allocator@_W@2@@std@@@2@@2@V?$allocator@U?$pair@$$CBV?$basic_string@_WU?$char_traits@_W@std@@V?$allocator@_W@2@@std@@Uassets_t@deps_json_t@@@std@@@2@$0A@@std@@@std@@IAE?AU?$pair@V?$_List_iterator@V?$_List_val@U?$_List_simple_types@U?$pair@$$CBV?$basic_string@_WU?$char_traits@_W@std@@V?$allocator@_W@2@@std@@Uassets_t@deps_json_t@@@std@@@std@@@std@@@std@@_N@1@AAU?$pair@$$CBV?$basic_string@_WU?$char_traits@_W@std@@V?$allocator@_W@2@@std@@Uassets_t@deps_json_t@@@1@V?$_List_unchecked_iterator@V?$_List_val@U?$_List_simple_types@U?$pair@$$CBV?$basic_string@_WU?$char_traits@_W@std@@V?$allocator@_W@2@@std@@Uassets_t@deps_json_t@@@std@@@std@@@std@@@1@@Z$2 1001baed f i deps_format.obj
 0001:0001ab8a       __catch$??$_Buynode@ABUpiecewise_construct_t@std@@V?$tuple@ABV?$basic_string@_WU?$char_traits@_W@std@@V?$allocator@_W@2@@std@@@2@V?$tuple@$$V@2@@?$_List_buy@U?$pair@$$CBV?$basic_string@_WU?$char_traits@_W@std@@V?$allocator@_W@2@@std@@H@std@@V?$allocator@U?$pair@$$CBV?$basic_string@_WU?$char_traits@_W@std@@V?$allocator@_W@2@@std@@H@std@@@2@@std@@QAEPAU?$_List_node@U?$pair@$$CBV?$basic_string@_WU?$char_traits@_W@std@@V?$allocator@_W@2@@std@@H@std@@PAX@1@PAU21@0ABUpiecewise_construct_t@1@$$QAV?$tuple@ABV?$basic_string@_WU?$char_traits@_W@std@@V?$allocator@_W@2@@std@@@1@$$QAV?$tuple@$$V@1@@Z$0 1001bb8a f i deps_format.obj
 0001:0001acd1       __catch$??$_Buynode@ABUpiecewise_construct_t@std@@V?$tuple@ABV?$basic_string@_WU?$char_traits@_W@std@@V?$allocator@_W@2@@std@@@2@V?$tuple@$$V@2@@?$_List_buy@U?$pair@$$CBV?$basic_string@_WU?$char_traits@_W@std@@V?$allocator@_W@2@@std@@Urid_assets_t@deps_json_t@@@std@@V?$allocator@U?$pair@$$CBV?$basic_string@_WU?$char_traits@_W@std@@V?$allocator@_W@2@@std@@Urid_assets_t@deps_json_t@@@std@@@2@@std@@QAEPAU?$_List_node@U?$pair@$$CBV?$basic_string@_WU?$char_traits@_W@std@@V?$allocator@_W@2@@std@@Urid_assets_t@deps_json_t@@@std@@PAX@1@PAU21@0ABUpiecewise_construct_t@1@$$QAV?$tuple@ABV?$basic_string@_WU?$char_traits@_W@std@@V?$allocator@_W@2@@std@@@1@$$QAV?$tuple@$$V@1@@Z$0 1001bcd1 f i deps_format.obj
 0001:0001ae3f       __catch$??$_Buynode@ABUpiecewise_construct_t@std@@V?$tuple@ABV?$basic_string@_WU?$char_traits@_W@std@@V?$allocator@_W@2@@std@@@2@V?$tuple@$$V@2@@?$_List_buy@U?$pair@$$CBV?$basic_string@_WU?$char_traits@_W@std@@V?$allocator@_W@2@@std@@Uassets_t@deps_json_t@@@std@@V?$allocator@U?$pair@$$CBV?$basic_string@_WU?$char_traits@_W@std@@V?$allocator@_W@2@@std@@Uassets_t@deps_json_t@@@std@@@2@@std@@QAEPAU?$_List_node@U?$pair@$$CBV?$basic_string@_WU?$char_traits@_W@std@@V?$allocator@_W@2@@std@@Uassets_t@deps_json_t@@@std@@PAX@1@PAU21@0ABUpiecewise_construct_t@1@$$QAV?$tuple@ABV?$basic_string@_WU?$char_traits@_W@std@@V?$allocator@_W@2@@std@@@1@$$QAV?$tuple@$$V@1@@Z$0 1001be3f f i deps_format.obj
 0001:0001bf51       __catch$??$_Construct@V?$istreambuf_iterator@DU?$char_traits@D@std@@@std@@@?$basic_string@DU?$char_traits@D@std@@V?$allocator@D@2@@std@@QAEXV?$istreambuf_iterator@DU?$char_traits@D@std@@@1@V21@Uinput_iterator_tag@1@@Z$0 1001cf51 f i deps_entry.obj
 0001:0001bf70       ?add_tpa_asset@?A0xa0b67cc8@@YAXABV?$basic_string@_WU?$char_traits@_W@std@@V?$allocator@_W@2@@std@@0PAV?$unordered_set@V?$basic_string@_WU?$char_traits@_W@std@@V?$allocator@_W@2@@std@@U?$hash@V?$basic_string@_WU?$char_traits@_W@std@@V?$allocator@_W@2@@std@@@2@U?$equal_to@V?$basic_string@_WU?$char_traits@_W@std@@V?$allocator@_W@2@@std@@@2@V?$allocator@V?$basic_string@_WU?$char_traits@_W@std@@V?$allocator@_W@2@@std@@@2@@3@PAV23@@Z 1001cf70 f   deps_resolver.obj
 0001:0001c0b0       ?add_unique_path@?A0xa0b67cc8@@YAXW4asset_types@deps_entry_t@@ABV?$basic_string@_WU?$char_traits@_W@std@@V?$allocator@_W@2@@std@@PAV?$unordered_set@V?$basic_string@_WU?$char_traits@_W@std@@V?$allocator@_W@2@@std@@U?$hash@V?$basic_string@_WU?$char_traits@_W@std@@V?$allocator@_W@2@@std@@@2@U?$equal_to@V?$basic_string@_WU?$char_traits@_W@std@@V?$allocator@_W@2@@std@@@2@V?$allocator@V?$basic_string@_WU?$char_traits@_W@std@@V?$allocator@_W@2@@std@@@2@@5@PAV45@31@Z 1001d0b0 f   deps_resolver.obj
 0001:0001dc70       ??R<lambda_a2ef49da93dd4a41c14ce17fbded6c76>@@QBE_NABV?$basic_string@_WU?$char_traits@_W@std@@V?$allocator@_W@2@@std@@PAVdeps_json_t@@ABUdeps_entry_t@@@Z 1001ec70 f   deps_resolver.obj
 0001:0001e960       ??R<lambda_697c7eb4ac48f527a469b347c0df95d3>@@QBE_NABUdeps_entry_t@@ABV?$basic_string@_WU?$char_traits@_W@std@@V?$allocator@_W@2@@std@@@Z 1001f960 f   deps_resolver.obj
 0001:0001f4b9       __catch$??$_Insert@V?$basic_string@_WU?$char_traits@_W@std@@V?$allocator@_W@2@@std@@U_Not_a_node_tag@2@@?$_Hash@V?$_Uset_traits@V?$basic_string@_WU?$char_traits@_W@std@@V?$allocator@_W@2@@std@@V?$_Uhash_compare@V?$basic_string@_WU?$char_traits@_W@std@@V?$allocator@_W@2@@std@@U?$hash@V?$basic_string@_WU?$char_traits@_W@std@@V?$allocator@_W@2@@std@@@2@U?$equal_to@V?$basic_string@_WU?$char_traits@_W@std@@V?$allocator@_W@2@@std@@@2@@2@V?$allocator@V?$basic_string@_WU?$char_traits@_W@std@@V?$allocator@_W@2@@std@@@2@$0A@@std@@@std@@IAE?AU?$pair@V?$_List_const_iterator@V?$_List_val@U?$_List_simple_types@V?$basic_string@_WU?$char_traits@_W@std@@V?$allocator@_W@2@@std@@@std@@@std@@@std@@_N@1@$$QAV?$basic_string@_WU?$char_traits@_W@std@@V?$allocator@_W@2@@1@U_Not_a_node_tag@1@@Z$2 100204b9 f i deps_resolver.obj
 0001:0001f6c9       __catch$??$_Insert@ABV?$basic_string@_WU?$char_traits@_W@std@@V?$allocator@_W@2@@std@@U_Not_a_node_tag@2@@?$_Hash@V?$_Uset_traits@V?$basic_string@_WU?$char_traits@_W@std@@V?$allocator@_W@2@@std@@V?$_Uhash_compare@V?$basic_string@_WU?$char_traits@_W@std@@V?$allocator@_W@2@@std@@U?$hash@V?$basic_string@_WU?$char_traits@_W@std@@V?$allocator@_W@2@@std@@@2@U?$equal_to@V?$basic_string@_WU?$char_traits@_W@std@@V?$allocator@_W@2@@std@@@2@@2@V?$allocator@V?$basic_string@_WU?$char_traits@_W@std@@V?$allocator@_W@2@@std@@@2@$0A@@std@@@std@@IAE?AU?$pair@V?$_List_const_iterator@V?$_List_val@U?$_List_simple_types@V?$basic_string@_WU?$char_traits@_W@std@@V?$allocator@_W@2@@std@@@std@@@std@@@std@@_N@1@ABV?$basic_string@_WU?$char_traits@_W@std@@V?$allocator@_W@2@@1@U_Not_a_node_tag@1@@Z$2 100206c9 f i deps_resolver.obj
 0001:0001f92d       __catch$??$_Insert@AAU?$pair@$$CBV?$basic_string@_WU?$char_traits@_W@std@@V?$allocator@_W@2@@std@@V12@@std@@V?$_List_unchecked_iterator@V?$_List_val@U?$_List_simple_types@U?$pair@$$CBV?$basic_string@_WU?$char_traits@_W@std@@V?$allocator@_W@2@@std@@V12@@std@@@std@@@std@@@2@@?$_Hash@V?$_Umap_traits@V?$basic_string@_WU?$char_traits@_W@std@@V?$allocator@_W@2@@std@@V12@V?$_Uhash_compare@V?$basic_string@_WU?$char_traits@_W@std@@V?$allocator@_W@2@@std@@U?$hash@V?$basic_string@_WU?$char_traits@_W@std@@V?$allocator@_W@2@@std@@@2@U?$equal_to@V?$basic_string@_WU?$char_traits@_W@std@@V?$allocator@_W@2@@std@@@2@@2@V?$allocator@U?$pair@$$CBV?$basic_string@_WU?$char_traits@_W@std@@V?$allocator@_W@2@@std@@V12@@std@@@2@$0A@@std@@@std@@IAE?AU?$pair@V?$_List_iterator@V?$_List_val@U?$_List_simple_types@U?$pair@$$CBV?$basic_string@_WU?$char_traits@_W@std@@V?$allocator@_W@2@@std@@V12@@std@@@std@@@std@@@std@@_N@1@AAU?$pair@$$CBV?$basic_string@_WU?$char_traits@_W@std@@V?$allocator@_W@2@@std@@V12@@1@V?$_List_unchecked_iterator@V?$_List_val@U?$_List_simple_types@U?$pair@$$CBV?$basic_string@_WU?$char_traits@_W@std@@V?$allocator@_W@2@@std@@V12@@std@@@std@@@std@@@1@@Z$2 1002092d f i deps_resolver.obj
 0001:0001fa00       ?_Target_type@?$_Func_impl_no_alloc@V<lambda_82ef3072f71ed8c4e91298afae00be99>@@V?$basic_string@_WU?$char_traits@_W@std@@V?$allocator@_W@2@@std@@ABV23@@std@@EBEABVtype_info@@XZ 10020a00 f   deps_resolver.obj
 0001:0001fa10       ?_Copy@?$_Func_impl_no_alloc@V<lambda_82ef3072f71ed8c4e91298afae00be99>@@V?$basic_string@_WU?$char_traits@_W@std@@V?$allocator@_W@2@@std@@ABV23@@std@@EBEPAV?$_Func_base@V?$basic_string@_WU?$char_traits@_W@std@@V?$allocator@_W@2@@std@@ABV12@@2@PAX@Z 10020a10 f   deps_resolver.obj
 0001:0001fa10       ?_Move@?$_Func_impl_no_alloc@V<lambda_82ef3072f71ed8c4e91298afae00be99>@@V?$basic_string@_WU?$char_traits@_W@std@@V?$allocator@_W@2@@std@@ABV23@@std@@EAEPAV?$_Func_base@V?$basic_string@_WU?$char_traits@_W@std@@V?$allocator@_W@2@@std@@ABV12@@2@PAX@Z 10020a10 f   deps_resolver.obj
 0001:0001fa20       ?_Target_type@?$_Func_impl_no_alloc@V<lambda_4cf1a043bca302a229a9e21dced1c4a6>@@V?$basic_string@_WU?$char_traits@_W@std@@V?$allocator@_W@2@@std@@ABV23@@std@@EBEABVtype_info@@XZ 10020a20 f   deps_resolver.obj
 0001:0001fa30       ?_Move@?$_Func_impl_no_alloc@V<lambda_4cf1a043bca302a229a9e21dced1c4a6>@@V?$basic_string@_WU?$char_traits@_W@std@@V?$allocator@_W@2@@std@@ABV23@@std@@EAEPAV?$_Func_base@V?$basic_string@_WU?$char_traits@_W@std@@V?$allocator@_W@2@@std@@ABV12@@2@PAX@Z 10020a30 f   deps_resolver.obj
 0001:0001fa30       ?_Copy@?$_Func_impl_no_alloc@V<lambda_4cf1a043bca302a229a9e21dced1c4a6>@@V?$basic_string@_WU?$char_traits@_W@std@@V?$allocator@_W@2@@std@@ABV23@@std@@EBEPAV?$_Func_base@V?$basic_string@_WU?$char_traits@_W@std@@V?$allocator@_W@2@@std@@ABV12@@2@PAX@Z 10020a30 f   deps_resolver.obj
 0001:0001fc05       __catch$??$_Buynode@AAV?$basic_string@_WU?$char_traits@_W@std@@V?$allocator@_W@2@@std@@AAV12@@?$_List_buy@U?$pair@$$CBV?$basic_string@_WU?$char_traits@_W@std@@V?$allocator@_W@2@@std@@V12@@std@@V?$allocator@U?$pair@$$CBV?$basic_string@_WU?$char_traits@_W@std@@V?$allocator@_W@2@@std@@V12@@std@@@2@@std@@QAEPAU?$_List_node@U?$pair@$$CBV?$basic_string@_WU?$char_traits@_W@std@@V?$allocator@_W@2@@std@@V12@@std@@PAX@1@PAU21@0AAV?$basic_string@_WU?$char_traits@_W@std@@V?$allocator@_W@2@@1@1@Z$0 10020c05 f i deps_resolver.obj
 0001:0001fce0       ?_Do_call@?$_Func_impl_no_alloc@V<lambda_4cf1a043bca302a229a9e21dced1c4a6>@@V?$basic_string@_WU?$char_traits@_W@std@@V?$allocator@_W@2@@std@@ABV23@@std@@EAE?AV?$basic_string@_WU?$char_traits@_W@std@@V?$allocator@_W@2@@2@ABV32@@Z 10020ce0 f   deps_resolver.obj
 0001:0001fd90       ?_Do_call@?$_Func_impl_no_alloc@V<lambda_82ef3072f71ed8c4e91298afae00be99>@@V?$basic_string@_WU?$char_traits@_W@std@@V?$allocator@_W@2@@std@@ABV23@@std@@EAE?AV?$basic_string@_WU?$char_traits@_W@std@@V?$allocator@_W@2@@2@ABV32@@Z 10020d90 f   deps_resolver.obj
 0001:0001ff6d       __catch$??$_Insert@ABV?$basic_string@_WU?$char_traits@_W@std@@V?$allocator@_W@2@@std@@V?$_List_unchecked_const_iterator@V?$_List_val@U?$_List_simple_types@V?$basic_string@_WU?$char_traits@_W@std@@V?$allocator@_W@2@@std@@@std@@@std@@U_Iterator_base0@2@@2@@?$_Hash@V?$_Uset_traits@V?$basic_string@_WU?$char_traits@_W@std@@V?$allocator@_W@2@@std@@V?$_Uhash_compare@V?$basic_string@_WU?$char_traits@_W@std@@V?$allocator@_W@2@@std@@U?$hash@V?$basic_string@_WU?$char_traits@_W@std@@V?$allocator@_W@2@@std@@@2@U?$equal_to@V?$basic_string@_WU?$char_traits@_W@std@@V?$allocator@_W@2@@std@@@2@@2@V?$allocator@V?$basic_string@_WU?$char_traits@_W@std@@V?$allocator@_W@2@@std@@@2@$0A@@std@@@std@@IAE?AU?$pair@V?$_List_const_iterator@V?$_List_val@U?$_List_simple_types@V?$basic_string@_WU?$char_traits@_W@std@@V?$allocator@_W@2@@std@@@std@@@std@@@std@@_N@1@ABV?$basic_string@_WU?$char_traits@_W@std@@V?$allocator@_W@2@@1@V?$_List_unchecked_const_iterator@V?$_List_val@U?$_List_simple_types@V?$basic_string@_WU?$char_traits@_W@std@@V?$allocator@_W@2@@std@@@std@@@std@@U_Iterator_base0@2@@1@@Z$2 10020f6d f i deps_resolver.obj
 0001:00020017       __catch$??$_Buynode@ABUpiecewise_construct_t@std@@V?$tuple@ABV?$basic_string@_WU?$char_traits@_W@std@@V?$allocator@_W@2@@std@@@2@V?$tuple@$$V@2@@?$_List_buy@U?$pair@$$CBV?$basic_string@_WU?$char_traits@_W@std@@V?$allocator@_W@2@@std@@V12@@std@@V?$allocator@U?$pair@$$CBV?$basic_string@_WU?$char_traits@_W@std@@V?$allocator@_W@2@@std@@V12@@std@@@2@@std@@QAEPAU?$_List_node@U?$pair@$$CBV?$basic_string@_WU?$char_traits@_W@std@@V?$allocator@_W@2@@std@@V12@@std@@PAX@1@PAU21@0ABUpiecewise_construct_t@1@$$QAV?$tuple@ABV?$basic_string@_WU?$char_traits@_W@std@@V?$allocator@_W@2@@std@@@1@$$QAV?$tuple@$$V@1@@Z$0 10021017 f i deps_resolver.obj
 0001:00020091       __catch$??$_Buynode@ABV?$basic_string@_WU?$char_traits@_W@std@@V?$allocator@_W@2@@std@@@?$_List_buy@V?$basic_string@_WU?$char_traits@_W@std@@V?$allocator@_W@2@@std@@V?$allocator@V?$basic_string@_WU?$char_traits@_W@std@@V?$allocator@_W@2@@std@@@2@@std@@QAEPAU?$_List_node@V?$basic_string@_WU?$char_traits@_W@std@@V?$allocator@_W@2@@std@@PAX@1@PAU21@0ABV?$basic_string@_WU?$char_traits@_W@std@@V?$allocator@_W@2@@1@@Z$0 10021091 f i deps_resolver.obj
 0001:00021ac1       __catch$?ensure_dev_config_parsed@runtime_config_t@@AAE_NXZ$0 10022ac1 f   runtime_config.obj
 0001:00021e1c       __catch$?ensure_parsed@runtime_config_t@@AAE_NXZ$0 10022e1c f   runtime_config.obj
 0001:000224f0       ?wchar_convert_helper@@YA_NKPBDHPAV?$basic_string@_WU?$char_traits@_W@std@@V?$allocator@_W@2@@std@@@Z 100234f0 f   pal.windows.obj
 0001:00022d8e       ?find_pe_section@@YAPAU_IMAGE_SECTION_HEADER@@QAEI@Z 10023d8e f   MSVCRT:utility.obj
 0001:00023100       ?dllmain_crt_dispatch@@YGHQAUHINSTANCE__@@KQAX@Z 10024100 f   MSVCRT:dll_dllmain.obj
 0001:00023153       ?dllmain_crt_process_attach@@YAHQAUHINSTANCE__@@QAX@Z 10024153 f   MSVCRT:dll_dllmain.obj
 0001:0002325d       ?dllmain_crt_process_detach@@YAH_N@Z 1002425d f   MSVCRT:dll_dllmain.obj
 0001:000232ef       ?dllmain_dispatch@@YAHQAUHINSTANCE__@@KQAX@Z 100242ef f   MSVCRT:dll_dllmain.obj
 0001:000233f5       ?dllmain_raw@@YGHQAUHINSTANCE__@@KQAX@Z 100243f5 f   MSVCRT:dll_dllmain.obj
 0001:00023650       $$000000                   10024650     MSVCRT:_sehprolg4_.obj
 0001:00023997       ___get_entropy             10024997 f   MSVCRT:gs_support.obj
 0001:00023b80       $$000000                   10024b80     MSVCRT:_ftol3_.obj
 0001:00023f10       __unwindfunclet$?continueOnV8Thread@@YAXPAUuv_async_s@@H@Z$0 10024f10 f   v8synchronizationcontext.obj
 0001:00023f18       __ehhandler$?continueOnV8Thread@@YAXPAUuv_async_s@@H@Z 10024f18 f   v8synchronizationcontext.obj
 0001:00023f40       __ehhandler$??0exception_ptr@std@@QAE@ABV01@@Z 10024f40 f   asyncrt_utils.obj
 0001:00023f40       __ehhandler$??1deps_json_t@@QAE@XZ 10024f40 f   coreclrembedding.obj
 0001:00023f40       __ehhandler$??1AsyncResource@Nan@@QAE@XZ 10024f40 f   callbackhelper.obj
 0001:00023f60       __unwindfunclet$?Call@Callback@Nan@@QBE?AV?$Local@VValue@v8@@@v8@@HQAV34@@Z$0 10024f60 f   callbackhelper.obj
 0001:00023f69       __unwindfunclet$?Call@Callback@Nan@@QBE?AV?$Local@VValue@v8@@@v8@@HQAV34@@Z$1 10024f69 f   callbackhelper.obj
 0001:00023f71       __unwindfunclet$?Call@Callback@Nan@@QBE?AV?$Local@VValue@v8@@@v8@@HQAV34@@Z$2 10024f71 f   callbackhelper.obj
 0001:00023f79       __ehhandler$?Call@Callback@Nan@@QBE?AV?$Local@VValue@v8@@@v8@@HQAV34@@Z 10024f79 f   callbackhelper.obj
 0001:00023fa0       __ehhandler$??1?$unique_ptr@V_Facet_base@std@@U?$default_delete@V_Facet_base@std@@@2@@std@@QAE@XZ 10024fa0 f   fx_muxer.obj
 0001:00023fa0       __ehhandler$??1value@json@web@@QAE@XZ 10024fa0 f   fx_muxer.obj
 0001:00023fa0       __ehhandler$??1?$Persistent@VFunction@v8@@V?$NonCopyablePersistentTraits@VFunction@v8@@@2@@Nan@@QAE@XZ 10024fa0 f   callbackhelper.obj
 0001:00023fc0       __unwindfunclet$?Initialize@CallbackHelper@@SAXXZ$0 10024fc0 f   callbackhelper.obj
 0001:00023fcb       __unwindfunclet$?Initialize@CallbackHelper@@SAXXZ$1 10024fcb f   callbackhelper.obj
 0001:00023fd4       __unwindfunclet$?Initialize@CallbackHelper@@SAXXZ$2 10024fd4 f   callbackhelper.obj
 0001:00023fdd       __ehhandler$?Initialize@CallbackHelper@@SAXXZ 10024fdd f   callbackhelper.obj
 0001:00024000       __unwindfunclet$?New@?$Factory@VFunctionTemplate@v8@@@imp@Nan@@SA?AV?$Local@VFunctionTemplate@v8@@@v8@@P6AXABV?$FunctionCallbackInfo@VValue@v8@@@3@@ZV?$Local@VValue@v8@@@5@V?$Local@VSignature@v8@@@5@@Z$0 10025000 f   edge.obj
 0001:00024009       __unwindfunclet$?New@?$Factory@VFunctionTemplate@v8@@@imp@Nan@@SA?AV?$Local@VFunctionTemplate@v8@@@v8@@P6AXABV?$FunctionCallbackInfo@VValue@v8@@@3@@ZV?$Local@VValue@v8@@@5@V?$Local@VSignature@v8@@@5@@Z$1 10025009 f   edge.obj
 0001:00024012       __ehhandler$?New@?$Factory@VFunctionTemplate@v8@@@imp@Nan@@SA?AV?$Local@VFunctionTemplate@v8@@@v8@@P6AXABV?$FunctionCallbackInfo@VValue@v8@@@3@@ZV?$Local@VValue@v8@@@5@V?$Local@VSignature@v8@@@5@@Z 10025012 f   edge.obj
 0001:00024030       __unwindfunclet$?init@@YAXV?$Local@VObject@v8@@@v8@@@Z$0 10025030 f   edge.obj
 0001:00024039       __ehhandler$?init@@YAXV?$Local@VObject@v8@@@v8@@@Z 10025039 f   edge.obj
 0001:00024060       __unwindfunclet$??0deps_json_t@@QAE@_NABV?$basic_string@_WU?$char_traits@_W@std@@V?$allocator@_W@2@@std@@ABV?$unordered_map@V?$basic_string@_WU?$char_traits@_W@std@@V?$allocator@_W@2@@std@@V?$vector@V?$basic_string@_WU?$char_traits@_W@std@@V?$allocator@_W@2@@std@@V?$allocator@V?$basic_string@_WU?$char_traits@_W@std@@V?$allocator@_W@2@@std@@@2@@2@U?$hash@V?$basic_string@_WU?$char_traits@_W@std@@V?$allocator@_W@2@@std@@@2@U?$equal_to@V?$basic_string@_WU?$char_traits@_W@std@@V?$allocator@_W@2@@std@@@2@V?$allocator@U?$pair@$$CBV?$basic_string@_WU?$char_traits@_W@std@@V?$allocator@_W@2@@std@@V?$vector@V?$basic_string@_WU?$char_traits@_W@std@@V?$allocator@_W@2@@std@@V?$allocator@V?$basic_string@_WU?$char_traits@_W@std@@V?$allocator@_W@2@@std@@@2@@2@@std@@@2@@2@@Z$1 10025060 f   coreclrembedding.obj
 0001:00024073       __unwindfunclet$??0deps_json_t@@QAE@_NABV?$basic_string@_WU?$char_traits@_W@std@@V?$allocator@_W@2@@std@@ABV?$unordered_map@V?$basic_string@_WU?$char_traits@_W@std@@V?$allocator@_W@2@@std@@V?$vector@V?$basic_string@_WU?$char_traits@_W@std@@V?$allocator@_W@2@@std@@V?$allocator@V?$basic_string@_WU?$char_traits@_W@std@@V?$allocator@_W@2@@std@@@2@@2@U?$hash@V?$basic_string@_WU?$char_traits@_W@std@@V?$allocator@_W@2@@std@@@2@U?$equal_to@V?$basic_string@_WU?$char_traits@_W@std@@V?$allocator@_W@2@@std@@@2@V?$allocator@U?$pair@$$CBV?$basic_string@_WU?$char_traits@_W@std@@V?$allocator@_W@2@@std@@V?$vector@V?$basic_string@_WU?$char_traits@_W@std@@V?$allocator@_W@2@@std@@V?$allocator@V?$basic_string@_WU?$char_traits@_W@std@@V?$allocator@_W@2@@std@@@2@@2@@std@@@2@@2@@Z$2 10025073 f   coreclrembedding.obj
 0001:0002407e       __unwindfunclet$??0deps_json_t@@QAE@_NABV?$basic_string@_WU?$char_traits@_W@std@@V?$allocator@_W@2@@std@@ABV?$unordered_map@V?$basic_string@_WU?$char_traits@_W@std@@V?$allocator@_W@2@@std@@V?$vector@V?$basic_string@_WU?$char_traits@_W@std@@V?$allocator@_W@2@@std@@V?$allocator@V?$basic_string@_WU?$char_traits@_W@std@@V?$allocator@_W@2@@std@@@2@@2@U?$hash@V?$basic_string@_WU?$char_traits@_W@std@@V?$allocator@_W@2@@std@@@2@U?$equal_to@V?$basic_string@_WU?$char_traits@_W@std@@V?$allocator@_W@2@@std@@@2@V?$allocator@U?$pair@$$CBV?$basic_string@_WU?$char_traits@_W@std@@V?$allocator@_W@2@@std@@V?$vector@V?$basic_string@_WU?$char_traits@_W@std@@V?$allocator@_W@2@@std@@V?$allocator@V?$basic_string@_WU?$char_traits@_W@std@@V?$allocator@_W@2@@std@@@2@@2@@std@@@2@@2@@Z$9 1002507e f   coreclrembedding.obj
 0001:00024089       __unwindfunclet$??0deps_json_t@@QAE@_NABV?$basic_string@_WU?$char_traits@_W@std@@V?$allocator@_W@2@@std@@ABV?$unordered_map@V?$basic_string@_WU?$char_traits@_W@std@@V?$allocator@_W@2@@std@@V?$vector@V?$basic_string@_WU?$char_traits@_W@std@@V?$allocator@_W@2@@std@@V?$allocator@V?$basic_string@_WU?$char_traits@_W@std@@V?$allocator@_W@2@@std@@@2@@2@U?$hash@V?$basic_string@_WU?$char_traits@_W@std@@V?$allocator@_W@2@@std@@@2@U?$equal_to@V?$basic_string@_WU?$char_traits@_W@std@@V?$allocator@_W@2@@std@@@2@V?$allocator@U?$pair@$$CBV?$basic_string@_WU?$char_traits@_W@std@@V?$allocator@_W@2@@std@@V?$vector@V?$basic_string@_WU?$char_traits@_W@std@@V?$allocator@_W@2@@std@@V?$allocator@V?$basic_string@_WU?$char_traits@_W@std@@V?$allocator@_W@2@@std@@@2@@2@@std@@@2@@2@@Z$10 10025089 f   coreclrembedding.obj
 0001:00024094       __unwindfunclet$??0deps_json_t@@QAE@_NABV?$basic_string@_WU?$char_traits@_W@std@@V?$allocator@_W@2@@std@@ABV?$unordered_map@V?$basic_string@_WU?$char_traits@_W@std@@V?$allocator@_W@2@@std@@V?$vector@V?$basic_string@_WU?$char_traits@_W@std@@V?$allocator@_W@2@@std@@V?$allocator@V?$basic_string@_WU?$char_traits@_W@std@@V?$allocator@_W@2@@std@@@2@@2@U?$hash@V?$basic_string@_WU?$char_traits@_W@std@@V?$allocator@_W@2@@std@@@2@U?$equal_to@V?$basic_string@_WU?$char_traits@_W@std@@V?$allocator@_W@2@@std@@@2@V?$allocator@U?$pair@$$CBV?$basic_string@_WU?$char_traits@_W@std@@V?$allocator@_W@2@@std@@V?$vector@V?$basic_string@_WU?$char_traits@_W@std@@V?$allocator@_W@2@@std@@V?$allocator@V?$basic_string@_WU?$char_traits@_W@std@@V?$allocator@_W@2@@std@@@2@@2@@std@@@2@@2@@Z$3 10025094 f   coreclrembedding.obj
 0001:0002409f       __unwindfunclet$??0deps_json_t@@QAE@_NABV?$basic_string@_WU?$char_traits@_W@std@@V?$allocator@_W@2@@std@@ABV?$unordered_map@V?$basic_string@_WU?$char_traits@_W@std@@V?$allocator@_W@2@@std@@V?$vector@V?$basic_string@_WU?$char_traits@_W@std@@V?$allocator@_W@2@@std@@V?$allocator@V?$basic_string@_WU?$char_traits@_W@std@@V?$allocator@_W@2@@std@@@2@@2@U?$hash@V?$basic_string@_WU?$char_traits@_W@std@@V?$allocator@_W@2@@std@@@2@U?$equal_to@V?$basic_string@_WU?$char_traits@_W@std@@V?$allocator@_W@2@@std@@@2@V?$allocator@U?$pair@$$CBV?$basic_string@_WU?$char_traits@_W@std@@V?$allocator@_W@2@@std@@V?$vector@V?$basic_string@_WU?$char_traits@_W@std@@V?$allocator@_W@2@@std@@V?$allocator@V?$basic_string@_WU?$char_traits@_W@std@@V?$allocator@_W@2@@std@@@2@@2@@std@@@2@@2@@Z$14 1002509f f   coreclrembedding.obj
 0001:000240aa       __unwindfunclet$??0deps_json_t@@QAE@_NABV?$basic_string@_WU?$char_traits@_W@std@@V?$allocator@_W@2@@std@@ABV?$unordered_map@V?$basic_string@_WU?$char_traits@_W@std@@V?$allocator@_W@2@@std@@V?$vector@V?$basic_string@_WU?$char_traits@_W@std@@V?$allocator@_W@2@@std@@V?$allocator@V?$basic_string@_WU?$char_traits@_W@std@@V?$allocator@_W@2@@std@@@2@@2@U?$hash@V?$basic_string@_WU?$char_traits@_W@std@@V?$allocator@_W@2@@std@@@2@U?$equal_to@V?$basic_string@_WU?$char_traits@_W@std@@V?$allocator@_W@2@@std@@@2@V?$allocator@U?$pair@$$CBV?$basic_string@_WU?$char_traits@_W@std@@V?$allocator@_W@2@@std@@V?$vector@V?$basic_string@_WU?$char_traits@_W@std@@V?$allocator@_W@2@@std@@V?$allocator@V?$basic_string@_WU?$char_traits@_W@std@@V?$allocator@_W@2@@std@@@2@@2@@std@@@2@@2@@Z$15 100250aa f   coreclrembedding.obj
 0001:000240b5       __unwindfunclet$??0deps_json_t@@QAE@_NABV?$basic_string@_WU?$char_traits@_W@std@@V?$allocator@_W@2@@std@@ABV?$unordered_map@V?$basic_string@_WU?$char_traits@_W@std@@V?$allocator@_W@2@@std@@V?$vector@V?$basic_string@_WU?$char_traits@_W@std@@V?$allocator@_W@2@@std@@V?$allocator@V?$basic_string@_WU?$char_traits@_W@std@@V?$allocator@_W@2@@std@@@2@@2@U?$hash@V?$basic_string@_WU?$char_traits@_W@std@@V?$allocator@_W@2@@std@@@2@U?$equal_to@V?$basic_string@_WU?$char_traits@_W@std@@V?$allocator@_W@2@@std@@@2@V?$allocator@U?$pair@$$CBV?$basic_string@_WU?$char_traits@_W@std@@V?$allocator@_W@2@@std@@V?$vector@V?$basic_string@_WU?$char_traits@_W@std@@V?$allocator@_W@2@@std@@V?$allocator@V?$basic_string@_WU?$char_traits@_W@std@@V?$allocator@_W@2@@std@@@2@@2@@std@@@2@@2@@Z$4 100250b5 f   coreclrembedding.obj
 0001:000240c0       __unwindfunclet$??0deps_json_t@@QAE@_NABV?$basic_string@_WU?$char_traits@_W@std@@V?$allocator@_W@2@@std@@ABV?$unordered_map@V?$basic_string@_WU?$char_traits@_W@std@@V?$allocator@_W@2@@std@@V?$vector@V?$basic_string@_WU?$char_traits@_W@std@@V?$allocator@_W@2@@std@@V?$allocator@V?$basic_string@_WU?$char_traits@_W@std@@V?$allocator@_W@2@@std@@@2@@2@U?$hash@V?$basic_string@_WU?$char_traits@_W@std@@V?$allocator@_W@2@@std@@@2@U?$equal_to@V?$basic_string@_WU?$char_traits@_W@std@@V?$allocator@_W@2@@std@@@2@V?$allocator@U?$pair@$$CBV?$basic_string@_WU?$char_traits@_W@std@@V?$allocator@_W@2@@std@@V?$vector@V?$basic_string@_WU?$char_traits@_W@std@@V?$allocator@_W@2@@std@@V?$allocator@V?$basic_string@_WU?$char_traits@_W@std@@V?$allocator@_W@2@@std@@@2@@2@@std@@@2@@2@@Z$0 100250c0 f   coreclrembedding.obj
 0001:000240c8       __ehhandler$??0deps_json_t@@QAE@_NABV?$basic_string@_WU?$char_traits@_W@std@@V?$allocator@_W@2@@std@@ABV?$unordered_map@V?$basic_string@_WU?$char_traits@_W@std@@V?$allocator@_W@2@@std@@V?$vector@V?$basic_string@_WU?$char_traits@_W@std@@V?$allocator@_W@2@@std@@V?$allocator@V?$basic_string@_WU?$char_traits@_W@std@@V?$allocator@_W@2@@std@@@2@@2@U?$hash@V?$basic_string@_WU?$char_traits@_W@std@@V?$allocator@_W@2@@std@@@2@U?$equal_to@V?$basic_string@_WU?$char_traits@_W@std@@V?$allocator@_W@2@@std@@@2@V?$allocator@U?$pair@$$CBV?$basic_string@_WU?$char_traits@_W@std@@V?$allocator@_W@2@@std@@V?$vector@V?$basic_string@_WU?$char_traits@_W@std@@V?$allocator@_W@2@@std@@V?$allocator@V?$basic_string@_WU?$char_traits@_W@std@@V?$allocator@_W@2@@std@@@2@@2@@std@@@2@@2@@Z 100250c8 f   coreclrembedding.obj
 0001:000240f0       __unwindfunclet$??0corehost_init_t@@QAE@ABV?$basic_string@_WU?$char_traits@_W@std@@V?$allocator@_W@2@@std@@ABV?$vector@V?$basic_string@_WU?$char_traits@_W@std@@V?$allocator@_W@2@@std@@V?$allocator@V?$basic_string@_WU?$char_traits@_W@std@@V?$allocator@_W@2@@std@@@2@@2@0W4host_mode_t@@ABVruntime_config_t@@@Z$0 100250f0 f   coreclrembedding.obj
 0001:000240f8       __unwindfunclet$??0corehost_init_t@@QAE@ABV?$basic_string@_WU?$char_traits@_W@std@@V?$allocator@_W@2@@std@@ABV?$vector@V?$basic_string@_WU?$char_traits@_W@std@@V?$allocator@_W@2@@std@@V?$allocator@V?$basic_string@_WU?$char_traits@_W@std@@V?$allocator@_W@2@@std@@@2@@2@0W4host_mode_t@@ABVruntime_config_t@@@Z$1 100250f8 f   coreclrembedding.obj
 0001:00024103       __unwindfunclet$??0corehost_init_t@@QAE@ABV?$basic_string@_WU?$char_traits@_W@std@@V?$allocator@_W@2@@std@@ABV?$vector@V?$basic_string@_WU?$char_traits@_W@std@@V?$allocator@_W@2@@std@@V?$allocator@V?$basic_string@_WU?$char_traits@_W@std@@V?$allocator@_W@2@@std@@@2@@2@0W4host_mode_t@@ABVruntime_config_t@@@Z$2 10025103 f   coreclrembedding.obj
 0001:0002410e       __unwindfunclet$??0corehost_init_t@@QAE@ABV?$basic_string@_WU?$char_traits@_W@std@@V?$allocator@_W@2@@std@@ABV?$vector@V?$basic_string@_WU?$char_traits@_W@std@@V?$allocator@_W@2@@std@@V?$allocator@V?$basic_string@_WU?$char_traits@_W@std@@V?$allocator@_W@2@@std@@@2@@2@0W4host_mode_t@@ABVruntime_config_t@@@Z$3 1002510e f   coreclrembedding.obj
 0001:00024119       __unwindfunclet$??0corehost_init_t@@QAE@ABV?$basic_string@_WU?$char_traits@_W@std@@V?$allocator@_W@2@@std@@ABV?$vector@V?$basic_string@_WU?$char_traits@_W@std@@V?$allocator@_W@2@@std@@V?$allocator@V?$basic_string@_WU?$char_traits@_W@std@@V?$allocator@_W@2@@std@@@2@@2@0W4host_mode_t@@ABVruntime_config_t@@@Z$4 10025119 f   coreclrembedding.obj
 0001:00024124       __unwindfunclet$??0corehost_init_t@@QAE@ABV?$basic_string@_WU?$char_traits@_W@std@@V?$allocator@_W@2@@std@@ABV?$vector@V?$basic_string@_WU?$char_traits@_W@std@@V?$allocator@_W@2@@std@@V?$allocator@V?$basic_string@_WU?$char_traits@_W@std@@V?$allocator@_W@2@@std@@@2@@2@0W4host_mode_t@@ABVruntime_config_t@@@Z$5 10025124 f   coreclrembedding.obj
 0001:0002412f       __unwindfunclet$??0corehost_init_t@@QAE@ABV?$basic_string@_WU?$char_traits@_W@std@@V?$allocator@_W@2@@std@@ABV?$vector@V?$basic_string@_WU?$char_traits@_W@std@@V?$allocator@_W@2@@std@@V?$allocator@V?$basic_string@_WU?$char_traits@_W@std@@V?$allocator@_W@2@@std@@@2@@2@0W4host_mode_t@@ABVruntime_config_t@@@Z$6 1002512f f   coreclrembedding.obj
 0001:0002413a       __unwindfunclet$??0corehost_init_t@@QAE@ABV?$basic_string@_WU?$char_traits@_W@std@@V?$allocator@_W@2@@std@@ABV?$vector@V?$basic_string@_WU?$char_traits@_W@std@@V?$allocator@_W@2@@std@@V?$allocator@V?$basic_string@_WU?$char_traits@_W@std@@V?$allocator@_W@2@@std@@@2@@2@0W4host_mode_t@@ABVruntime_config_t@@@Z$7 1002513a f   coreclrembedding.obj
 0001:00024145       __unwindfunclet$??0corehost_init_t@@QAE@ABV?$basic_string@_WU?$char_traits@_W@std@@V?$allocator@_W@2@@std@@ABV?$vector@V?$basic_string@_WU?$char_traits@_W@std@@V?$allocator@_W@2@@std@@V?$allocator@V?$basic_string@_WU?$char_traits@_W@std@@V?$allocator@_W@2@@std@@@2@@2@0W4host_mode_t@@ABVruntime_config_t@@@Z$8 10025145 f   coreclrembedding.obj
 0001:00024153       __unwindfunclet$??0corehost_init_t@@QAE@ABV?$basic_string@_WU?$char_traits@_W@std@@V?$allocator@_W@2@@std@@ABV?$vector@V?$basic_string@_WU?$char_traits@_W@std@@V?$allocator@_W@2@@std@@V?$allocator@V?$basic_string@_WU?$char_traits@_W@std@@V?$allocator@_W@2@@std@@@2@@2@0W4host_mode_t@@ABVruntime_config_t@@@Z$9 10025153 f   coreclrembedding.obj
 0001:00024161       __ehhandler$??0corehost_init_t@@QAE@ABV?$basic_string@_WU?$char_traits@_W@std@@V?$allocator@_W@2@@std@@ABV?$vector@V?$basic_string@_WU?$char_traits@_W@std@@V?$allocator@_W@2@@std@@V?$allocator@V?$basic_string@_WU?$char_traits@_W@std@@V?$allocator@_W@2@@std@@@2@@2@0W4host_mode_t@@ABVruntime_config_t@@@Z 10025161 f   coreclrembedding.obj
 0001:00024180       __unwindfunclet$?init@hostpolicy_init_t@@SA_NPAUhost_interface_t@@PAU1@@Z$0 10025180 f   coreclrembedding.obj
 0001:00024180       __unwindfunclet$?make_clrstr_arr@hostpolicy_init_t@@CAXHPAPB_WPAV?$vector@V?$vector@DV?$allocator@D@std@@@std@@V?$allocator@V?$vector@DV?$allocator@D@std@@@std@@@2@@std@@@Z$0 10025180 f   coreclrembedding.obj
 0001:00024188       __ehhandler$?make_clrstr_arr@hostpolicy_init_t@@CAXHPAPB_WPAV?$vector@V?$vector@DV?$allocator@D@std@@@std@@V?$allocator@V?$vector@DV?$allocator@D@std@@@std@@@2@@std@@@Z 10025188 f   coreclrembedding.obj
 0001:00024188       __ehhandler$?init@hostpolicy_init_t@@SA_NPAUhost_interface_t@@PAU1@@Z 10025188 f   coreclrembedding.obj
 0001:000241b0       __unwindfunclet$??0deps_resolver_t@@QAE@ABUhostpolicy_init_t@@ABUarguments_t@@@Z$0 100251b0 f   coreclrembedding.obj
 0001:000241b8       __unwindfunclet$??0deps_resolver_t@@QAE@ABUhostpolicy_init_t@@ABUarguments_t@@@Z$1 100251b8 f   coreclrembedding.obj
 0001:000241c3       __unwindfunclet$??0deps_resolver_t@@QAE@ABUhostpolicy_init_t@@ABUarguments_t@@@Z$2 100251c3 f   coreclrembedding.obj
 0001:000241ce       __unwindfunclet$??0deps_resolver_t@@QAE@ABUhostpolicy_init_t@@ABUarguments_t@@@Z$3 100251ce f   coreclrembedding.obj
 0001:000241d9       __unwindfunclet$??0deps_resolver_t@@QAE@ABUhostpolicy_init_t@@ABUarguments_t@@@Z$4 100251d9 f   coreclrembedding.obj
 0001:000241e4       __unwindfunclet$??0deps_resolver_t@@QAE@ABUhostpolicy_init_t@@ABUarguments_t@@@Z$5 100251e4 f   coreclrembedding.obj
 0001:000241ef       __unwindfunclet$??0deps_resolver_t@@QAE@ABUhostpolicy_init_t@@ABUarguments_t@@@Z$6 100251ef f   coreclrembedding.obj
 0001:000241fd       __unwindfunclet$??0deps_resolver_t@@QAE@ABUhostpolicy_init_t@@ABUarguments_t@@@Z$7 100251fd f   coreclrembedding.obj
 0001:0002420b       __unwindfunclet$??0deps_resolver_t@@QAE@ABUhostpolicy_init_t@@ABUarguments_t@@@Z$8 1002520b f   coreclrembedding.obj
 0001:00024219       __unwindfunclet$??0deps_resolver_t@@QAE@ABUhostpolicy_init_t@@ABUarguments_t@@@Z$9 10025219 f   coreclrembedding.obj
 0001:00024227       __unwindfunclet$??0deps_resolver_t@@QAE@ABUhostpolicy_init_t@@ABUarguments_t@@@Z$10 10025227 f   coreclrembedding.obj
 0001:00024235       __unwindfunclet$??0deps_resolver_t@@QAE@ABUhostpolicy_init_t@@ABUarguments_t@@@Z$11 10025235 f   coreclrembedding.obj
 0001:00024243       __unwindfunclet$??0deps_resolver_t@@QAE@ABUhostpolicy_init_t@@ABUarguments_t@@@Z$12 10025243 f   coreclrembedding.obj
 0001:00024251       __unwindfunclet$??0deps_resolver_t@@QAE@ABUhostpolicy_init_t@@ABUarguments_t@@@Z$13 10025251 f   coreclrembedding.obj
 0001:0002425f       __unwindfunclet$??0deps_resolver_t@@QAE@ABUhostpolicy_init_t@@ABUarguments_t@@@Z$14 1002525f f   coreclrembedding.obj
 0001:0002426d       __unwindfunclet$??0deps_resolver_t@@QAE@ABUhostpolicy_init_t@@ABUarguments_t@@@Z$15 1002526d f   coreclrembedding.obj
 0001:0002427b       __unwindfunclet$??0deps_resolver_t@@QAE@ABUhostpolicy_init_t@@ABUarguments_t@@@Z$28 1002527b f   coreclrembedding.obj
 0001:00024294       __unwindfunclet$??0deps_resolver_t@@QAE@ABUhostpolicy_init_t@@ABUarguments_t@@@Z$29 10025294 f   coreclrembedding.obj
 0001:0002429c       __unwindfunclet$??0deps_resolver_t@@QAE@ABUhostpolicy_init_t@@ABUarguments_t@@@Z$17 1002529c f   coreclrembedding.obj
 0001:000242a7       __unwindfunclet$??0deps_resolver_t@@QAE@ABUhostpolicy_init_t@@ABUarguments_t@@@Z$19 100252a7 f   coreclrembedding.obj
 0001:000242b2       __unwindfunclet$??0deps_resolver_t@@QAE@ABUhostpolicy_init_t@@ABUarguments_t@@@Z$21 100252b2 f   coreclrembedding.obj
 0001:000242bd       __ehhandler$??0deps_resolver_t@@QAE@ABUhostpolicy_init_t@@ABUarguments_t@@@Z 100252bd f   coreclrembedding.obj
 0001:000242f0       __unwindfunclet$?Initialize@CoreClrEmbedding@@SAJH@Z$0 100252f0 f   coreclrembedding.obj
 0001:000242fb       __unwindfunclet$?Initialize@CoreClrEmbedding@@SAJH@Z$1 100252fb f   coreclrembedding.obj
 0001:00024306       __unwindfunclet$?Initialize@CoreClrEmbedding@@SAJH@Z$2 10025306 f   coreclrembedding.obj
 0001:00024311       __unwindfunclet$?Initialize@CoreClrEmbedding@@SAJH@Z$3 10025311 f   coreclrembedding.obj
 0001:0002431c       __unwindfunclet$?Initialize@CoreClrEmbedding@@SAJH@Z$4 1002531c f   coreclrembedding.obj
 0001:00024327       __unwindfunclet$?Initialize@CoreClrEmbedding@@SAJH@Z$5 10025327 f   coreclrembedding.obj
 0001:00024332       __unwindfunclet$?Initialize@CoreClrEmbedding@@SAJH@Z$6 10025332 f   coreclrembedding.obj
 0001:0002433d       __unwindfunclet$?Initialize@CoreClrEmbedding@@SAJH@Z$7 1002533d f   coreclrembedding.obj
 0001:00024348       __unwindfunclet$?Initialize@CoreClrEmbedding@@SAJH@Z$162 10025348 f   coreclrembedding.obj
 0001:00024353       __unwindfunclet$?Initialize@CoreClrEmbedding@@SAJH@Z$9 10025353 f   coreclrembedding.obj
 0001:0002435e       __unwindfunclet$?Initialize@CoreClrEmbedding@@SAJH@Z$10 1002535e f   coreclrembedding.obj
 0001:00024369       __unwindfunclet$?Initialize@CoreClrEmbedding@@SAJH@Z$12 10025369 f   coreclrembedding.obj
 0001:00024374       __unwindfunclet$?Initialize@CoreClrEmbedding@@SAJH@Z$13 10025374 f   coreclrembedding.obj
 0001:0002437f       __unwindfunclet$?Initialize@CoreClrEmbedding@@SAJH@Z$14 1002537f f   coreclrembedding.obj
 0001:0002438a       __unwindfunclet$?Initialize@CoreClrEmbedding@@SAJH@Z$15 1002538a f   coreclrembedding.obj
 0001:00024395       __unwindfunclet$?Initialize@CoreClrEmbedding@@SAJH@Z$16 10025395 f   coreclrembedding.obj
 0001:000243a0       __unwindfunclet$?Initialize@CoreClrEmbedding@@SAJH@Z$17 100253a0 f   coreclrembedding.obj
 0001:000243ab       __unwindfunclet$?Initialize@CoreClrEmbedding@@SAJH@Z$18 100253ab f   coreclrembedding.obj
 0001:000243b6       __unwindfunclet$?Initialize@CoreClrEmbedding@@SAJH@Z$19 100253b6 f   coreclrembedding.obj
 0001:000243c1       __unwindfunclet$?Initialize@CoreClrEmbedding@@SAJH@Z$20 100253c1 f   coreclrembedding.obj
 0001:000243cc       __unwindfunclet$?Initialize@CoreClrEmbedding@@SAJH@Z$21 100253cc f   coreclrembedding.obj
 0001:000243d7       __unwindfunclet$?Initialize@CoreClrEmbedding@@SAJH@Z$468 100253d7 f   coreclrembedding.obj
 0001:000243e2       __unwindfunclet$?Initialize@CoreClrEmbedding@@SAJH@Z$514 100253e2 f   coreclrembedding.obj
 0001:000243ed       __unwindfunclet$?Initialize@CoreClrEmbedding@@SAJH@Z$23 100253ed f   coreclrembedding.obj
 0001:000243f8       __unwindfunclet$?Initialize@CoreClrEmbedding@@SAJH@Z$24 100253f8 f   coreclrembedding.obj
 0001:00024403       __unwindfunclet$?Initialize@CoreClrEmbedding@@SAJH@Z$26 10025403 f   coreclrembedding.obj
 0001:0002440e       __unwindfunclet$?Initialize@CoreClrEmbedding@@SAJH@Z$27 1002540e f   coreclrembedding.obj
 0001:00024419       __unwindfunclet$?Initialize@CoreClrEmbedding@@SAJH@Z$28 10025419 f   coreclrembedding.obj
 0001:00024424       __unwindfunclet$?Initialize@CoreClrEmbedding@@SAJH@Z$31 10025424 f   coreclrembedding.obj
 0001:0002442f       __unwindfunclet$?Initialize@CoreClrEmbedding@@SAJH@Z$33 1002542f f   coreclrembedding.obj
 0001:0002443a       __unwindfunclet$?Initialize@CoreClrEmbedding@@SAJH@Z$34 1002543a f   coreclrembedding.obj
 0001:00024445       __unwindfunclet$?Initialize@CoreClrEmbedding@@SAJH@Z$35 10025445 f   coreclrembedding.obj
 0001:00024450       __unwindfunclet$?Initialize@CoreClrEmbedding@@SAJH@Z$36 10025450 f   coreclrembedding.obj
 0001:0002445b       __unwindfunclet$?Initialize@CoreClrEmbedding@@SAJH@Z$859 1002545b f   coreclrembedding.obj
 0001:00024466       __unwindfunclet$?Initialize@CoreClrEmbedding@@SAJH@Z$37 10025466 f   coreclrembedding.obj
 0001:00024471       __unwindfunclet$?Initialize@CoreClrEmbedding@@SAJH@Z$38 10025471 f   coreclrembedding.obj
 0001:0002447c       __unwindfunclet$?Initialize@CoreClrEmbedding@@SAJH@Z$39 1002547c f   coreclrembedding.obj
 0001:00024487       __unwindfunclet$?Initialize@CoreClrEmbedding@@SAJH@Z$40 10025487 f   coreclrembedding.obj
 0001:00024492       __unwindfunclet$?Initialize@CoreClrEmbedding@@SAJH@Z$41 10025492 f   coreclrembedding.obj
 0001:0002449d       __unwindfunclet$?Initialize@CoreClrEmbedding@@SAJH@Z$42 1002549d f   coreclrembedding.obj
 0001:000244a8       __unwindfunclet$?Initialize@CoreClrEmbedding@@SAJH@Z$43 100254a8 f   coreclrembedding.obj
 0001:000244b3       __unwindfunclet$?Initialize@CoreClrEmbedding@@SAJH@Z$44 100254b3 f   coreclrembedding.obj
 0001:000244be       __unwindfunclet$?Initialize@CoreClrEmbedding@@SAJH@Z$45 100254be f   coreclrembedding.obj
 0001:000244c9       __unwindfunclet$?Initialize@CoreClrEmbedding@@SAJH@Z$46 100254c9 f   coreclrembedding.obj
 0001:000244eb       __unwindfunclet$?Initialize@CoreClrEmbedding@@SAJH@Z$48 100254eb f   coreclrembedding.obj
 0001:000244f6       __unwindfunclet$?Initialize@CoreClrEmbedding@@SAJH@Z$49 100254f6 f   coreclrembedding.obj
 0001:00024501       __unwindfunclet$?Initialize@CoreClrEmbedding@@SAJH@Z$50 10025501 f   coreclrembedding.obj
 0001:0002450c       __unwindfunclet$?Initialize@CoreClrEmbedding@@SAJH@Z$51 1002550c f   coreclrembedding.obj
 0001:00024517       __unwindfunclet$?Initialize@CoreClrEmbedding@@SAJH@Z$52 10025517 f   coreclrembedding.obj
 0001:00024522       __unwindfunclet$?Initialize@CoreClrEmbedding@@SAJH@Z$53 10025522 f   coreclrembedding.obj
 0001:0002452d       __unwindfunclet$?Initialize@CoreClrEmbedding@@SAJH@Z$54 1002552d f   coreclrembedding.obj
 0001:00024538       __unwindfunclet$?Initialize@CoreClrEmbedding@@SAJH@Z$55 10025538 f   coreclrembedding.obj
 0001:00024543       __unwindfunclet$?Initialize@CoreClrEmbedding@@SAJH@Z$56 10025543 f   coreclrembedding.obj
 0001:0002454e       __unwindfunclet$?Initialize@CoreClrEmbedding@@SAJH@Z$57 1002554e f   coreclrembedding.obj
 0001:00024559       __unwindfunclet$?Initialize@CoreClrEmbedding@@SAJH@Z$58 10025559 f   coreclrembedding.obj
 0001:00024564       __unwindfunclet$?Initialize@CoreClrEmbedding@@SAJH@Z$59 10025564 f   coreclrembedding.obj
 0001:0002456f       __unwindfunclet$?Initialize@CoreClrEmbedding@@SAJH@Z$60 1002556f f   coreclrembedding.obj
 0001:0002457a       __unwindfunclet$?Initialize@CoreClrEmbedding@@SAJH@Z$61 1002557a f   coreclrembedding.obj
 0001:00024585       __unwindfunclet$?Initialize@CoreClrEmbedding@@SAJH@Z$62 10025585 f   coreclrembedding.obj
 0001:00024590       __unwindfunclet$?Initialize@CoreClrEmbedding@@SAJH@Z$63 10025590 f   coreclrembedding.obj
 0001:0002459b       __unwindfunclet$?Initialize@CoreClrEmbedding@@SAJH@Z$64 1002559b f   coreclrembedding.obj
 0001:000245a6       __unwindfunclet$?Initialize@CoreClrEmbedding@@SAJH@Z$65 100255a6 f   coreclrembedding.obj
 0001:000245b1       __unwindfunclet$?Initialize@CoreClrEmbedding@@SAJH@Z$66 100255b1 f   coreclrembedding.obj
 0001:000245bc       __unwindfunclet$?Initialize@CoreClrEmbedding@@SAJH@Z$67 100255bc f   coreclrembedding.obj
 0001:000245c7       __unwindfunclet$?Initialize@CoreClrEmbedding@@SAJH@Z$68 100255c7 f   coreclrembedding.obj
 0001:000245d2       __unwindfunclet$?Initialize@CoreClrEmbedding@@SAJH@Z$69 100255d2 f   coreclrembedding.obj
 0001:000245dd       __unwindfunclet$?Initialize@CoreClrEmbedding@@SAJH@Z$70 100255dd f   coreclrembedding.obj
 0001:000245e8       __unwindfunclet$?Initialize@CoreClrEmbedding@@SAJH@Z$71 100255e8 f   coreclrembedding.obj
 0001:000245f3       __unwindfunclet$?Initialize@CoreClrEmbedding@@SAJH@Z$72 100255f3 f   coreclrembedding.obj
 0001:000245fe       __unwindfunclet$?Initialize@CoreClrEmbedding@@SAJH@Z$73 100255fe f   coreclrembedding.obj
 0001:00024609       __unwindfunclet$?Initialize@CoreClrEmbedding@@SAJH@Z$74 10025609 f   coreclrembedding.obj
 0001:00024614       __unwindfunclet$?Initialize@CoreClrEmbedding@@SAJH@Z$75 10025614 f   coreclrembedding.obj
 0001:0002461f       __unwindfunclet$?Initialize@CoreClrEmbedding@@SAJH@Z$76 1002561f f   coreclrembedding.obj
 0001:0002462a       __unwindfunclet$?Initialize@CoreClrEmbedding@@SAJH@Z$77 1002562a f   coreclrembedding.obj
 0001:00024635       __unwindfunclet$?Initialize@CoreClrEmbedding@@SAJH@Z$78 10025635 f   coreclrembedding.obj
 0001:00024640       __ehhandler$?Initialize@CoreClrEmbedding@@SAJH@Z 10025640 f   coreclrembedding.obj
 0001:00024670       __ehhandler$??1deps_resolver_t@@QAE@XZ 10025670 f   coreclrembedding.obj
 0001:00024690       __unwindfunclet$??0deps_entry_t@@QAE@ABU0@@Z$0 10025690 f   coreclrembedding.obj
 0001:00024698       __unwindfunclet$??0deps_entry_t@@QAE@ABU0@@Z$1 10025698 f   coreclrembedding.obj
 0001:000246a3       __unwindfunclet$??0deps_entry_t@@QAE@ABU0@@Z$2 100256a3 f   coreclrembedding.obj
 0001:000246ae       __unwindfunclet$??0deps_entry_t@@QAE@ABU0@@Z$3 100256ae f   coreclrembedding.obj
 0001:000246b9       __unwindfunclet$??0deps_entry_t@@QAE@ABU0@@Z$4 100256b9 f   coreclrembedding.obj
 0001:000246c4       __ehhandler$??0deps_entry_t@@QAE@ABU0@@Z 100256c4 f   coreclrembedding.obj
 0001:000246e0       __ehhandler$??1?$function@$$A6A?AV?$basic_string@_WU?$char_traits@_W@std@@V?$allocator@_W@2@@std@@ABV12@@Z@std@@QAE@XZ 100256e0 f   deps_resolver.obj
 0001:000246e0       __ehhandler$??1?$pair@V?$basic_string@_WU?$char_traits@_W@std@@V?$allocator@_W@2@@std@@Vvalue@json@web@@@std@@QAE@XZ 100256e0 f   json.obj
 0001:000246e0       __ehhandler$??1?$unique_ptr@Vdeps_json_t@@U?$default_delete@Vdeps_json_t@@@std@@@std@@QAE@XZ 100256e0 f   coreclrembedding.obj
 0001:000246e0       __ehhandler$??1?$pair@$$CBV?$basic_string@_WU?$char_traits@_W@std@@V?$allocator@_W@2@@std@@Uassets_t@deps_json_t@@@std@@QAE@XZ 100256e0 f   coreclrembedding.obj
 0001:000246e0       __ehhandler$??1?$function@$$A6AABV?$vector@V?$basic_string@_WU?$char_traits@_W@std@@V?$allocator@_W@2@@std@@V?$allocator@V?$basic_string@_WU?$char_traits@_W@std@@V?$allocator@_W@2@@std@@@2@@std@@ABV?$basic_string@_WU?$char_traits@_W@std@@V?$allocator@_W@2@@2@HPA_N@Z@std@@QAE@XZ 100256e0 f   deps_format.obj
 0001:000246e0       __ehhandler$??1?$function@$$A6A_NABV?$basic_string@_WU?$char_traits@_W@std@@V?$allocator@_W@2@@std@@@Z@std@@QAE@XZ 100256e0 f   deps_format.obj
 0001:000246e0       __ehhandler$??1sentry@?$basic_ostream@_WU?$char_traits@_W@std@@@std@@QAE@XZ 100256e0 f   fx_ver.obj
 0001:00024700       __ehhandler$??4?$unique_ptr@Vdeps_json_t@@U?$default_delete@Vdeps_json_t@@@std@@@std@@QAEAAV01@$$QAV01@@Z 10025700 f   coreclrembedding.obj
 0001:00024700       __ehhandler$??1?$_Uninitialized_backout_al@PAVvalue@json@web@@V?$allocator@Vvalue@json@web@@@std@@@std@@QAE@XZ 10025700 f   json.obj
 0001:00024720       __unwindfunclet$??0?$unordered_map@V?$basic_string@_WU?$char_traits@_W@std@@V?$allocator@_W@2@@std@@V12@U?$hash@V?$basic_string@_WU?$char_traits@_W@std@@V?$allocator@_W@2@@std@@@2@U?$equal_to@V?$basic_string@_WU?$char_traits@_W@std@@V?$allocator@_W@2@@std@@@2@V?$allocator@U?$pair@$$CBV?$basic_string@_WU?$char_traits@_W@std@@V?$allocator@_W@2@@std@@V12@@std@@@2@@std@@QAE@XZ$1 10025720 f   coreclrembedding.obj
 0001:0002472b       __unwindfunclet$??0?$unordered_map@V?$basic_string@_WU?$char_traits@_W@std@@V?$allocator@_W@2@@std@@V12@U?$hash@V?$basic_string@_WU?$char_traits@_W@std@@V?$allocator@_W@2@@std@@@2@U?$equal_to@V?$basic_string@_WU?$char_traits@_W@std@@V?$allocator@_W@2@@std@@@2@V?$allocator@U?$pair@$$CBV?$basic_string@_WU?$char_traits@_W@std@@V?$allocator@_W@2@@std@@V12@@std@@@2@@std@@QAE@XZ$2 1002572b f   coreclrembedding.obj
 0001:00024736       __ehhandler$??0?$unordered_map@V?$basic_string@_WU?$char_traits@_W@std@@V?$allocator@_W@2@@std@@V12@U?$hash@V?$basic_string@_WU?$char_traits@_W@std@@V?$allocator@_W@2@@std@@@2@U?$equal_to@V?$basic_string@_WU?$char_traits@_W@std@@V?$allocator@_W@2@@std@@@2@V?$allocator@U?$pair@$$CBV?$basic_string@_WU?$char_traits@_W@std@@V?$allocator@_W@2@@std@@V12@@std@@@2@@std@@QAE@XZ 10025736 f   coreclrembedding.obj
 0001:00024760       __unwindfunclet$??0?$unordered_map@V?$basic_string@_WU?$char_traits@_W@std@@V?$allocator@_W@2@@std@@Uassets_t@deps_json_t@@U?$hash@V?$basic_string@_WU?$char_traits@_W@std@@V?$allocator@_W@2@@std@@@2@U?$equal_to@V?$basic_string@_WU?$char_traits@_W@std@@V?$allocator@_W@2@@std@@@2@V?$allocator@U?$pair@$$CBV?$basic_string@_WU?$char_traits@_W@std@@V?$allocator@_W@2@@std@@Uassets_t@deps_json_t@@@std@@@2@@std@@QAE@XZ$1 10025760 f   coreclrembedding.obj
 0001:0002476b       __unwindfunclet$??0?$unordered_map@V?$basic_string@_WU?$char_traits@_W@std@@V?$allocator@_W@2@@std@@Uassets_t@deps_json_t@@U?$hash@V?$basic_string@_WU?$char_traits@_W@std@@V?$allocator@_W@2@@std@@@2@U?$equal_to@V?$basic_string@_WU?$char_traits@_W@std@@V?$allocator@_W@2@@std@@@2@V?$allocator@U?$pair@$$CBV?$basic_string@_WU?$char_traits@_W@std@@V?$allocator@_W@2@@std@@Uassets_t@deps_json_t@@@std@@@2@@std@@QAE@XZ$2 1002576b f   coreclrembedding.obj
 0001:00024776       __ehhandler$??0?$unordered_map@V?$basic_string@_WU?$char_traits@_W@std@@V?$allocator@_W@2@@std@@Uassets_t@deps_json_t@@U?$hash@V?$basic_string@_WU?$char_traits@_W@std@@V?$allocator@_W@2@@std@@@2@U?$equal_to@V?$basic_string@_WU?$char_traits@_W@std@@V?$allocator@_W@2@@std@@@2@V?$allocator@U?$pair@$$CBV?$basic_string@_WU?$char_traits@_W@std@@V?$allocator@_W@2@@std@@Uassets_t@deps_json_t@@@std@@@2@@std@@QAE@XZ 10025776 f   coreclrembedding.obj
 0001:000247a0       __unwindfunclet$??0?$unordered_map@V?$basic_string@_WU?$char_traits@_W@std@@V?$allocator@_W@2@@std@@V?$vector@V?$basic_string@_WU?$char_traits@_W@std@@V?$allocator@_W@2@@std@@V?$allocator@V?$basic_string@_WU?$char_traits@_W@std@@V?$allocator@_W@2@@std@@@2@@2@U?$hash@V?$basic_string@_WU?$char_traits@_W@std@@V?$allocator@_W@2@@std@@@2@U?$equal_to@V?$basic_string@_WU?$char_traits@_W@std@@V?$allocator@_W@2@@std@@@2@V?$allocator@U?$pair@$$CBV?$basic_string@_WU?$char_traits@_W@std@@V?$allocator@_W@2@@std@@V?$vector@V?$basic_string@_WU?$char_traits@_W@std@@V?$allocator@_W@2@@std@@V?$allocator@V?$basic_string@_WU?$char_traits@_W@std@@V?$allocator@_W@2@@std@@@2@@2@@std@@@2@@std@@QAE@XZ$1 100257a0 f   coreclrembedding.obj
 0001:000247ab       __unwindfunclet$??0?$unordered_map@V?$basic_string@_WU?$char_traits@_W@std@@V?$allocator@_W@2@@std@@V?$vector@V?$basic_string@_WU?$char_traits@_W@std@@V?$allocator@_W@2@@std@@V?$allocator@V?$basic_string@_WU?$char_traits@_W@std@@V?$allocator@_W@2@@std@@@2@@2@U?$hash@V?$basic_string@_WU?$char_traits@_W@std@@V?$allocator@_W@2@@std@@@2@U?$equal_to@V?$basic_string@_WU?$char_traits@_W@std@@V?$allocator@_W@2@@std@@@2@V?$allocator@U?$pair@$$CBV?$basic_string@_WU?$char_traits@_W@std@@V?$allocator@_W@2@@std@@V?$vector@V?$basic_string@_WU?$char_traits@_W@std@@V?$allocator@_W@2@@std@@V?$allocator@V?$basic_string@_WU?$char_traits@_W@std@@V?$allocator@_W@2@@std@@@2@@2@@std@@@2@@std@@QAE@XZ$2 100257ab f   coreclrembedding.obj
 0001:000247b6       __ehhandler$??0?$unordered_map@V?$basic_string@_WU?$char_traits@_W@std@@V?$allocator@_W@2@@std@@V?$vector@V?$basic_string@_WU?$char_traits@_W@std@@V?$allocator@_W@2@@std@@V?$allocator@V?$basic_string@_WU?$char_traits@_W@std@@V?$allocator@_W@2@@std@@@2@@2@U?$hash@V?$basic_string@_WU?$char_traits@_W@std@@V?$allocator@_W@2@@std@@@2@U?$equal_to@V?$basic_string@_WU?$char_traits@_W@std@@V?$allocator@_W@2@@std@@@2@V?$allocator@U?$pair@$$CBV?$basic_string@_WU?$char_traits@_W@std@@V?$allocator@_W@2@@std@@V?$vector@V?$basic_string@_WU?$char_traits@_W@std@@V?$allocator@_W@2@@std@@V?$allocator@V?$basic_string@_WU?$char_traits@_W@std@@V?$allocator@_W@2@@std@@@2@@2@@std@@@2@@std@@QAE@XZ 100257b6 f   coreclrembedding.obj
 0001:000247e0       __ehhandler$??0?$vector@V?$basic_string@_WU?$char_traits@_W@std@@V?$allocator@_W@2@@std@@V?$allocator@V?$basic_string@_WU?$char_traits@_W@std@@V?$allocator@_W@2@@std@@@2@@std@@QAE@ABV01@@Z 100257e0 f   coreclrembedding.obj
 0001:00024800       __unwindfunclet$??0?$unordered_set@V?$basic_string@_WU?$char_traits@_W@std@@V?$allocator@_W@2@@std@@U?$hash@V?$basic_string@_WU?$char_traits@_W@std@@V?$allocator@_W@2@@std@@@2@U?$equal_to@V?$basic_string@_WU?$char_traits@_W@std@@V?$allocator@_W@2@@std@@@2@V?$allocator@V?$basic_string@_WU?$char_traits@_W@std@@V?$allocator@_W@2@@std@@@2@@std@@QAE@XZ$1 10025800 f   coreclrembedding.obj
 0001:0002480b       __unwindfunclet$??0?$unordered_set@V?$basic_string@_WU?$char_traits@_W@std@@V?$allocator@_W@2@@std@@U?$hash@V?$basic_string@_WU?$char_traits@_W@std@@V?$allocator@_W@2@@std@@@2@U?$equal_to@V?$basic_string@_WU?$char_traits@_W@std@@V?$allocator@_W@2@@std@@@2@V?$allocator@V?$basic_string@_WU?$char_traits@_W@std@@V?$allocator@_W@2@@std@@@2@@std@@QAE@XZ$2 1002580b f   coreclrembedding.obj
 0001:00024816       __ehhandler$??0?$unordered_set@V?$basic_string@_WU?$char_traits@_W@std@@V?$allocator@_W@2@@std@@U?$hash@V?$basic_string@_WU?$char_traits@_W@std@@V?$allocator@_W@2@@std@@@2@U?$equal_to@V?$basic_string@_WU?$char_traits@_W@std@@V?$allocator@_W@2@@std@@@2@V?$allocator@V?$basic_string@_WU?$char_traits@_W@std@@V?$allocator@_W@2@@std@@@2@@std@@QAE@XZ 10025816 f   coreclrembedding.obj
 0001:00024840       __unwindfunclet$??$?H_WU?$char_traits@_W@std@@V?$allocator@_W@1@@std@@YA?AV?$basic_string@_WU?$char_traits@_W@std@@V?$allocator@_W@2@@0@QB_WABV10@@Z$0 10025840 f   coreclrembedding.obj
 0001:00024840       __unwindfunclet$??$?H_WU?$char_traits@_W@std@@V?$allocator@_W@1@@std@@YA?AV?$basic_string@_WU?$char_traits@_W@std@@V?$allocator@_W@2@@0@ABV10@QB_W@Z$0 10025840 f   coreclrembedding.obj
 0001:00024859       __ehhandler$??$?H_WU?$char_traits@_W@std@@V?$allocator@_W@1@@std@@YA?AV?$basic_string@_WU?$char_traits@_W@std@@V?$allocator@_W@2@@0@QB_WABV10@@Z 10025859 f   coreclrembedding.obj
 0001:00024859       __ehhandler$??$?H_WU?$char_traits@_W@std@@V?$allocator@_W@1@@std@@YA?AV?$basic_string@_WU?$char_traits@_W@std@@V?$allocator@_W@2@@0@ABV10@QB_W@Z 10025859 f   coreclrembedding.obj
 0001:00024880       __ehhandler$??$_Emplace_reallocate@ABV?$basic_string@_WU?$char_traits@_W@std@@V?$allocator@_W@2@@std@@@?$vector@V?$basic_string@_WU?$char_traits@_W@std@@V?$allocator@_W@2@@std@@V?$allocator@V?$basic_string@_WU?$char_traits@_W@std@@V?$allocator@_W@2@@std@@@2@@std@@QAEPAV?$basic_string@_WU?$char_traits@_W@std@@V?$allocator@_W@2@@1@QAV21@ABV21@@Z 10025880 f   coreclrembedding.obj
 0001:000248a0       __unwindfunclet$??$_Ucopy@PAV?$basic_string@_WU?$char_traits@_W@std@@V?$allocator@_W@2@@std@@@?$vector@V?$basic_string@_WU?$char_traits@_W@std@@V?$allocator@_W@2@@std@@V?$allocator@V?$basic_string@_WU?$char_traits@_W@std@@V?$allocator@_W@2@@std@@@2@@std@@AAEPAV?$basic_string@_WU?$char_traits@_W@std@@V?$allocator@_W@2@@1@PAV21@00@Z$0 100258a0 f   coreclrembedding.obj
 0001:000248a0       __unwindfunclet$??$_Ucopy@PBV?$basic_string@_WU?$char_traits@_W@std@@V?$allocator@_W@2@@std@@@?$vector@V?$basic_string@_WU?$char_traits@_W@std@@V?$allocator@_W@2@@std@@V?$allocator@V?$basic_string@_WU?$char_traits@_W@std@@V?$allocator@_W@2@@std@@@2@@std@@AAEPAV?$basic_string@_WU?$char_traits@_W@std@@V?$allocator@_W@2@@1@PBV21@0PAV21@@Z$0 100258a0 f   fx_muxer.obj
 0001:000248a8       __ehhandler$??$_Ucopy@PBV?$basic_string@_WU?$char_traits@_W@std@@V?$allocator@_W@2@@std@@@?$vector@V?$basic_string@_WU?$char_traits@_W@std@@V?$allocator@_W@2@@std@@V?$allocator@V?$basic_string@_WU?$char_traits@_W@std@@V?$allocator@_W@2@@std@@@2@@std@@AAEPAV?$basic_string@_WU?$char_traits@_W@std@@V?$allocator@_W@2@@1@PBV21@0PAV21@@Z 100258a8 f   fx_muxer.obj
 0001:000248a8       __ehhandler$??$_Ucopy@PAV?$basic_string@_WU?$char_traits@_W@std@@V?$allocator@_W@2@@std@@@?$vector@V?$basic_string@_WU?$char_traits@_W@std@@V?$allocator@_W@2@@std@@V?$allocator@V?$basic_string@_WU?$char_traits@_W@std@@V?$allocator@_W@2@@std@@@2@@std@@AAEPAV?$basic_string@_WU?$char_traits@_W@std@@V?$allocator@_W@2@@1@PAV21@00@Z 100258a8 f   coreclrembedding.obj
 0001:000248d0       __unwindfunclet$?coreClrFuncProxy@@YAXABV?$FunctionCallbackInfo@VValue@v8@@@Nan@@@Z$0 100258d0 f   coreclrfunc.obj
 0001:000248d8       __ehhandler$?coreClrFuncProxy@@YAXABV?$FunctionCallbackInfo@VValue@v8@@@Nan@@@Z 100258d8 f   coreclrfunc.obj
 0001:00024900       __unwindfunclet$?InitializeInstance@CoreClrFunc@@CA?AV?$Local@VFunction@v8@@@v8@@PAX@Z$2 10025900 f   coreclrfunc.obj
 0001:00024908       __unwindfunclet$?InitializeInstance@CoreClrFunc@@CA?AV?$Local@VFunction@v8@@@v8@@PAX@Z$6 10025908 f   coreclrfunc.obj
 0001:00024911       __unwindfunclet$?InitializeInstance@CoreClrFunc@@CA?AV?$Local@VFunction@v8@@@v8@@PAX@Z$4 10025911 f   coreclrfunc.obj
 0001:00024916       __ehhandler$?InitializeInstance@CoreClrFunc@@CA?AV?$Local@VFunction@v8@@@v8@@PAX@Z 10025916 f   coreclrfunc.obj
 0001:00024940       __ehhandler$?ParseValue@?$JSON_Parser@D@details@json@web@@QAE?AVvalue@34@AAUToken@1234@@Z 10025940 f   json_parsing.obj
 0001:00024940       __ehhandler$??__FproxyFunction@?1??InitializeInstance@CoreClrFunc@@CA?AV?$Local@VFunction@v8@@@v8@@PAX@Z@YAXXZ 10025940 f   coreclrfunc.obj
 0001:00024940       __ehhandler$??__FcallbackFunction@?1??InvokeCallback@CoreClrNodejsFuncInvokeContext@@SAXPAX@Z@YAXXZ 10025940 f   coreclrnodejsfuncinvokecontext.obj
 0001:00024940       __ehhandler$??__FproxyFactory@?1??InitializeInstance@CoreClrFunc@@CA?AV?$Local@VFunction@v8@@@v8@@PAX@Z@YAXXZ 10025940 f   coreclrfunc.obj
 0001:00024940       __ehhandler$??__Fg_c_locale@details@utility@@YAXXZ 10025940 f   asyncrt_utils.obj
 0001:00024940       __ehhandler$??__FcallbackFactory@?1??InvokeCallback@CoreClrNodejsFuncInvokeContext@@SAXPAX@Z@YAXXZ 10025940 f   coreclrnodejsfuncinvokecontext.obj
 0001:00024960       __unwindfunclet$?Call@CoreClrFunc@@QAE?AV?$Local@VValue@v8@@@v8@@V23@0@Z$0 10025960 f   coreclrfunc.obj
 0001:00024968       __unwindfunclet$?Call@CoreClrFunc@@QAE?AV?$Local@VValue@v8@@@v8@@V23@0@Z$1 10025968 f   coreclrfunc.obj
 0001:00024973       __unwindfunclet$?Call@CoreClrFunc@@QAE?AV?$Local@VValue@v8@@@v8@@V23@0@Z$5 10025973 f   coreclrfunc.obj
 0001:0002497e       __ehhandler$?Call@CoreClrFunc@@QAE?AV?$Local@VValue@v8@@@v8@@V23@0@Z 1002597e f   coreclrfunc.obj
 0001:000249a0       __unwindfunclet$?Initialize@CoreClrFunc@@SAXABV?$FunctionCallbackInfo@VValue@v8@@@Nan@@@Z$0 100259a0 f   coreclrfunc.obj
 0001:000249a8       __unwindfunclet$?Initialize@CoreClrFunc@@SAXABV?$FunctionCallbackInfo@VValue@v8@@@Nan@@@Z$1 100259a8 f   coreclrfunc.obj
 0001:000249b1       __unwindfunclet$?Initialize@CoreClrFunc@@SAXABV?$FunctionCallbackInfo@VValue@v8@@@Nan@@@Z$2 100259b1 f   coreclrfunc.obj
 0001:000249ba       __unwindfunclet$?Initialize@CoreClrFunc@@SAXABV?$FunctionCallbackInfo@VValue@v8@@@Nan@@@Z$3 100259ba f   coreclrfunc.obj
 0001:000249c3       __ehhandler$?Initialize@CoreClrFunc@@SAXABV?$FunctionCallbackInfo@VValue@v8@@@Nan@@@Z 100259c3 f   coreclrfunc.obj
 0001:000249e0       __unwindfunclet$?CopyV8StringBytes@CoreClrFunc@@CAPADV?$Local@VString@v8@@@v8@@@Z$0 100259e0 f   coreclrfunc.obj
 0001:000249e9       __ehhandler$?CopyV8StringBytes@CoreClrFunc@@CAPADV?$Local@VString@v8@@@v8@@@Z 100259e9 f   coreclrfunc.obj
 0001:00024a10       __unwindfunclet$?MarshalV8ExceptionToCLR@CoreClrFunc@@SAXV?$Local@VValue@v8@@@v8@@PAPAX@Z$0 10025a10 f   coreclrfunc.obj
 0001:00024a18       __unwindfunclet$?MarshalV8ExceptionToCLR@CoreClrFunc@@SAXV?$Local@VValue@v8@@@v8@@PAPAX@Z$3 10025a18 f   coreclrfunc.obj
 0001:00024a21       __ehhandler$?MarshalV8ExceptionToCLR@CoreClrFunc@@SAXV?$Local@VValue@v8@@@v8@@PAPAX@Z 10025a21 f   coreclrfunc.obj
 0001:00024a40       __unwindfunclet$?MarshalV8ToCLR@CoreClrFunc@@SAXV?$Local@VValue@v8@@@v8@@PAPAXPAH@Z$0 10025a40 f   coreclrfunc.obj
 0001:00024a4b       __ehhandler$?MarshalV8ToCLR@CoreClrFunc@@SAXV?$Local@VValue@v8@@@v8@@PAPAXPAH@Z 10025a4b f   coreclrfunc.obj
 0001:00024a70       __unwindfunclet$?MarshalCLRToV8@CoreClrFunc@@SA?AV?$Local@VValue@v8@@@v8@@PAXH@Z$0 10025a70 f   coreclrfunc.obj
 0001:00024a78       __unwindfunclet$?MarshalCLRToV8@CoreClrFunc@@SA?AV?$Local@VValue@v8@@@v8@@PAXH@Z$4 10025a78 f   coreclrfunc.obj
 0001:00024a81       __ehhandler$?MarshalCLRToV8@CoreClrFunc@@SA?AV?$Local@VValue@v8@@@v8@@PAXH@Z 10025a81 f   coreclrfunc.obj
 0001:00024aa0       __unwindfunclet$??$New@VDate@v8@@N@Nan@@YA?AV?$MaybeLocal@VDate@v8@@@v8@@N@Z$0 10025aa0 f   coreclrfunc.obj
 0001:00024aa9       __ehhandler$??$New@VDate@v8@@N@Nan@@YA?AV?$MaybeLocal@VDate@v8@@@v8@@N@Z 10025aa9 f   coreclrfunc.obj
 0001:00024ad0       __ehhandler$?_Umove_if_noexcept@?$vector@Vvalue@json@web@@V?$allocator@Vvalue@json@web@@@std@@@std@@AAEXPAVvalue@json@web@@00@Z 10025ad0 f   json.obj
 0001:00024ad0       __ehhandler$??$invokeparameter@$00@?$WeakCallbackInfo@X@Nan@@CAXABV?$WeakCallbackInfo@V?$WeakCallbackInfo@X@Nan@@@v8@@@Z 10025ad0 f   coreclrfunc.obj
 0001:00024ad0       __ehhandler$?_Destroy@?$vector@Vvalue@json@web@@V?$allocator@Vvalue@json@web@@@std@@@std@@AAEXPAVvalue@json@web@@0@Z 10025ad0 f   json.obj
 0001:00024af0       __ehhandler$??$invokeparameter@$0A@@?$WeakCallbackInfo@X@Nan@@CAXABV?$WeakCallbackInfo@V?$WeakCallbackInfo@X@Nan@@@v8@@@Z 10025af0 f   coreclrfunc.obj
 0001:00024b10       __unwindfunclet$??0CoreClrFuncInvokeContext@@QAE@V?$Local@VValue@v8@@@v8@@PAX@Z$0 10025b10 f   coreclrfuncinvokecontext.obj
 0001:00024b1b       __ehhandler$??0CoreClrFuncInvokeContext@@QAE@V?$Local@VValue@v8@@@v8@@PAX@Z 10025b1b f   coreclrfuncinvokecontext.obj
 0001:00024b40       __unwindfunclet$?InvokeCallback@CoreClrFuncInvokeContext@@SAXPAX@Z$0 10025b40 f   coreclrfuncinvokecontext.obj
 0001:00024b48       __ehhandler$?InvokeCallback@CoreClrFuncInvokeContext@@SAXPAX@Z 10025b48 f   coreclrfuncinvokecontext.obj
 0001:00024b70       __unwindfunclet$?coreClrV8FuncCallback@@YAXABV?$FunctionCallbackInfo@VValue@v8@@@Nan@@@Z$0 10025b70 f   coreclrnodejsfuncinvokecontext.obj
 0001:00024b78       __ehhandler$?coreClrV8FuncCallback@@YAXABV?$FunctionCallbackInfo@VValue@v8@@@Nan@@@Z 10025b78 f   coreclrnodejsfuncinvokecontext.obj
 0001:00024ba0       __unwindfunclet$?InvokeCallback@CoreClrNodejsFuncInvokeContext@@SAXPAX@Z$2 10025ba0 f   coreclrnodejsfuncinvokecontext.obj
 0001:00024ba8       __unwindfunclet$?InvokeCallback@CoreClrNodejsFuncInvokeContext@@SAXPAX@Z$3 10025ba8 f   coreclrnodejsfuncinvokecontext.obj
 0001:00024bb0       __unwindfunclet$?InvokeCallback@CoreClrNodejsFuncInvokeContext@@SAXPAX@Z$6 10025bb0 f   coreclrnodejsfuncinvokecontext.obj
 0001:00024bb9       __unwindfunclet$?InvokeCallback@CoreClrNodejsFuncInvokeContext@@SAXPAX@Z$8 10025bb9 f   coreclrnodejsfuncinvokecontext.obj
 0001:00024bc1       __ehhandler$?InvokeCallback@CoreClrNodejsFuncInvokeContext@@SAXPAX@Z 10025bc1 f   coreclrnodejsfuncinvokecontext.obj
 0001:00024be0       __unwindfunclet$?throwV8Exception@@YA?AV?$Local@VValue@v8@@@v8@@V12@@Z$0 10025be0 f   utils.obj
 0001:00024be8       __ehhandler$?throwV8Exception@@YA?AV?$Local@VValue@v8@@@v8@@V12@@Z 10025be8 f   utils.obj
 0001:00024c10       __unwindfunclet$?throwV8Exception@@YA?AV?$Local@VValue@v8@@@v8@@PBDZZ$0 10025c10 f   utils.obj
 0001:00024c18       __ehhandler$?throwV8Exception@@YA?AV?$Local@VValue@v8@@@v8@@PBDZZ 10025c18 f   utils.obj
 0001:00024c40       __unwindfunclet$?library_exists_in_dir@@YA_NABV?$basic_string@_WU?$char_traits@_W@std@@V?$allocator@_W@2@@std@@0PAV12@@Z$0 10025c40 f   pal_utils.obj
 0001:00024c48       __ehhandler$?library_exists_in_dir@@YA_NABV?$basic_string@_WU?$char_traits@_W@std@@V?$allocator@_W@2@@std@@0PAV12@@Z 10025c48 f   pal_utils.obj
 0001:00024c70       __unwindfunclet$?coreclr_exists_in_dir@@YA_NABV?$basic_string@_WU?$char_traits@_W@std@@V?$allocator@_W@2@@std@@@Z$0 10025c70 f   pal_utils.obj
 0001:00024c78       __ehhandler$?coreclr_exists_in_dir@@YA_NABV?$basic_string@_WU?$char_traits@_W@std@@V?$allocator@_W@2@@std@@@Z 10025c78 f   pal_utils.obj
 0001:00024ca0       __ehhandler$??$_Insert@AAU?$pair@$$CBV?$basic_string@_WU?$char_traits@_W@std@@V?$allocator@_W@2@@std@@V?$vector@V?$basic_string@_WU?$char_traits@_W@std@@V?$allocator@_W@2@@std@@V?$allocator@V?$basic_string@_WU?$char_traits@_W@std@@V?$allocator@_W@2@@std@@@2@@2@@std@@V?$_List_unchecked_iterator@V?$_List_val@U?$_List_simple_types@U?$pair@$$CBV?$basic_string@_WU?$char_traits@_W@std@@V?$allocator@_W@2@@std@@V?$vector@V?$basic_string@_WU?$char_traits@_W@std@@V?$allocator@_W@2@@std@@V?$allocator@V?$basic_string@_WU?$char_traits@_W@std@@V?$allocator@_W@2@@std@@@2@@2@@std@@@std@@@std@@@2@@?$_Hash@V?$_Umap_traits@V?$basic_string@_WU?$char_traits@_W@std@@V?$allocator@_W@2@@std@@V?$vector@V?$basic_string@_WU?$char_traits@_W@std@@V?$allocator@_W@2@@std@@V?$allocator@V?$basic_string@_WU?$char_traits@_W@std@@V?$allocator@_W@2@@std@@@2@@2@V?$_Uhash_compare@V?$basic_string@_WU?$char_traits@_W@std@@V?$allocator@_W@2@@std@@U?$hash@V?$basic_string@_WU?$char_traits@_W@std@@V?$allocator@_W@2@@std@@@2@U?$equal_to@V?$basic_string@_WU?$char_traits@_W@std@@V?$allocator@_W@2@@std@@@2@@2@V?$allocator@U?$pair@$$CBV?$basic_string@_WU?$char_traits@_W@std@@V?$allocator@_W@2@@std@@V?$vector@V?$basic_string@_WU?$char_traits@_W@std@@V?$allocator@_W@2@@std@@V?$allocator@V?$basic_string@_WU?$char_traits@_W@std@@V?$allocator@_W@2@@std@@@2@@2@@std@@@2@$0A@@std@@@std@@IAE?AU?$pair@V?$_List_iterator@V?$_List_val@U?$_List_simple_types@U?$pair@$$CBV?$basic_string@_WU?$char_traits@_W@std@@V?$allocator@_W@2@@std@@V?$vector@V?$basic_string@_WU?$char_traits@_W@std@@V?$allocator@_W@2@@std@@V?$allocator@V?$basic_string@_WU?$char_traits@_W@std@@V?$allocator@_W@2@@std@@@2@@2@@std@@@std@@@std@@@std@@_N@1@AAU?$pair@$$CBV?$basic_string@_WU?$char_traits@_W@std@@V?$allocator@_W@2@@std@@V?$vector@V?$basic_string@_WU?$char_traits@_W@std@@V?$allocator@_W@2@@std@@V?$allocator@V?$basic_string@_WU?$char_traits@_W@std@@V?$allocator@_W@2@@std@@@2@@2@@1@V?$_List_unchecked_iterator@V?$_List_val@U?$_List_simple_types@U?$pair@$$CBV?$basic_string@_WU?$char_traits@_W@std@@V?$allocator@_W@2@@std@@V?$vector@V?$basic_string@_WU?$char_traits@_W@std@@V?$allocator@_W@2@@std@@V?$allocator@V?$basic_string@_WU?$char_traits@_W@std@@V?$allocator@_W@2@@std@@@2@@2@@std@@@std@@@std@@@1@@Z 10025ca0 f   pal_utils.obj
 0001:00024cc0       __ehhandler$??$_Buynode@ABUpiecewise_construct_t@std@@V?$tuple@ABV?$basic_string@_WU?$char_traits@_W@std@@V?$allocator@_W@2@@std@@@2@V?$tuple@$$V@2@@?$_List_buy@U?$pair@$$CBV?$basic_string@_WU?$char_traits@_W@std@@V?$allocator@_W@2@@std@@V?$vector@V?$basic_string@_WU?$char_traits@_W@std@@V?$allocator@_W@2@@std@@V?$allocator@V?$basic_string@_WU?$char_traits@_W@std@@V?$allocator@_W@2@@std@@@2@@2@@std@@V?$allocator@U?$pair@$$CBV?$basic_string@_WU?$char_traits@_W@std@@V?$allocator@_W@2@@std@@V?$vector@V?$basic_string@_WU?$char_traits@_W@std@@V?$allocator@_W@2@@std@@V?$allocator@V?$basic_string@_WU?$char_traits@_W@std@@V?$allocator@_W@2@@std@@@2@@2@@std@@@2@@std@@QAEPAU?$_List_node@U?$pair@$$CBV?$basic_string@_WU?$char_traits@_W@std@@V?$allocator@_W@2@@std@@V?$vector@V?$basic_string@_WU?$char_traits@_W@std@@V?$allocator@_W@2@@std@@V?$allocator@V?$basic_string@_WU?$char_traits@_W@std@@V?$allocator@_W@2@@std@@@2@@2@@std@@PAX@1@PAU21@0ABUpiecewise_construct_t@1@$$QAV?$tuple@ABV?$basic_string@_WU?$char_traits@_W@std@@V?$allocator@_W@2@@std@@@1@$$QAV?$tuple@$$V@1@@Z 10025cc0 f   pal_utils.obj
 0001:00024ce0       __unwindfunclet$?setup@trace@@YAXXZ$0 10025ce0 f   trace.obj
 0001:00024ce8       __ehhandler$?setup@trace@@YAXXZ 10025ce8 f   trace.obj
 0001:00024d10       __unwindfunclet$??0fx_ver_t@@QAE@HHHABV?$basic_string@_WU?$char_traits@_W@std@@V?$allocator@_W@2@@std@@0@Z$0 10025d10 f   fx_ver.obj
 0001:00024d1b       __ehhandler$??0fx_ver_t@@QAE@HHHABV?$basic_string@_WU?$char_traits@_W@std@@V?$allocator@_W@2@@std@@0@Z 10025d1b f   fx_ver.obj
 0001:00024d40       __unwindfunclet$??0fx_ver_t@@QAE@HHH@Z$0 10025d40 f   fx_ver.obj
 0001:00024d48       __unwindfunclet$??0fx_ver_t@@QAE@HHH@Z$1 10025d48 f   fx_ver.obj
 0001:00024d50       __unwindfunclet$??0fx_ver_t@@QAE@HHH@Z$3 10025d50 f   fx_ver.obj
 0001:00024d5b       __ehhandler$??0fx_ver_t@@QAE@HHH@Z 10025d5b f   fx_ver.obj
 0001:00024d80       __unwindfunclet$?patch_glob@fx_ver_t@@QBE?AV?$basic_string@_WU?$char_traits@_W@std@@V?$allocator@_W@2@@std@@XZ$0 10025d80 f   fx_ver.obj
 0001:00024d80       __unwindfunclet$?as_str@fx_ver_t@@QBE?AV?$basic_string@_WU?$char_traits@_W@std@@V?$allocator@_W@2@@std@@XZ$0 10025d80 f   fx_ver.obj
 0001:00024d80       __unwindfunclet$?prerelease_glob@fx_ver_t@@QBE?AV?$basic_string@_WU?$char_traits@_W@std@@V?$allocator@_W@2@@std@@XZ$0 10025d80 f   fx_ver.obj
 0001:00024d8b       __ehhandler$?prerelease_glob@fx_ver_t@@QBE?AV?$basic_string@_WU?$char_traits@_W@std@@V?$allocator@_W@2@@std@@XZ 10025d8b f   fx_ver.obj
 0001:00024d8b       __ehhandler$?patch_glob@fx_ver_t@@QBE?AV?$basic_string@_WU?$char_traits@_W@std@@V?$allocator@_W@2@@std@@XZ 10025d8b f   fx_ver.obj
 0001:00024d8b       __ehhandler$?as_str@fx_ver_t@@QBE?AV?$basic_string@_WU?$char_traits@_W@std@@V?$allocator@_W@2@@std@@XZ 10025d8b f   fx_ver.obj
 0001:00024db0       __unwindfunclet$?parse_internal@@YA_NABV?$basic_string@_WU?$char_traits@_W@std@@V?$allocator@_W@2@@std@@PAUfx_ver_t@@_N@Z$0 10025db0 f   fx_ver.obj
 0001:00024db8       __unwindfunclet$?parse_internal@@YA_NABV?$basic_string@_WU?$char_traits@_W@std@@V?$allocator@_W@2@@std@@PAUfx_ver_t@@_N@Z$1 10025db8 f   fx_ver.obj
 0001:00024dc0       __unwindfunclet$?parse_internal@@YA_NABV?$basic_string@_WU?$char_traits@_W@std@@V?$allocator@_W@2@@std@@PAUfx_ver_t@@_N@Z$2 10025dc0 f   fx_ver.obj
 0001:00024dc8       __unwindfunclet$?parse_internal@@YA_NABV?$basic_string@_WU?$char_traits@_W@std@@V?$allocator@_W@2@@std@@PAUfx_ver_t@@_N@Z$4 10025dc8 f   fx_ver.obj
 0001:00024dd0       __unwindfunclet$?parse_internal@@YA_NABV?$basic_string@_WU?$char_traits@_W@std@@V?$allocator@_W@2@@std@@PAUfx_ver_t@@_N@Z$5 10025dd0 f   fx_ver.obj
 0001:00024ddb       __unwindfunclet$?parse_internal@@YA_NABV?$basic_string@_WU?$char_traits@_W@std@@V?$allocator@_W@2@@std@@PAUfx_ver_t@@_N@Z$27 10025ddb f   fx_ver.obj
 0001:00024de3       __unwindfunclet$?parse_internal@@YA_NABV?$basic_string@_WU?$char_traits@_W@std@@V?$allocator@_W@2@@std@@PAUfx_ver_t@@_N@Z$29 10025de3 f   fx_ver.obj
 0001:00024deb       __unwindfunclet$?parse_internal@@YA_NABV?$basic_string@_WU?$char_traits@_W@std@@V?$allocator@_W@2@@std@@PAUfx_ver_t@@_N@Z$7 10025deb f   fx_ver.obj
 0001:00024df6       __unwindfunclet$?parse_internal@@YA_NABV?$basic_string@_WU?$char_traits@_W@std@@V?$allocator@_W@2@@std@@PAUfx_ver_t@@_N@Z$8 10025df6 f   fx_ver.obj
 0001:00024dfe       __ehhandler$?parse_internal@@YA_NABV?$basic_string@_WU?$char_traits@_W@std@@V?$allocator@_W@2@@std@@PAUfx_ver_t@@_N@Z 10025dfe f   fx_ver.obj
 0001:00024e30       __unwindfunclet$??0?$basic_stringstream@_WU?$char_traits@_W@std@@V?$allocator@_W@2@@std@@QAE@H@Z$0 10025e30 f   fx_ver.obj
 0001:00024e4d       __unwindfunclet$??0?$basic_stringstream@_WU?$char_traits@_W@std@@V?$allocator@_W@2@@std@@QAE@H@Z$1 10025e4d f   fx_ver.obj
 0001:00024e59       __ehhandler$??0?$basic_stringstream@_WU?$char_traits@_W@std@@V?$allocator@_W@2@@std@@QAE@H@Z 10025e59 f   fx_ver.obj
 0001:00024e80       __unwindfunclet$?str@?$basic_stringbuf@_WU?$char_traits@_W@std@@V?$allocator@_W@2@@std@@QBE?AV?$basic_string@_WU?$char_traits@_W@std@@V?$allocator@_W@2@@2@XZ$0 10025e80 f   fx_ver.obj
 0001:00024e99       __ehhandler$?str@?$basic_stringbuf@_WU?$char_traits@_W@std@@V?$allocator@_W@2@@std@@QBE?AV?$basic_string@_WU?$char_traits@_W@std@@V?$allocator@_W@2@@2@XZ 10025e99 f   fx_ver.obj
 0001:00024ec0       __ehhandler$??1exception_ptr@std@@QAE@XZ 10025ec0 f   asyncrt_utils.obj
 0001:00024ec0       __ehhandler$??1_Sentry_base@?$basic_ostream@_WU?$char_traits@_W@std@@@std@@QAE@XZ 10025ec0 f   fx_ver.obj
 0001:00024ec0       __ehhandler$??1locale@std@@QAE@XZ 10025ec0 f   fx_muxer.obj
 0001:00024ee0       __unwindfunclet$??$?6_WU?$char_traits@_W@std@@@std@@YAAAV?$basic_ostream@_WU?$char_traits@_W@std@@@0@AAV10@PB_W@Z$3 10025ee0 f   fx_ver.obj
 0001:00024ee8       __unwindfunclet$??$?6_WU?$char_traits@_W@std@@@std@@YAAAV?$basic_ostream@_WU?$char_traits@_W@std@@@0@AAV10@PB_W@Z$2 10025ee8 f   fx_ver.obj
 0001:00024ef0       __ehhandler$??$?6_WU?$char_traits@_W@std@@@std@@YAAAV?$basic_ostream@_WU?$char_traits@_W@std@@@0@AAV10@PB_W@Z 10025ef0 f   fx_ver.obj
 0001:00024f10       __unwindfunclet$??$_Insert_string@_WU?$char_traits@_W@std@@I@std@@YAAAV?$basic_ostream@_WU?$char_traits@_W@std@@@0@AAV10@QB_WI@Z$3 10025f10 f   fx_ver.obj
 0001:00024f18       __unwindfunclet$??$_Insert_string@_WU?$char_traits@_W@std@@I@std@@YAAAV?$basic_ostream@_WU?$char_traits@_W@std@@@0@AAV10@QB_WI@Z$2 10025f18 f   fx_ver.obj
 0001:00024f20       __ehhandler$??$_Insert_string@_WU?$char_traits@_W@std@@I@std@@YAAAV?$basic_ostream@_WU?$char_traits@_W@std@@@0@AAV10@QB_WI@Z 10025f20 f   fx_ver.obj
 0001:00024f40       __unwindfunclet$??0json_exception@json@web@@QAE@ABQB_W@Z$0 10025f40 f   fx_muxer.obj
 0001:00024f48       __unwindfunclet$??0json_exception@json@web@@QAE@ABQB_W@Z$1 10025f48 f   fx_muxer.obj
 0001:00024f50       __ehhandler$??0json_exception@json@web@@QAE@ABQB_W@Z 10025f50 f   fx_muxer.obj
 0001:00024f80       __unwindfunclet$??0json_exception@json@web@@QAE@ABV012@@Z$0 10025f80 f   fx_muxer.obj
 0001:00024f88       __ehhandler$??0json_exception@json@web@@QAE@ABV012@@Z 10025f88 f   fx_muxer.obj
 0001:00024fb0       __unwindfunclet$?resolve_fx_dir@fx_muxer_t@@SA?AV?$basic_string@_WU?$char_traits@_W@std@@V?$allocator@_W@2@@std@@W4host_mode_t@@ABV23@ABVruntime_config_t@@1@Z$1 10025fb0 f   fx_muxer.obj
 0001:00024fb8       __unwindfunclet$?resolve_fx_dir@fx_muxer_t@@SA?AV?$basic_string@_WU?$char_traits@_W@std@@V?$allocator@_W@2@@std@@W4host_mode_t@@ABV23@ABVruntime_config_t@@1@Z$2 10025fb8 f   fx_muxer.obj
 0001:00024fc0       __unwindfunclet$?resolve_fx_dir@fx_muxer_t@@SA?AV?$basic_string@_WU?$char_traits@_W@std@@V?$allocator@_W@2@@std@@W4host_mode_t@@ABV23@ABVruntime_config_t@@1@Z$3 10025fc0 f   fx_muxer.obj
 0001:00024fcb       __unwindfunclet$?resolve_fx_dir@fx_muxer_t@@SA?AV?$basic_string@_WU?$char_traits@_W@std@@V?$allocator@_W@2@@std@@W4host_mode_t@@ABV23@ABVruntime_config_t@@1@Z$4 10025fcb f   fx_muxer.obj
 0001:00024fd3       __unwindfunclet$?resolve_fx_dir@fx_muxer_t@@SA?AV?$basic_string@_WU?$char_traits@_W@std@@V?$allocator@_W@2@@std@@W4host_mode_t@@ABV23@ABVruntime_config_t@@1@Z$5 10025fd3 f   fx_muxer.obj
 0001:00024fdb       __unwindfunclet$?resolve_fx_dir@fx_muxer_t@@SA?AV?$basic_string@_WU?$char_traits@_W@std@@V?$allocator@_W@2@@std@@W4host_mode_t@@ABV23@ABVruntime_config_t@@1@Z$6 10025fdb f   fx_muxer.obj
 0001:00024fe6       __unwindfunclet$?resolve_fx_dir@fx_muxer_t@@SA?AV?$basic_string@_WU?$char_traits@_W@std@@V?$allocator@_W@2@@std@@W4host_mode_t@@ABV23@ABVruntime_config_t@@1@Z$23 10025fe6 f   fx_muxer.obj
 0001:00024ff1       __unwindfunclet$?resolve_fx_dir@fx_muxer_t@@SA?AV?$basic_string@_WU?$char_traits@_W@std@@V?$allocator@_W@2@@std@@W4host_mode_t@@ABV23@ABVruntime_config_t@@1@Z$7 10025ff1 f   fx_muxer.obj
 0001:00024ffc       __unwindfunclet$?resolve_fx_dir@fx_muxer_t@@SA?AV?$basic_string@_WU?$char_traits@_W@std@@V?$allocator@_W@2@@std@@W4host_mode_t@@ABV23@ABVruntime_config_t@@1@Z$8 10025ffc f   fx_muxer.obj
 0001:00025007       __unwindfunclet$?resolve_fx_dir@fx_muxer_t@@SA?AV?$basic_string@_WU?$char_traits@_W@std@@V?$allocator@_W@2@@std@@W4host_mode_t@@ABV23@ABVruntime_config_t@@1@Z$9 10026007 f   fx_muxer.obj
 0001:0002500f       __ehhandler$?resolve_fx_dir@fx_muxer_t@@SA?AV?$basic_string@_WU?$char_traits@_W@std@@V?$allocator@_W@2@@std@@W4host_mode_t@@ABV23@ABVruntime_config_t@@1@Z 1002600f f   fx_muxer.obj
 0001:00025040       __unwindfunclet$?resolve_cli_version@fx_muxer_t@@CA?AV?$basic_string@_WU?$char_traits@_W@std@@V?$allocator@_W@2@@std@@ABV23@@Z$2 10026040 f   fx_muxer.obj
 0001:00025048       __unwindfunclet$?resolve_cli_version@fx_muxer_t@@CA?AV?$basic_string@_WU?$char_traits@_W@std@@V?$allocator@_W@2@@std@@ABV23@@Z$4 10026048 f   fx_muxer.obj
 0001:00025053       __unwindfunclet$?resolve_cli_version@fx_muxer_t@@CA?AV?$basic_string@_WU?$char_traits@_W@std@@V?$allocator@_W@2@@std@@ABV23@@Z$5 10026053 f   fx_muxer.obj
 0001:0002505b       __unwindfunclet$?resolve_cli_version@fx_muxer_t@@CA?AV?$basic_string@_WU?$char_traits@_W@std@@V?$allocator@_W@2@@std@@ABV23@@Z$8 1002605b f   fx_muxer.obj
 0001:00025063       __unwindfunclet$?resolve_cli_version@fx_muxer_t@@CA?AV?$basic_string@_WU?$char_traits@_W@std@@V?$allocator@_W@2@@std@@ABV23@@Z$9 10026063 f   fx_muxer.obj
 0001:0002506b       __ehhandler$?resolve_cli_version@fx_muxer_t@@CA?AV?$basic_string@_WU?$char_traits@_W@std@@V?$allocator@_W@2@@std@@ABV23@@Z 1002606b f   fx_muxer.obj
 0001:000250a0       __unwindfunclet$?resolve_sdk_version@@YA?AV?$basic_string@_WU?$char_traits@_W@std@@V?$allocator@_W@2@@std@@V12@@Z$0 100260a0 f   fx_muxer.obj
 0001:000250a8       __unwindfunclet$?resolve_sdk_version@@YA?AV?$basic_string@_WU?$char_traits@_W@std@@V?$allocator@_W@2@@std@@V12@@Z$1 100260a8 f   fx_muxer.obj
 0001:000250ca       __unwindfunclet$?resolve_sdk_version@@YA?AV?$basic_string@_WU?$char_traits@_W@std@@V?$allocator@_W@2@@std@@V12@@Z$2 100260ca f   fx_muxer.obj
 0001:000250d5       __unwindfunclet$?resolve_sdk_version@@YA?AV?$basic_string@_WU?$char_traits@_W@std@@V?$allocator@_W@2@@std@@V12@@Z$3 100260d5 f   fx_muxer.obj
 0001:000250e0       __unwindfunclet$?resolve_sdk_version@@YA?AV?$basic_string@_WU?$char_traits@_W@std@@V?$allocator@_W@2@@std@@V12@@Z$4 100260e0 f   fx_muxer.obj
 0001:000250e8       __unwindfunclet$?resolve_sdk_version@@YA?AV?$basic_string@_WU?$char_traits@_W@std@@V?$allocator@_W@2@@std@@V12@@Z$5 100260e8 f   fx_muxer.obj
 0001:000250f3       __unwindfunclet$?resolve_sdk_version@@YA?AV?$basic_string@_WU?$char_traits@_W@std@@V?$allocator@_W@2@@std@@V12@@Z$7 100260f3 f   fx_muxer.obj
 0001:000250fb       __ehhandler$?resolve_sdk_version@@YA?AV?$basic_string@_WU?$char_traits@_W@std@@V?$allocator@_W@2@@std@@V12@@Z 100260fb f   fx_muxer.obj
 0001:00025130       __unwindfunclet$?resolve_sdk_dotnet_path@fx_muxer_t@@SA_NABV?$basic_string@_WU?$char_traits@_W@std@@V?$allocator@_W@2@@std@@PAV23@@Z$0 10026130 f   fx_muxer.obj
 0001:0002513b       __unwindfunclet$?resolve_sdk_dotnet_path@fx_muxer_t@@SA_NABV?$basic_string@_WU?$char_traits@_W@std@@V?$allocator@_W@2@@std@@PAV23@@Z$1 1002613b f   fx_muxer.obj
 0001:00025146       __unwindfunclet$?resolve_sdk_dotnet_path@fx_muxer_t@@SA_NABV?$basic_string@_WU?$char_traits@_W@std@@V?$allocator@_W@2@@std@@PAV23@@Z$2 10026146 f   fx_muxer.obj
 0001:0002514e       __unwindfunclet$?resolve_sdk_dotnet_path@fx_muxer_t@@SA_NABV?$basic_string@_WU?$char_traits@_W@std@@V?$allocator@_W@2@@std@@PAV23@@Z$3 1002614e f   fx_muxer.obj
 0001:00025159       __unwindfunclet$?resolve_sdk_dotnet_path@fx_muxer_t@@SA_NABV?$basic_string@_WU?$char_traits@_W@std@@V?$allocator@_W@2@@std@@PAV23@@Z$4 10026159 f   fx_muxer.obj
 0001:00025161       __unwindfunclet$?resolve_sdk_dotnet_path@fx_muxer_t@@SA_NABV?$basic_string@_WU?$char_traits@_W@std@@V?$allocator@_W@2@@std@@PAV23@@Z$6 10026161 f   fx_muxer.obj
 0001:00025169       __unwindfunclet$?resolve_sdk_dotnet_path@fx_muxer_t@@SA_NABV?$basic_string@_WU?$char_traits@_W@std@@V?$allocator@_W@2@@std@@PAV23@@Z$7 10026169 f   fx_muxer.obj
 0001:00025171       __unwindfunclet$?resolve_sdk_dotnet_path@fx_muxer_t@@SA_NABV?$basic_string@_WU?$char_traits@_W@std@@V?$allocator@_W@2@@std@@PAV23@@Z$8 10026171 f   fx_muxer.obj
 0001:00025179       __unwindfunclet$?resolve_sdk_dotnet_path@fx_muxer_t@@SA_NABV?$basic_string@_WU?$char_traits@_W@std@@V?$allocator@_W@2@@std@@PAV23@@Z$9 10026179 f   fx_muxer.obj
 0001:00025181       __ehhandler$?resolve_sdk_dotnet_path@fx_muxer_t@@SA_NABV?$basic_string@_WU?$char_traits@_W@std@@V?$allocator@_W@2@@std@@PAV23@@Z 10026181 f   fx_muxer.obj
 0001:000251b0       __unwindfunclet$??0?$basic_ifstream@DU?$char_traits@D@std@@@std@@QAE@ABV?$basic_string@_WU?$char_traits@_W@std@@V?$allocator@_W@2@@1@HH@Z$1 100261b0 f   fx_muxer.obj
 0001:000251cd       __unwindfunclet$??0?$basic_ifstream@DU?$char_traits@D@std@@@std@@QAE@ABV?$basic_string@_WU?$char_traits@_W@std@@V?$allocator@_W@2@@1@HH@Z$2 100261cd f   fx_muxer.obj
 0001:000251d9       __unwindfunclet$??0?$basic_ifstream@DU?$char_traits@D@std@@@std@@QAE@ABV?$basic_string@_WU?$char_traits@_W@std@@V?$allocator@_W@2@@1@HH@Z$4 100261d9 f   fx_muxer.obj
 0001:000251e2       __unwindfunclet$??0?$basic_ifstream@DU?$char_traits@D@std@@@std@@QAE@ABV?$basic_string@_WU?$char_traits@_W@std@@V?$allocator@_W@2@@1@HH@Z$3 100261e2 f   fx_muxer.obj
 0001:000251ed       __unwindfunclet$??0?$basic_ifstream@DU?$char_traits@D@std@@@std@@QAE@ABV?$basic_string@_WU?$char_traits@_W@std@@V?$allocator@_W@2@@1@HH@Z$5 100261ed f   fx_muxer.obj
 0001:000251f5       __ehhandler$??0?$basic_ifstream@DU?$char_traits@D@std@@@std@@QAE@ABV?$basic_string@_WU?$char_traits@_W@std@@V?$allocator@_W@2@@1@HH@Z 100261f5 f   fx_muxer.obj
 0001:00025210       __unwindfunclet$?uflow@?$basic_filebuf@DU?$char_traits@D@std@@@std@@MAEHXZ$0 10026210 f   fx_muxer.obj
 0001:00025218       __ehhandler$?uflow@?$basic_filebuf@DU?$char_traits@D@std@@@std@@MAEHXZ 10026218 f   fx_muxer.obj
 0001:00025240       __ehhandler$?default_error_condition@_System_error_category@std@@UBE?AVerror_condition@2@H@Z 10026240 f   json_parsing.obj
 0001:00025240       __ehhandler$??1_Fac_node@std@@QAE@XZ 10026240 f   msvcprt:locale0_implib.obj
 0001:00025240       __ehhandler$??1?$basic_filebuf@DU?$char_traits@D@std@@@std@@UAE@XZ 10026240 f   fx_muxer.obj
 0001:00025260       __unwindfunclet$??$?H_WU?$char_traits@_W@std@@V?$allocator@_W@1@@std@@YA?AV?$basic_string@_WU?$char_traits@_W@std@@V?$allocator@_W@2@@0@ABV10@_W@Z$0 10026260 f   fx_muxer.obj
 0001:00025279       __ehhandler$??$?H_WU?$char_traits@_W@std@@V?$allocator@_W@1@@std@@YA?AV?$basic_string@_WU?$char_traits@_W@std@@V?$allocator@_W@2@@0@ABV10@_W@Z 10026279 f   fx_muxer.obj
 0001:000252a0       __unwindfunclet$??$use_facet@V?$codecvt@DDU_Mbstatet@@@std@@@std@@YAABV?$codecvt@DDU_Mbstatet@@@0@ABVlocale@0@@Z$0 100262a0 f   fx_muxer.obj
 0001:000252a9       __unwindfunclet$??$use_facet@V?$codecvt@DDU_Mbstatet@@@std@@@std@@YAABV?$codecvt@DDU_Mbstatet@@@0@ABVlocale@0@@Z$1 100262a9 f   fx_muxer.obj
 0001:000252b1       __ehhandler$??$use_facet@V?$codecvt@DDU_Mbstatet@@@std@@@std@@YAABV?$codecvt@DDU_Mbstatet@@@0@ABVlocale@0@@Z 100262b1 f   fx_muxer.obj
 0001:000252d0       __unwindfunclet$??Aobject@json@web@@QAEAAVvalue@12@ABV?$basic_string@_WU?$char_traits@_W@std@@V?$allocator@_W@2@@std@@@Z$0 100262d0 f   json.obj
 0001:000252d8       __unwindfunclet$??Aobject@json@web@@QAEAAVvalue@12@ABV?$basic_string@_WU?$char_traits@_W@std@@V?$allocator@_W@2@@std@@@Z$1 100262d8 f   json.obj
 0001:000252e0       __ehhandler$??Aobject@json@web@@QAEAAVvalue@12@ABV?$basic_string@_WU?$char_traits@_W@std@@V?$allocator@_W@2@@std@@@Z 100262e0 f   json.obj
 0001:00025310       __unwindfunclet$?to_string@_Value@details@json@web@@UBE?AV?$basic_string@_WU?$char_traits@_W@std@@V?$allocator@_W@2@@std@@XZ$0 10026310 f   json.obj
 0001:00025329       __ehhandler$?to_string@_Value@details@json@web@@UBE?AV?$basic_string@_WU?$char_traits@_W@std@@V?$allocator@_W@2@@std@@XZ 10026329 f   json.obj
 0001:00025350       __unwindfunclet$?_copy_value@_String@details@json@web@@UAE?AV?$unique_ptr@V_Value@details@json@web@@U?$default_delete@V_Value@details@json@web@@@std@@@std@@XZ$2 10026350 f   json.obj
 0001:0002535b       __unwindfunclet$?_copy_value@_String@details@json@web@@UAE?AV?$unique_ptr@V_Value@details@json@web@@U?$default_delete@V_Value@details@json@web@@@std@@@std@@XZ$4 1002635b f   json.obj
 0001:00025363       __ehhandler$?_copy_value@_String@details@json@web@@UAE?AV?$unique_ptr@V_Value@details@json@web@@U?$default_delete@V_Value@details@json@web@@@std@@@std@@XZ 10026363 f   json.obj
 0001:00025380       __unwindfunclet$?_copy_value@_Object@details@json@web@@UAE?AV?$unique_ptr@V_Value@details@json@web@@U?$default_delete@V_Value@details@json@web@@@std@@@std@@XZ$2 10026380 f   json.obj
 0001:0002538b       __unwindfunclet$?_copy_value@_Object@details@json@web@@UAE?AV?$unique_ptr@V_Value@details@json@web@@U?$default_delete@V_Value@details@json@web@@@std@@@std@@XZ$4 1002638b f   json.obj
 0001:00025393       __ehhandler$?_copy_value@_Object@details@json@web@@UAE?AV?$unique_ptr@V_Value@details@json@web@@U?$default_delete@V_Value@details@json@web@@@std@@@std@@XZ 10026393 f   json.obj
 0001:000253b0       __unwindfunclet$?_copy_value@_Array@details@json@web@@UAE?AV?$unique_ptr@V_Value@details@json@web@@U?$default_delete@V_Value@details@json@web@@@std@@@std@@XZ$2 100263b0 f   json.obj
 0001:000253bb       __unwindfunclet$?_copy_value@_Array@details@json@web@@UAE?AV?$unique_ptr@V_Value@details@json@web@@U?$default_delete@V_Value@details@json@web@@@std@@@std@@XZ$4 100263bb f   json.obj
 0001:000253c3       __ehhandler$?_copy_value@_Array@details@json@web@@UAE?AV?$unique_ptr@V_Value@details@json@web@@U?$default_delete@V_Value@details@json@web@@@std@@@std@@XZ 100263c3 f   json.obj
 0001:000253e0       __unwindfunclet$?_Udefault@?$vector@Vvalue@json@web@@V?$allocator@Vvalue@json@web@@@std@@@std@@AAEPAVvalue@json@web@@PAV345@I@Z$0 100263e0 f   json.obj
 0001:000253e8       __ehhandler$?_Udefault@?$vector@Vvalue@json@web@@V?$allocator@Vvalue@json@web@@@std@@@std@@AAEPAVvalue@json@web@@PAV345@I@Z 100263e8 f   json.obj
 0001:00025410       __ehhandler$??$_Resize@V<lambda_78f2db8de09dca8a4d752f953ffc629b>@@@?$vector@Vvalue@json@web@@V?$allocator@Vvalue@json@web@@@std@@@std@@AAEXIV<lambda_78f2db8de09dca8a4d752f953ffc629b>@@@Z 10026410 f   json.obj
 0001:00025430       __unwindfunclet$??0?$vector@Vvalue@json@web@@V?$allocator@Vvalue@json@web@@@std@@@std@@QAE@ABV01@@Z$2 10026430 f   json.obj
 0001:00025438       __ehhandler$??0?$vector@Vvalue@json@web@@V?$allocator@Vvalue@json@web@@@std@@@std@@QAE@ABV01@@Z 10026438 f   json.obj
 0001:00025460       __unwindfunclet$??0?$vector@U?$pair@V?$basic_string@_WU?$char_traits@_W@std@@V?$allocator@_W@2@@std@@Vvalue@json@web@@@std@@V?$allocator@U?$pair@V?$basic_string@_WU?$char_traits@_W@std@@V?$allocator@_W@2@@std@@Vvalue@json@web@@@std@@@2@@std@@QAE@ABV01@@Z$2 10026460 f   json.obj
 0001:00025468       __unwindfunclet$??0?$vector@U?$pair@V?$basic_string@_WU?$char_traits@_W@std@@V?$allocator@_W@2@@std@@Vvalue@json@web@@@std@@V?$allocator@U?$pair@V?$basic_string@_WU?$char_traits@_W@std@@V?$allocator@_W@2@@std@@Vvalue@json@web@@@std@@@2@@std@@QAE@ABV01@@Z$3 10026468 f   json.obj
 0001:00025470       __ehhandler$??0?$vector@U?$pair@V?$basic_string@_WU?$char_traits@_W@std@@V?$allocator@_W@2@@std@@Vvalue@json@web@@@std@@V?$allocator@U?$pair@V?$basic_string@_WU?$char_traits@_W@std@@V?$allocator@_W@2@@std@@Vvalue@json@web@@@std@@@2@@std@@QAE@ABV01@@Z 10026470 f   json.obj
 0001:00025490       __unwindfunclet$??$_Sort_unchecked@PAU?$pair@V?$basic_string@_WU?$char_traits@_W@std@@V?$allocator@_W@2@@std@@Vvalue@json@web@@@std@@P6A_NABU12@0@Z@std@@YAXPAU?$pair@V?$basic_string@_WU?$char_traits@_W@std@@V?$allocator@_W@2@@std@@Vvalue@json@web@@@0@0HP6A_NABU10@1@Z@Z$0 10026490 f   json.obj
 0001:00025498       __unwindfunclet$??$_Sort_unchecked@PAU?$pair@V?$basic_string@_WU?$char_traits@_W@std@@V?$allocator@_W@2@@std@@Vvalue@json@web@@@std@@P6A_NABU12@0@Z@std@@YAXPAU?$pair@V?$basic_string@_WU?$char_traits@_W@std@@V?$allocator@_W@2@@std@@Vvalue@json@web@@@0@0HP6A_NABU10@1@Z@Z$11 10026498 f   json.obj
 0001:000254a0       __ehhandler$??$_Sort_unchecked@PAU?$pair@V?$basic_string@_WU?$char_traits@_W@std@@V?$allocator@_W@2@@std@@Vvalue@json@web@@@std@@P6A_NABU12@0@Z@std@@YAXPAU?$pair@V?$basic_string@_WU?$char_traits@_W@std@@V?$allocator@_W@2@@std@@Vvalue@json@web@@@0@0HP6A_NABU10@1@Z@Z 100264a0 f   json.obj
 0001:000254d0       __ehhandler$??$_Partition_by_median_guess_unchecked@PAU?$pair@V?$basic_string@_WU?$char_traits@_W@std@@V?$allocator@_W@2@@std@@Vvalue@json@web@@@std@@P6A_NABU12@0@Z@std@@YA?AU?$pair@PAU?$pair@V?$basic_string@_WU?$char_traits@_W@std@@V?$allocator@_W@2@@std@@Vvalue@json@web@@@std@@PAU12@@0@PAU?$pair@V?$basic_string@_WU?$char_traits@_W@std@@V?$allocator@_W@2@@std@@Vvalue@json@web@@@0@0P6A_NABU20@1@Z@Z 100264d0 f   json.obj
 0001:000254f0       __unwindfunclet$??$_Insertion_sort_unchecked@PAU?$pair@V?$basic_string@_WU?$char_traits@_W@std@@V?$allocator@_W@2@@std@@Vvalue@json@web@@@std@@P6A_NABU12@0@Z@std@@YAPAU?$pair@V?$basic_string@_WU?$char_traits@_W@std@@V?$allocator@_W@2@@std@@Vvalue@json@web@@@0@PAU10@QAU10@P6A_NABU10@2@Z@Z$0 100264f0 f   json.obj
 0001:000254f8       __ehhandler$??$_Insertion_sort_unchecked@PAU?$pair@V?$basic_string@_WU?$char_traits@_W@std@@V?$allocator@_W@2@@std@@Vvalue@json@web@@@std@@P6A_NABU12@0@Z@std@@YAPAU?$pair@V?$basic_string@_WU?$char_traits@_W@std@@V?$allocator@_W@2@@std@@Vvalue@json@web@@@0@PAU10@QAU10@P6A_NABU10@2@Z@Z 100264f8 f   json.obj
 0001:00025520       __ehhandler$??$_Med3_unchecked@PAU?$pair@V?$basic_string@_WU?$char_traits@_W@std@@V?$allocator@_W@2@@std@@Vvalue@json@web@@@std@@P6A_NABU12@0@Z@std@@YAXPAU?$pair@V?$basic_string@_WU?$char_traits@_W@std@@V?$allocator@_W@2@@std@@Vvalue@json@web@@@0@00P6A_NABU10@1@Z@Z 10026520 f   json.obj
 0001:00025540       __unwindfunclet$?message@_System_error_category@std@@UBE?AV?$basic_string@DU?$char_traits@D@std@@V?$allocator@D@2@@2@H@Z$0 10026540 f   json_parsing.obj
 0001:00025559       __ehhandler$?message@_System_error_category@std@@UBE?AV?$basic_string@DU?$char_traits@D@std@@V?$allocator@D@2@@2@H@Z 10026559 f   json_parsing.obj
 0001:00025580       __unwindfunclet$?_parse_narrow_stream@@YA?AVvalue@json@web@@AAV?$basic_istream@DU?$char_traits@D@std@@@std@@@Z$0 10026580 f   json_parsing.obj
 0001:00025588       __unwindfunclet$?_parse_narrow_stream@@YA?AVvalue@json@web@@AAV?$basic_istream@DU?$char_traits@D@std@@@std@@@Z$3 10026588 f   json_parsing.obj
 0001:000255a1       __unwindfunclet$?_parse_narrow_stream@@YA?AVvalue@json@web@@AAV?$basic_istream@DU?$char_traits@D@std@@@std@@@Z$1 100265a1 f   json_parsing.obj
 0001:000255a9       __unwindfunclet$?_parse_narrow_stream@@YA?AVvalue@json@web@@AAV?$basic_istream@DU?$char_traits@D@std@@@std@@@Z$2 100265a9 f   json_parsing.obj
 0001:000255b1       __unwindfunclet$?_parse_narrow_stream@@YA?AVvalue@json@web@@AAV?$basic_istream@DU?$char_traits@D@std@@@std@@@Z$4 100265b1 f   json_parsing.obj
 0001:000255b9       __unwindfunclet$?_parse_narrow_stream@@YA?AVvalue@json@web@@AAV?$basic_istream@DU?$char_traits@D@std@@@std@@@Z$5 100265b9 f   json_parsing.obj
 0001:000255c1       __unwindfunclet$?_parse_narrow_stream@@YA?AVvalue@json@web@@AAV?$basic_istream@DU?$char_traits@D@std@@@std@@@Z$6 100265c1 f   json_parsing.obj
 0001:000255c9       __ehhandler$?_parse_narrow_stream@@YA?AVvalue@json@web@@AAV?$basic_istream@DU?$char_traits@D@std@@@std@@@Z 100265c9 f   json_parsing.obj
 0001:00025600       __unwindfunclet$?_ParseValue@?$JSON_Parser@D@details@json@web@@AAE?AV?$unique_ptr@V_Value@details@json@web@@U?$default_delete@V_Value@details@json@web@@@std@@@std@@AAUToken@1234@@Z$13 10026600 f   json_parsing.obj
 0001:0002560b       __unwindfunclet$?_ParseValue@?$JSON_Parser@D@details@json@web@@AAE?AV?$unique_ptr@V_Value@details@json@web@@U?$default_delete@V_Value@details@json@web@@@std@@@std@@AAUToken@1234@@Z$15 1002660b f   json_parsing.obj
 0001:00025613       __unwindfunclet$?_ParseValue@?$JSON_Parser@D@details@json@web@@AAE?AV?$unique_ptr@V_Value@details@json@web@@U?$default_delete@V_Value@details@json@web@@@std@@@std@@AAUToken@1234@@Z$1 10026613 f   json_parsing.obj
 0001:0002561b       __unwindfunclet$?_ParseValue@?$JSON_Parser@D@details@json@web@@AAE?AV?$unique_ptr@V_Value@details@json@web@@U?$default_delete@V_Value@details@json@web@@@std@@@std@@AAUToken@1234@@Z$3 1002661b f   json_parsing.obj
 0001:00025623       __unwindfunclet$?_ParseValue@?$JSON_Parser@D@details@json@web@@AAE?AV?$unique_ptr@V_Value@details@json@web@@U?$default_delete@V_Value@details@json@web@@@std@@@std@@AAUToken@1234@@Z$7 10026623 f   json_parsing.obj
 0001:0002562b       __unwindfunclet$?_ParseValue@?$JSON_Parser@D@details@json@web@@AAE?AV?$unique_ptr@V_Value@details@json@web@@U?$default_delete@V_Value@details@json@web@@@std@@@std@@AAUToken@1234@@Z$9 1002662b f   json_parsing.obj
 0001:00025633       __ehhandler$?_ParseValue@?$JSON_Parser@D@details@json@web@@AAE?AV?$unique_ptr@V_Value@details@json@web@@U?$default_delete@V_Value@details@json@web@@@std@@@std@@AAUToken@1234@@Z 10026633 f   json_parsing.obj
 0001:00025650       __unwindfunclet$??$CreateException@UToken@?$JSON_Parser@D@details@json@web@@@details@json@web@@YAXABUToken@?$JSON_Parser@D@012@ABV?$basic_string@_WU?$char_traits@_W@std@@V?$allocator@_W@2@@std@@@Z$0 10026650 f   json_parsing.obj
 0001:0002565b       __unwindfunclet$??$CreateException@UToken@?$JSON_Parser@D@details@json@web@@@details@json@web@@YAXABUToken@?$JSON_Parser@D@012@ABV?$basic_string@_WU?$char_traits@_W@std@@V?$allocator@_W@2@@std@@@Z$1 1002665b f   json_parsing.obj
 0001:00025663       __ehhandler$??$CreateException@UToken@?$JSON_Parser@D@details@json@web@@@details@json@web@@YAXABUToken@?$JSON_Parser@D@012@ABV?$basic_string@_WU?$char_traits@_W@std@@V?$allocator@_W@2@@std@@@Z 10026663 f   json_parsing.obj
 0001:00025690       __unwindfunclet$??0?$basic_ostringstream@_WU?$char_traits@_W@std@@V?$allocator@_W@2@@std@@QAE@H@Z$0 10026690 f   json_parsing.obj
 0001:000256ad       __unwindfunclet$??0?$basic_ostringstream@_WU?$char_traits@_W@std@@V?$allocator@_W@2@@std@@QAE@H@Z$1 100266ad f   json_parsing.obj
 0001:000256b9       __ehhandler$??0?$basic_ostringstream@_WU?$char_traits@_W@std@@V?$allocator@_W@2@@std@@QAE@H@Z 100266b9 f   json_parsing.obj
 0001:000256e0       __unwindfunclet$?handle_unescape_char@?$JSON_Parser@D@details@json@web@@IAE_NAAUToken@1234@@Z$0 100266e0 f   json_parsing.obj
 0001:000256e8       __unwindfunclet$?handle_unescape_char@?$JSON_Parser@D@details@json@web@@IAE_NAAUToken@1234@@Z$1 100266e8 f   json_parsing.obj
 0001:000256f0       __ehhandler$?handle_unescape_char@?$JSON_Parser@D@details@json@web@@IAE_NAAUToken@1234@@Z 100266f0 f   json_parsing.obj
 0001:00025720       __unwindfunclet$?CompleteNumberLiteral@?$JSON_Parser@D@details@json@web@@AAE_NDAAUToken@1234@@Z$0 10026720 f   json_parsing.obj
 0001:00025728       __ehhandler$?CompleteNumberLiteral@?$JSON_Parser@D@details@json@web@@AAE_NDAAUToken@1234@@Z 10026728 f   json_parsing.obj
 0001:00025750       __unwindfunclet$?_ParseObject@?$JSON_Parser@D@details@json@web@@AAE?AV?$unique_ptr@V_Value@details@json@web@@U?$default_delete@V_Value@details@json@web@@@std@@@std@@AAUToken@1234@@Z$9 10026750 f   json_parsing.obj
 0001:00025758       __unwindfunclet$?_ParseObject@?$JSON_Parser@D@details@json@web@@AAE?AV?$unique_ptr@V_Value@details@json@web@@U?$default_delete@V_Value@details@json@web@@@std@@@std@@AAUToken@1234@@Z$10 10026758 f   json_parsing.obj
 0001:00025760       __unwindfunclet$?_ParseObject@?$JSON_Parser@D@details@json@web@@AAE?AV?$unique_ptr@V_Value@details@json@web@@U?$default_delete@V_Value@details@json@web@@@std@@@std@@AAUToken@1234@@Z$12 10026760 f   json_parsing.obj
 0001:00025768       __unwindfunclet$?_ParseObject@?$JSON_Parser@D@details@json@web@@AAE?AV?$unique_ptr@V_Value@details@json@web@@U?$default_delete@V_Value@details@json@web@@@std@@@std@@AAUToken@1234@@Z$13 10026768 f   json_parsing.obj
 0001:00025770       __ehhandler$?_ParseObject@?$JSON_Parser@D@details@json@web@@AAE?AV?$unique_ptr@V_Value@details@json@web@@U?$default_delete@V_Value@details@json@web@@@std@@@std@@AAUToken@1234@@Z 10026770 f   json_parsing.obj
 0001:000257a0       __unwindfunclet$?_ParseArray@?$JSON_Parser@D@details@json@web@@AAE?AV?$unique_ptr@V_Value@details@json@web@@U?$default_delete@V_Value@details@json@web@@@std@@@std@@AAUToken@1234@@Z$2 100267a0 f   json_parsing.obj
 0001:000257a8       __unwindfunclet$?_ParseArray@?$JSON_Parser@D@details@json@web@@AAE?AV?$unique_ptr@V_Value@details@json@web@@U?$default_delete@V_Value@details@json@web@@@std@@@std@@AAUToken@1234@@Z$3 100267a8 f   json_parsing.obj
 0001:000257b0       __ehhandler$?_ParseArray@?$JSON_Parser@D@details@json@web@@AAE?AV?$unique_ptr@V_Value@details@json@web@@U?$default_delete@V_Value@details@json@web@@@std@@@std@@AAUToken@1234@@Z 100267b0 f   json_parsing.obj
 0001:000257d0       __ehhandler$?_Umove@?$vector@Vvalue@json@web@@V?$allocator@Vvalue@json@web@@@std@@@std@@AAEPAVvalue@json@web@@PAV345@00@Z 100267d0 f   json_parsing.obj
 0001:000257f0       __unwindfunclet$?format_string@details@json@web@@YAXABV?$basic_string@_WU?$char_traits@_W@std@@V?$allocator@_W@2@@std@@AAV?$basic_string@DU?$char_traits@D@std@@V?$allocator@D@2@@5@@Z$0 100267f0 f   json_serialization.obj
 0001:000257f8       __ehhandler$?format_string@details@json@web@@YAXABV?$basic_string@_WU?$char_traits@_W@std@@V?$allocator@_W@2@@std@@AAV?$basic_string@DU?$char_traits@D@std@@V?$allocator@D@2@@5@@Z 100267f8 f   json_serialization.obj
 0001:00025820       __unwindfunclet$?format@_String@details@json@web@@MBEXAAV?$basic_string@DU?$char_traits@D@std@@V?$allocator@D@2@@std@@@Z$0 10026820 f   json_serialization.obj
 0001:00025828       __unwindfunclet$?format@_String@details@json@web@@MBEXAAV?$basic_string@DU?$char_traits@D@std@@V?$allocator@D@2@@std@@@Z$1 10026828 f   json_serialization.obj
 0001:00025830       __ehhandler$?format@_String@details@json@web@@MBEXAAV?$basic_string@DU?$char_traits@D@std@@V?$allocator@D@2@@std@@@Z 10026830 f   json_serialization.obj
 0001:00025860       __unwindfunclet$?rethrow_exception@std@@YAXVexception_ptr@1@@Z$0 10026860 f   asyncrt_utils.obj
 0001:00025868       __ehhandler$?rethrow_exception@std@@YAXVexception_ptr@1@@Z 10026868 f   asyncrt_utils.obj
 0001:00025890       __unwindfunclet$?c_locale@scoped_c_thread_locale@details@utility@@SAPAU__crt_locale_pointers@@XZ$0 10026890 f   asyncrt_utils.obj
 0001:00025898       __ehhandler$?c_locale@scoped_c_thread_locale@details@utility@@SAPAU__crt_locale_pointers@@XZ 10026898 f   asyncrt_utils.obj
 0001:000258c0       __unwindfunclet$?utf8_to_utf16@conversions@utility@@YA?AV?$basic_string@_WU?$char_traits@_W@std@@V?$allocator@_W@2@@std@@ABV?$basic_string@DU?$char_traits@D@std@@V?$allocator@D@2@@4@@Z$0 100268c0 f   asyncrt_utils.obj
 0001:000258d9       __ehhandler$?utf8_to_utf16@conversions@utility@@YA?AV?$basic_string@_WU?$char_traits@_W@std@@V?$allocator@_W@2@@std@@ABV?$basic_string@DU?$char_traits@D@std@@V?$allocator@D@2@@4@@Z 100268d9 f   asyncrt_utils.obj
 0001:00025900       __unwindfunclet$?utf16_to_utf8@conversions@utility@@YA?AV?$basic_string@DU?$char_traits@D@std@@V?$allocator@D@2@@std@@ABV?$basic_string@_WU?$char_traits@_W@std@@V?$allocator@_W@2@@4@@Z$0 10026900 f   asyncrt_utils.obj
 0001:00025919       __ehhandler$?utf16_to_utf8@conversions@utility@@YA?AV?$basic_string@DU?$char_traits@D@std@@V?$allocator@D@2@@std@@ABV?$basic_string@_WU?$char_traits@_W@std@@V?$allocator@_W@2@@4@@Z 10026919 f   asyncrt_utils.obj
 0001:00025940       __ehhandler$??$_Callback_once@V?$tuple@$$QAV<lambda_0825b44a8adc79b986e9f2ddd1b20dad>@@AAVexception_ptr@std@@@std@@U?$integer_sequence@I$0A@@2@$00@std@@YGHPAX0PAPAX@Z 10026940 f   asyncrt_utils.obj
 0001:00025960       __unwindfunclet$?reconcile_libraries_with_targets@deps_json_t@@AAEXABVvalue@json@web@@ABV?$function@$$A6A_NABV?$basic_string@_WU?$char_traits@_W@std@@V?$allocator@_W@2@@std@@@Z@std@@ABV?$function@$$A6AABV?$vector@V?$basic_string@_WU?$char_traits@_W@std@@V?$allocator@_W@2@@std@@V?$allocator@V?$basic_string@_WU?$char_traits@_W@std@@V?$allocator@_W@2@@std@@@2@@std@@ABV?$basic_string@_WU?$char_traits@_W@std@@V?$allocator@_W@2@@2@HPA_N@Z@6@@Z$0 10026960 f   deps_format.obj
 0001:00025968       __unwindfunclet$?reconcile_libraries_with_targets@deps_json_t@@AAEXABVvalue@json@web@@ABV?$function@$$A6A_NABV?$basic_string@_WU?$char_traits@_W@std@@V?$allocator@_W@2@@std@@@Z@std@@ABV?$function@$$A6AABV?$vector@V?$basic_string@_WU?$char_traits@_W@std@@V?$allocator@_W@2@@std@@V?$allocator@V?$basic_string@_WU?$char_traits@_W@std@@V?$allocator@_W@2@@std@@@2@@std@@ABV?$basic_string@_WU?$char_traits@_W@std@@V?$allocator@_W@2@@2@HPA_N@Z@6@@Z$1 10026968 f   deps_format.obj
 0001:00025970       __unwindfunclet$?reconcile_libraries_with_targets@deps_json_t@@AAEXABVvalue@json@web@@ABV?$function@$$A6A_NABV?$basic_string@_WU?$char_traits@_W@std@@V?$allocator@_W@2@@std@@@Z@std@@ABV?$function@$$A6AABV?$vector@V?$basic_string@_WU?$char_traits@_W@std@@V?$allocator@_W@2@@std@@V?$allocator@V?$basic_string@_WU?$char_traits@_W@std@@V?$allocator@_W@2@@std@@@2@@std@@ABV?$basic_string@_WU?$char_traits@_W@std@@V?$allocator@_W@2@@2@HPA_N@Z@6@@Z$3 10026970 f   deps_format.obj
 0001:00025978       __unwindfunclet$?reconcile_libraries_with_targets@deps_json_t@@AAEXABVvalue@json@web@@ABV?$function@$$A6A_NABV?$basic_string@_WU?$char_traits@_W@std@@V?$allocator@_W@2@@std@@@Z@std@@ABV?$function@$$A6AABV?$vector@V?$basic_string@_WU?$char_traits@_W@std@@V?$allocator@_W@2@@std@@V?$allocator@V?$basic_string@_WU?$char_traits@_W@std@@V?$allocator@_W@2@@std@@@2@@std@@ABV?$basic_string@_WU?$char_traits@_W@std@@V?$allocator@_W@2@@2@HPA_N@Z@6@@Z$4 10026978 f   deps_format.obj
 0001:00025980       __unwindfunclet$?reconcile_libraries_with_targets@deps_json_t@@AAEXABVvalue@json@web@@ABV?$function@$$A6A_NABV?$basic_string@_WU?$char_traits@_W@std@@V?$allocator@_W@2@@std@@@Z@std@@ABV?$function@$$A6AABV?$vector@V?$basic_string@_WU?$char_traits@_W@std@@V?$allocator@_W@2@@std@@V?$allocator@V?$basic_string@_WU?$char_traits@_W@std@@V?$allocator@_W@2@@std@@@2@@std@@ABV?$basic_string@_WU?$char_traits@_W@std@@V?$allocator@_W@2@@2@HPA_N@Z@6@@Z$5 10026980 f   deps_format.obj
 0001:00025988       __unwindfunclet$?reconcile_libraries_with_targets@deps_json_t@@AAEXABVvalue@json@web@@ABV?$function@$$A6A_NABV?$basic_string@_WU?$char_traits@_W@std@@V?$allocator@_W@2@@std@@@Z@std@@ABV?$function@$$A6AABV?$vector@V?$basic_string@_WU?$char_traits@_W@std@@V?$allocator@_W@2@@std@@V?$allocator@V?$basic_string@_WU?$char_traits@_W@std@@V?$allocator@_W@2@@std@@@2@@std@@ABV?$basic_string@_WU?$char_traits@_W@std@@V?$allocator@_W@2@@2@HPA_N@Z@6@@Z$6 10026988 f   deps_format.obj
 0001:00025990       __unwindfunclet$?reconcile_libraries_with_targets@deps_json_t@@AAEXABVvalue@json@web@@ABV?$function@$$A6A_NABV?$basic_string@_WU?$char_traits@_W@std@@V?$allocator@_W@2@@std@@@Z@std@@ABV?$function@$$A6AABV?$vector@V?$basic_string@_WU?$char_traits@_W@std@@V?$allocator@_W@2@@std@@V?$allocator@V?$basic_string@_WU?$char_traits@_W@std@@V?$allocator@_W@2@@std@@@2@@std@@ABV?$basic_string@_WU?$char_traits@_W@std@@V?$allocator@_W@2@@2@HPA_N@Z@6@@Z$8 10026990 f   deps_format.obj
 0001:0002599b       __ehhandler$?reconcile_libraries_with_targets@deps_json_t@@AAEXABVvalue@json@web@@ABV?$function@$$A6A_NABV?$basic_string@_WU?$char_traits@_W@std@@V?$allocator@_W@2@@std@@@Z@std@@ABV?$function@$$A6AABV?$vector@V?$basic_string@_WU?$char_traits@_W@std@@V?$allocator@_W@2@@std@@V?$allocator@V?$basic_string@_WU?$char_traits@_W@std@@V?$allocator@_W@2@@std@@@2@@std@@ABV?$basic_string@_WU?$char_traits@_W@std@@V?$allocator@_W@2@@2@HPA_N@Z@6@@Z 1002699b f   deps_format.obj
 0001:000259d0       __unwindfunclet$?perform_rid_fallback@deps_json_t@@AAE_NPAUrid_specific_assets_t@1@ABV?$unordered_map@V?$basic_string@_WU?$char_traits@_W@std@@V?$allocator@_W@2@@std@@V?$vector@V?$basic_string@_WU?$char_traits@_W@std@@V?$allocator@_W@2@@std@@V?$allocator@V?$basic_string@_WU?$char_traits@_W@std@@V?$allocator@_W@2@@std@@@2@@2@U?$hash@V?$basic_string@_WU?$char_traits@_W@std@@V?$allocator@_W@2@@std@@@2@U?$equal_to@V?$basic_string@_WU?$char_traits@_W@std@@V?$allocator@_W@2@@std@@@2@V?$allocator@U?$pair@$$CBV?$basic_string@_WU?$char_traits@_W@std@@V?$allocator@_W@2@@std@@V?$vector@V?$basic_string@_WU?$char_traits@_W@std@@V?$allocator@_W@2@@std@@V?$allocator@V?$basic_string@_WU?$char_traits@_W@std@@V?$allocator@_W@2@@std@@@2@@2@@std@@@2@@std@@@Z$0 100269d0 f   deps_format.obj
 0001:000259d8       __unwindfunclet$?perform_rid_fallback@deps_json_t@@AAE_NPAUrid_specific_assets_t@1@ABV?$unordered_map@V?$basic_string@_WU?$char_traits@_W@std@@V?$allocator@_W@2@@std@@V?$vector@V?$basic_string@_WU?$char_traits@_W@std@@V?$allocator@_W@2@@std@@V?$allocator@V?$basic_string@_WU?$char_traits@_W@std@@V?$allocator@_W@2@@std@@@2@@2@U?$hash@V?$basic_string@_WU?$char_traits@_W@std@@V?$allocator@_W@2@@std@@@2@U?$equal_to@V?$basic_string@_WU?$char_traits@_W@std@@V?$allocator@_W@2@@std@@@2@V?$allocator@U?$pair@$$CBV?$basic_string@_WU?$char_traits@_W@std@@V?$allocator@_W@2@@std@@V?$vector@V?$basic_string@_WU?$char_traits@_W@std@@V?$allocator@_W@2@@std@@V?$allocator@V?$basic_string@_WU?$char_traits@_W@std@@V?$allocator@_W@2@@std@@@2@@2@@std@@@2@@std@@@Z$1 100269d8 f   deps_format.obj
 0001:000259f1       __unwindfunclet$?perform_rid_fallback@deps_json_t@@AAE_NPAUrid_specific_assets_t@1@ABV?$unordered_map@V?$basic_string@_WU?$char_traits@_W@std@@V?$allocator@_W@2@@std@@V?$vector@V?$basic_string@_WU?$char_traits@_W@std@@V?$allocator@_W@2@@std@@V?$allocator@V?$basic_string@_WU?$char_traits@_W@std@@V?$allocator@_W@2@@std@@@2@@2@U?$hash@V?$basic_string@_WU?$char_traits@_W@std@@V?$allocator@_W@2@@std@@@2@U?$equal_to@V?$basic_string@_WU?$char_traits@_W@std@@V?$allocator@_W@2@@std@@@2@V?$allocator@U?$pair@$$CBV?$basic_string@_WU?$char_traits@_W@std@@V?$allocator@_W@2@@std@@V?$vector@V?$basic_string@_WU?$char_traits@_W@std@@V?$allocator@_W@2@@std@@V?$allocator@V?$basic_string@_WU?$char_traits@_W@std@@V?$allocator@_W@2@@std@@@2@@2@@std@@@2@@std@@@Z$3 100269f1 f   deps_format.obj
 0001:000259f9       __ehhandler$?perform_rid_fallback@deps_json_t@@AAE_NPAUrid_specific_assets_t@1@ABV?$unordered_map@V?$basic_string@_WU?$char_traits@_W@std@@V?$allocator@_W@2@@std@@V?$vector@V?$basic_string@_WU?$char_traits@_W@std@@V?$allocator@_W@2@@std@@V?$allocator@V?$basic_string@_WU?$char_traits@_W@std@@V?$allocator@_W@2@@std@@@2@@2@U?$hash@V?$basic_string@_WU?$char_traits@_W@std@@V?$allocator@_W@2@@std@@@2@U?$equal_to@V?$basic_string@_WU?$char_traits@_W@std@@V?$allocator@_W@2@@std@@@2@V?$allocator@U?$pair@$$CBV?$basic_string@_WU?$char_traits@_W@std@@V?$allocator@_W@2@@std@@V?$vector@V?$basic_string@_WU?$char_traits@_W@std@@V?$allocator@_W@2@@std@@V?$allocator@V?$basic_string@_WU?$char_traits@_W@std@@V?$allocator@_W@2@@std@@@2@@2@@std@@@2@@std@@@Z 100269f9 f   deps_format.obj
 0001:00025a30       __unwindfunclet$?process_runtime_targets@deps_json_t@@AAE_NABVvalue@json@web@@ABV?$basic_string@_WU?$char_traits@_W@std@@V?$allocator@_W@2@@std@@ABV?$unordered_map@V?$basic_string@_WU?$char_traits@_W@std@@V?$allocator@_W@2@@std@@V?$vector@V?$basic_string@_WU?$char_traits@_W@std@@V?$allocator@_W@2@@std@@V?$allocator@V?$basic_string@_WU?$char_traits@_W@std@@V?$allocator@_W@2@@std@@@2@@2@U?$hash@V?$basic_string@_WU?$char_traits@_W@std@@V?$allocator@_W@2@@std@@@2@U?$equal_to@V?$basic_string@_WU?$char_traits@_W@std@@V?$allocator@_W@2@@std@@@2@V?$allocator@U?$pair@$$CBV?$basic_string@_WU?$char_traits@_W@std@@V?$allocator@_W@2@@std@@V?$vector@V?$basic_string@_WU?$char_traits@_W@std@@V?$allocator@_W@2@@std@@V?$allocator@V?$basic_string@_WU?$char_traits@_W@std@@V?$allocator@_W@2@@std@@@2@@2@@std@@@2@@6@PAUrid_specific_assets_t@1@@Z$0 10026a30 f   deps_format.obj
 0001:00025a38       __unwindfunclet$?process_runtime_targets@deps_json_t@@AAE_NABVvalue@json@web@@ABV?$basic_string@_WU?$char_traits@_W@std@@V?$allocator@_W@2@@std@@ABV?$unordered_map@V?$basic_string@_WU?$char_traits@_W@std@@V?$allocator@_W@2@@std@@V?$vector@V?$basic_string@_WU?$char_traits@_W@std@@V?$allocator@_W@2@@std@@V?$allocator@V?$basic_string@_WU?$char_traits@_W@std@@V?$allocator@_W@2@@std@@@2@@2@U?$hash@V?$basic_string@_WU?$char_traits@_W@std@@V?$allocator@_W@2@@std@@@2@U?$equal_to@V?$basic_string@_WU?$char_traits@_W@std@@V?$allocator@_W@2@@std@@@2@V?$allocator@U?$pair@$$CBV?$basic_string@_WU?$char_traits@_W@std@@V?$allocator@_W@2@@std@@V?$vector@V?$basic_string@_WU?$char_traits@_W@std@@V?$allocator@_W@2@@std@@V?$allocator@V?$basic_string@_WU?$char_traits@_W@std@@V?$allocator@_W@2@@std@@@2@@2@@std@@@2@@6@PAUrid_specific_assets_t@1@@Z$2 10026a38 f   deps_format.obj
 0001:00025a40       __unwindfunclet$?process_runtime_targets@deps_json_t@@AAE_NABVvalue@json@web@@ABV?$basic_string@_WU?$char_traits@_W@std@@V?$allocator@_W@2@@std@@ABV?$unordered_map@V?$basic_string@_WU?$char_traits@_W@std@@V?$allocator@_W@2@@std@@V?$vector@V?$basic_string@_WU?$char_traits@_W@std@@V?$allocator@_W@2@@std@@V?$allocator@V?$basic_string@_WU?$char_traits@_W@std@@V?$allocator@_W@2@@std@@@2@@2@U?$hash@V?$basic_string@_WU?$char_traits@_W@std@@V?$allocator@_W@2@@std@@@2@U?$equal_to@V?$basic_string@_WU?$char_traits@_W@std@@V?$allocator@_W@2@@std@@@2@V?$allocator@U?$pair@$$CBV?$basic_string@_WU?$char_traits@_W@std@@V?$allocator@_W@2@@std@@V?$vector@V?$basic_string@_WU?$char_traits@_W@std@@V?$allocator@_W@2@@std@@V?$allocator@V?$basic_string@_WU?$char_traits@_W@std@@V?$allocator@_W@2@@std@@@2@@2@@std@@@2@@6@PAUrid_specific_assets_t@1@@Z$3 10026a40 f   deps_format.obj
 0001:00025a48       __ehhandler$?process_runtime_targets@deps_json_t@@AAE_NABVvalue@json@web@@ABV?$basic_string@_WU?$char_traits@_W@std@@V?$allocator@_W@2@@std@@ABV?$unordered_map@V?$basic_string@_WU?$char_traits@_W@std@@V?$allocator@_W@2@@std@@V?$vector@V?$basic_string@_WU?$char_traits@_W@std@@V?$allocator@_W@2@@std@@V?$allocator@V?$basic_string@_WU?$char_traits@_W@std@@V?$allocator@_W@2@@std@@@2@@2@U?$hash@V?$basic_string@_WU?$char_traits@_W@std@@V?$allocator@_W@2@@std@@@2@U?$equal_to@V?$basic_string@_WU?$char_traits@_W@std@@V?$allocator@_W@2@@std@@@2@V?$allocator@U?$pair@$$CBV?$basic_string@_WU?$char_traits@_W@std@@V?$allocator@_W@2@@std@@V?$vector@V?$basic_string@_WU?$char_traits@_W@std@@V?$allocator@_W@2@@std@@V?$allocator@V?$basic_string@_WU?$char_traits@_W@std@@V?$allocator@_W@2@@std@@@2@@2@@std@@@2@@6@PAUrid_specific_assets_t@1@@Z 10026a48 f   deps_format.obj
 0001:00025a70       __unwindfunclet$?process_targets@deps_json_t@@AAE_NABVvalue@json@web@@ABV?$basic_string@_WU?$char_traits@_W@std@@V?$allocator@_W@2@@std@@PAUdeps_assets_t@1@@Z$0 10026a70 f   deps_format.obj
 0001:00025a78       __ehhandler$?process_targets@deps_json_t@@AAE_NABVvalue@json@web@@ABV?$basic_string@_WU?$char_traits@_W@std@@V?$allocator@_W@2@@std@@PAUdeps_assets_t@1@@Z 10026a78 f   deps_format.obj
 0001:00025aa0       __unwindfunclet$?load_standalone@deps_json_t@@AAE_NABVvalue@json@web@@ABV?$basic_string@_WU?$char_traits@_W@std@@V?$allocator@_W@2@@std@@@Z$0 10026aa0 f   deps_format.obj
 0001:00025aa8       __unwindfunclet$?load_standalone@deps_json_t@@AAE_NABVvalue@json@web@@ABV?$basic_string@_WU?$char_traits@_W@std@@V?$allocator@_W@2@@std@@@Z$1 10026aa8 f   deps_format.obj
 0001:00025ab0       __ehhandler$?load_standalone@deps_json_t@@AAE_NABVvalue@json@web@@ABV?$basic_string@_WU?$char_traits@_W@std@@V?$allocator@_W@2@@std@@@Z 10026ab0 f   deps_format.obj
 0001:00025ae0       __unwindfunclet$?load@deps_json_t@@AAE_N_NABV?$basic_string@_WU?$char_traits@_W@std@@V?$allocator@_W@2@@std@@ABV?$unordered_map@V?$basic_string@_WU?$char_traits@_W@std@@V?$allocator@_W@2@@std@@V?$vector@V?$basic_string@_WU?$char_traits@_W@std@@V?$allocator@_W@2@@std@@V?$allocator@V?$basic_string@_WU?$char_traits@_W@std@@V?$allocator@_W@2@@std@@@2@@2@U?$hash@V?$basic_string@_WU?$char_traits@_W@std@@V?$allocator@_W@2@@std@@@2@U?$equal_to@V?$basic_string@_WU?$char_traits@_W@std@@V?$allocator@_W@2@@std@@@2@V?$allocator@U?$pair@$$CBV?$basic_string@_WU?$char_traits@_W@std@@V?$allocator@_W@2@@std@@V?$vector@V?$basic_string@_WU?$char_traits@_W@std@@V?$allocator@_W@2@@std@@V?$allocator@V?$basic_string@_WU?$char_traits@_W@std@@V?$allocator@_W@2@@std@@@2@@2@@std@@@2@@3@@Z$2 10026ae0 f   deps_format.obj
 0001:00025aeb       __unwindfunclet$?load@deps_json_t@@AAE_N_NABV?$basic_string@_WU?$char_traits@_W@std@@V?$allocator@_W@2@@std@@ABV?$unordered_map@V?$basic_string@_WU?$char_traits@_W@std@@V?$allocator@_W@2@@std@@V?$vector@V?$basic_string@_WU?$char_traits@_W@std@@V?$allocator@_W@2@@std@@V?$allocator@V?$basic_string@_WU?$char_traits@_W@std@@V?$allocator@_W@2@@std@@@2@@2@U?$hash@V?$basic_string@_WU?$char_traits@_W@std@@V?$allocator@_W@2@@std@@@2@U?$equal_to@V?$basic_string@_WU?$char_traits@_W@std@@V?$allocator@_W@2@@std@@@2@V?$allocator@U?$pair@$$CBV?$basic_string@_WU?$char_traits@_W@std@@V?$allocator@_W@2@@std@@V?$vector@V?$basic_string@_WU?$char_traits@_W@std@@V?$allocator@_W@2@@std@@V?$allocator@V?$basic_string@_WU?$char_traits@_W@std@@V?$allocator@_W@2@@std@@@2@@2@@std@@@2@@3@@Z$3 10026aeb f   deps_format.obj
 0001:00025af3       __unwindfunclet$?load@deps_json_t@@AAE_N_NABV?$basic_string@_WU?$char_traits@_W@std@@V?$allocator@_W@2@@std@@ABV?$unordered_map@V?$basic_string@_WU?$char_traits@_W@std@@V?$allocator@_W@2@@std@@V?$vector@V?$basic_string@_WU?$char_traits@_W@std@@V?$allocator@_W@2@@std@@V?$allocator@V?$basic_string@_WU?$char_traits@_W@std@@V?$allocator@_W@2@@std@@@2@@2@U?$hash@V?$basic_string@_WU?$char_traits@_W@std@@V?$allocator@_W@2@@std@@@2@U?$equal_to@V?$basic_string@_WU?$char_traits@_W@std@@V?$allocator@_W@2@@std@@@2@V?$allocator@U?$pair@$$CBV?$basic_string@_WU?$char_traits@_W@std@@V?$allocator@_W@2@@std@@V?$vector@V?$basic_string@_WU?$char_traits@_W@std@@V?$allocator@_W@2@@std@@V?$allocator@V?$basic_string@_WU?$char_traits@_W@std@@V?$allocator@_W@2@@std@@@2@@2@@std@@@2@@3@@Z$4 10026af3 f   deps_format.obj
 0001:00025afb       __unwindfunclet$?load@deps_json_t@@AAE_N_NABV?$basic_string@_WU?$char_traits@_W@std@@V?$allocator@_W@2@@std@@ABV?$unordered_map@V?$basic_string@_WU?$char_traits@_W@std@@V?$allocator@_W@2@@std@@V?$vector@V?$basic_string@_WU?$char_traits@_W@std@@V?$allocator@_W@2@@std@@V?$allocator@V?$basic_string@_WU?$char_traits@_W@std@@V?$allocator@_W@2@@std@@@2@@2@U?$hash@V?$basic_string@_WU?$char_traits@_W@std@@V?$allocator@_W@2@@std@@@2@U?$equal_to@V?$basic_string@_WU?$char_traits@_W@std@@V?$allocator@_W@2@@std@@@2@V?$allocator@U?$pair@$$CBV?$basic_string@_WU?$char_traits@_W@std@@V?$allocator@_W@2@@std@@V?$vector@V?$basic_string@_WU?$char_traits@_W@std@@V?$allocator@_W@2@@std@@V?$allocator@V?$basic_string@_WU?$char_traits@_W@std@@V?$allocator@_W@2@@std@@@2@@2@@std@@@2@@3@@Z$5 10026afb f   deps_format.obj
 0001:00025b14       __unwindfunclet$?load@deps_json_t@@AAE_N_NABV?$basic_string@_WU?$char_traits@_W@std@@V?$allocator@_W@2@@std@@ABV?$unordered_map@V?$basic_string@_WU?$char_traits@_W@std@@V?$allocator@_W@2@@std@@V?$vector@V?$basic_string@_WU?$char_traits@_W@std@@V?$allocator@_W@2@@std@@V?$allocator@V?$basic_string@_WU?$char_traits@_W@std@@V?$allocator@_W@2@@std@@@2@@2@U?$hash@V?$basic_string@_WU?$char_traits@_W@std@@V?$allocator@_W@2@@std@@@2@U?$equal_to@V?$basic_string@_WU?$char_traits@_W@std@@V?$allocator@_W@2@@std@@@2@V?$allocator@U?$pair@$$CBV?$basic_string@_WU?$char_traits@_W@std@@V?$allocator@_W@2@@std@@V?$vector@V?$basic_string@_WU?$char_traits@_W@std@@V?$allocator@_W@2@@std@@V?$allocator@V?$basic_string@_WU?$char_traits@_W@std@@V?$allocator@_W@2@@std@@@2@@2@@std@@@2@@3@@Z$18 10026b14 f   deps_format.obj
 0001:00025b1c       __unwindfunclet$?load@deps_json_t@@AAE_N_NABV?$basic_string@_WU?$char_traits@_W@std@@V?$allocator@_W@2@@std@@ABV?$unordered_map@V?$basic_string@_WU?$char_traits@_W@std@@V?$allocator@_W@2@@std@@V?$vector@V?$basic_string@_WU?$char_traits@_W@std@@V?$allocator@_W@2@@std@@V?$allocator@V?$basic_string@_WU?$char_traits@_W@std@@V?$allocator@_W@2@@std@@@2@@2@U?$hash@V?$basic_string@_WU?$char_traits@_W@std@@V?$allocator@_W@2@@std@@@2@U?$equal_to@V?$basic_string@_WU?$char_traits@_W@std@@V?$allocator@_W@2@@std@@@2@V?$allocator@U?$pair@$$CBV?$basic_string@_WU?$char_traits@_W@std@@V?$allocator@_W@2@@std@@V?$vector@V?$basic_string@_WU?$char_traits@_W@std@@V?$allocator@_W@2@@std@@V?$allocator@V?$basic_string@_WU?$char_traits@_W@std@@V?$allocator@_W@2@@std@@@2@@2@@std@@@2@@3@@Z$19 10026b1c f   deps_format.obj
 0001:00025b24       __unwindfunclet$?load@deps_json_t@@AAE_N_NABV?$basic_string@_WU?$char_traits@_W@std@@V?$allocator@_W@2@@std@@ABV?$unordered_map@V?$basic_string@_WU?$char_traits@_W@std@@V?$allocator@_W@2@@std@@V?$vector@V?$basic_string@_WU?$char_traits@_W@std@@V?$allocator@_W@2@@std@@V?$allocator@V?$basic_string@_WU?$char_traits@_W@std@@V?$allocator@_W@2@@std@@@2@@2@U?$hash@V?$basic_string@_WU?$char_traits@_W@std@@V?$allocator@_W@2@@std@@@2@U?$equal_to@V?$basic_string@_WU?$char_traits@_W@std@@V?$allocator@_W@2@@std@@@2@V?$allocator@U?$pair@$$CBV?$basic_string@_WU?$char_traits@_W@std@@V?$allocator@_W@2@@std@@V?$vector@V?$basic_string@_WU?$char_traits@_W@std@@V?$allocator@_W@2@@std@@V?$allocator@V?$basic_string@_WU?$char_traits@_W@std@@V?$allocator@_W@2@@std@@@2@@2@@std@@@2@@3@@Z$20 10026b24 f   deps_format.obj
 0001:00025b2c       __unwindfunclet$?load@deps_json_t@@AAE_N_NABV?$basic_string@_WU?$char_traits@_W@std@@V?$allocator@_W@2@@std@@ABV?$unordered_map@V?$basic_string@_WU?$char_traits@_W@std@@V?$allocator@_W@2@@std@@V?$vector@V?$basic_string@_WU?$char_traits@_W@std@@V?$allocator@_W@2@@std@@V?$allocator@V?$basic_string@_WU?$char_traits@_W@std@@V?$allocator@_W@2@@std@@@2@@2@U?$hash@V?$basic_string@_WU?$char_traits@_W@std@@V?$allocator@_W@2@@std@@@2@U?$equal_to@V?$basic_string@_WU?$char_traits@_W@std@@V?$allocator@_W@2@@std@@@2@V?$allocator@U?$pair@$$CBV?$basic_string@_WU?$char_traits@_W@std@@V?$allocator@_W@2@@std@@V?$vector@V?$basic_string@_WU?$char_traits@_W@std@@V?$allocator@_W@2@@std@@V?$allocator@V?$basic_string@_WU?$char_traits@_W@std@@V?$allocator@_W@2@@std@@@2@@2@@std@@@2@@3@@Z$6 10026b2c f   deps_format.obj
 0001:00025b34       __unwindfunclet$?load@deps_json_t@@AAE_N_NABV?$basic_string@_WU?$char_traits@_W@std@@V?$allocator@_W@2@@std@@ABV?$unordered_map@V?$basic_string@_WU?$char_traits@_W@std@@V?$allocator@_W@2@@std@@V?$vector@V?$basic_string@_WU?$char_traits@_W@std@@V?$allocator@_W@2@@std@@V?$allocator@V?$basic_string@_WU?$char_traits@_W@std@@V?$allocator@_W@2@@std@@@2@@2@U?$hash@V?$basic_string@_WU?$char_traits@_W@std@@V?$allocator@_W@2@@std@@@2@U?$equal_to@V?$basic_string@_WU?$char_traits@_W@std@@V?$allocator@_W@2@@std@@@2@V?$allocator@U?$pair@$$CBV?$basic_string@_WU?$char_traits@_W@std@@V?$allocator@_W@2@@std@@V?$vector@V?$basic_string@_WU?$char_traits@_W@std@@V?$allocator@_W@2@@std@@V?$allocator@V?$basic_string@_WU?$char_traits@_W@std@@V?$allocator@_W@2@@std@@@2@@2@@std@@@2@@3@@Z$7 10026b34 f   deps_format.obj
 0001:00025b3c       __ehhandler$?load@deps_json_t@@AAE_N_NABV?$basic_string@_WU?$char_traits@_W@std@@V?$allocator@_W@2@@std@@ABV?$unordered_map@V?$basic_string@_WU?$char_traits@_W@std@@V?$allocator@_W@2@@std@@V?$vector@V?$basic_string@_WU?$char_traits@_W@std@@V?$allocator@_W@2@@std@@V?$allocator@V?$basic_string@_WU?$char_traits@_W@std@@V?$allocator@_W@2@@std@@@2@@2@U?$hash@V?$basic_string@_WU?$char_traits@_W@std@@V?$allocator@_W@2@@std@@@2@U?$equal_to@V?$basic_string@_WU?$char_traits@_W@std@@V?$allocator@_W@2@@std@@@2@V?$allocator@U?$pair@$$CBV?$basic_string@_WU?$char_traits@_W@std@@V?$allocator@_W@2@@std@@V?$vector@V?$basic_string@_WU?$char_traits@_W@std@@V?$allocator@_W@2@@std@@V?$allocator@V?$basic_string@_WU?$char_traits@_W@std@@V?$allocator@_W@2@@std@@@2@@2@@std@@@2@@3@@Z 10026b3c f   deps_format.obj
 0001:00025b70       __ehhandler$??$_Emplace_reallocate@ABUdeps_entry_t@@@?$vector@Udeps_entry_t@@V?$allocator@Udeps_entry_t@@@std@@@std@@QAEPAUdeps_entry_t@@QAU2@ABU2@@Z 10026b70 f   deps_format.obj
 0001:00025b90       __ehhandler$??$_Insert@AAU?$pair@$$CBV?$basic_string@_WU?$char_traits@_W@std@@V?$allocator@_W@2@@std@@H@std@@V?$_List_unchecked_iterator@V?$_List_val@U?$_List_simple_types@U?$pair@$$CBV?$basic_string@_WU?$char_traits@_W@std@@V?$allocator@_W@2@@std@@H@std@@@std@@@std@@@2@@?$_Hash@V?$_Umap_traits@V?$basic_string@_WU?$char_traits@_W@std@@V?$allocator@_W@2@@std@@HV?$_Uhash_compare@V?$basic_string@_WU?$char_traits@_W@std@@V?$allocator@_W@2@@std@@U?$hash@V?$basic_string@_WU?$char_traits@_W@std@@V?$allocator@_W@2@@std@@@2@U?$equal_to@V?$basic_string@_WU?$char_traits@_W@std@@V?$allocator@_W@2@@std@@@2@@2@V?$allocator@U?$pair@$$CBV?$basic_string@_WU?$char_traits@_W@std@@V?$allocator@_W@2@@std@@H@std@@@2@$0A@@std@@@std@@IAE?AU?$pair@V?$_List_iterator@V?$_List_val@U?$_List_simple_types@U?$pair@$$CBV?$basic_string@_WU?$char_traits@_W@std@@V?$allocator@_W@2@@std@@H@std@@@std@@@std@@@std@@_N@1@AAU?$pair@$$CBV?$basic_string@_WU?$char_traits@_W@std@@V?$allocator@_W@2@@std@@H@1@V?$_List_unchecked_iterator@V?$_List_val@U?$_List_simple_types@U?$pair@$$CBV?$basic_string@_WU?$char_traits@_W@std@@V?$allocator@_W@2@@std@@H@std@@@std@@@std@@@1@@Z 10026b90 f   deps_format.obj
 0001:00025bb0       __ehhandler$??$_Insert@AAU?$pair@$$CBV?$basic_string@_WU?$char_traits@_W@std@@V?$allocator@_W@2@@std@@Urid_assets_t@deps_json_t@@@std@@V?$_List_unchecked_iterator@V?$_List_val@U?$_List_simple_types@U?$pair@$$CBV?$basic_string@_WU?$char_traits@_W@std@@V?$allocator@_W@2@@std@@Urid_assets_t@deps_json_t@@@std@@@std@@@std@@@2@@?$_Hash@V?$_Umap_traits@V?$basic_string@_WU?$char_traits@_W@std@@V?$allocator@_W@2@@std@@Urid_assets_t@deps_json_t@@V?$_Uhash_compare@V?$basic_string@_WU?$char_traits@_W@std@@V?$allocator@_W@2@@std@@U?$hash@V?$basic_string@_WU?$char_traits@_W@std@@V?$allocator@_W@2@@std@@@2@U?$equal_to@V?$basic_string@_WU?$char_traits@_W@std@@V?$allocator@_W@2@@std@@@2@@2@V?$allocator@U?$pair@$$CBV?$basic_string@_WU?$char_traits@_W@std@@V?$allocator@_W@2@@std@@Urid_assets_t@deps_json_t@@@std@@@2@$0A@@std@@@std@@IAE?AU?$pair@V?$_List_iterator@V?$_List_val@U?$_List_simple_types@U?$pair@$$CBV?$basic_string@_WU?$char_traits@_W@std@@V?$allocator@_W@2@@std@@Urid_assets_t@deps_json_t@@@std@@@std@@@std@@@std@@_N@1@AAU?$pair@$$CBV?$basic_string@_WU?$char_traits@_W@std@@V?$allocator@_W@2@@std@@Urid_assets_t@deps_json_t@@@1@V?$_List_unchecked_iterator@V?$_List_val@U?$_List_simple_types@U?$pair@$$CBV?$basic_string@_WU?$char_traits@_W@std@@V?$allocator@_W@2@@std@@Urid_assets_t@deps_json_t@@@std@@@std@@@std@@@1@@Z 10026bb0 f   deps_format.obj
 0001:00025bd0       __ehhandler$??$_Insert@AAU?$pair@$$CBV?$basic_string@_WU?$char_traits@_W@std@@V?$allocator@_W@2@@std@@Uassets_t@deps_json_t@@@std@@V?$_List_unchecked_iterator@V?$_List_val@U?$_List_simple_types@U?$pair@$$CBV?$basic_string@_WU?$char_traits@_W@std@@V?$allocator@_W@2@@std@@Uassets_t@deps_json_t@@@std@@@std@@@std@@@2@@?$_Hash@V?$_Umap_traits@V?$basic_string@_WU?$char_traits@_W@std@@V?$allocator@_W@2@@std@@Uassets_t@deps_json_t@@V?$_Uhash_compare@V?$basic_string@_WU?$char_traits@_W@std@@V?$allocator@_W@2@@std@@U?$hash@V?$basic_string@_WU?$char_traits@_W@std@@V?$allocator@_W@2@@std@@@2@U?$equal_to@V?$basic_string@_WU?$char_traits@_W@std@@V?$allocator@_W@2@@std@@@2@@2@V?$allocator@U?$pair@$$CBV?$basic_string@_WU?$char_traits@_W@std@@V?$allocator@_W@2@@std@@Uassets_t@deps_json_t@@@std@@@2@$0A@@std@@@std@@IAE?AU?$pair@V?$_List_iterator@V?$_List_val@U?$_List_simple_types@U?$pair@$$CBV?$basic_string@_WU?$char_traits@_W@std@@V?$allocator@_W@2@@std@@Uassets_t@deps_json_t@@@std@@@std@@@std@@@std@@_N@1@AAU?$pair@$$CBV?$basic_string@_WU?$char_traits@_W@std@@V?$allocator@_W@2@@std@@Uassets_t@deps_json_t@@@1@V?$_List_unchecked_iterator@V?$_List_val@U?$_List_simple_types@U?$pair@$$CBV?$basic_string@_WU?$char_traits@_W@std@@V?$allocator@_W@2@@std@@Uassets_t@deps_json_t@@@std@@@std@@@std@@@1@@Z 10026bd0 f   deps_format.obj
 0001:00025bf0       __ehhandler$??$_Buynode@ABUpiecewise_construct_t@std@@V?$tuple@ABV?$basic_string@_WU?$char_traits@_W@std@@V?$allocator@_W@2@@std@@@2@V?$tuple@$$V@2@@?$_List_buy@U?$pair@$$CBV?$basic_string@_WU?$char_traits@_W@std@@V?$allocator@_W@2@@std@@H@std@@V?$allocator@U?$pair@$$CBV?$basic_string@_WU?$char_traits@_W@std@@V?$allocator@_W@2@@std@@H@std@@@2@@std@@QAEPAU?$_List_node@U?$pair@$$CBV?$basic_string@_WU?$char_traits@_W@std@@V?$allocator@_W@2@@std@@H@std@@PAX@1@PAU21@0ABUpiecewise_construct_t@1@$$QAV?$tuple@ABV?$basic_string@_WU?$char_traits@_W@std@@V?$allocator@_W@2@@std@@@1@$$QAV?$tuple@$$V@1@@Z 10026bf0 f   deps_format.obj
 0001:00025c10       __unwindfunclet$??$_Buynode@ABUpiecewise_construct_t@std@@V?$tuple@ABV?$basic_string@_WU?$char_traits@_W@std@@V?$allocator@_W@2@@std@@@2@V?$tuple@$$V@2@@?$_List_buy@U?$pair@$$CBV?$basic_string@_WU?$char_traits@_W@std@@V?$allocator@_W@2@@std@@Urid_assets_t@deps_json_t@@@std@@V?$allocator@U?$pair@$$CBV?$basic_string@_WU?$char_traits@_W@std@@V?$allocator@_W@2@@std@@Urid_assets_t@deps_json_t@@@std@@@2@@std@@QAEPAU?$_List_node@U?$pair@$$CBV?$basic_string@_WU?$char_traits@_W@std@@V?$allocator@_W@2@@std@@Urid_assets_t@deps_json_t@@@std@@PAX@1@PAU21@0ABUpiecewise_construct_t@1@$$QAV?$tuple@ABV?$basic_string@_WU?$char_traits@_W@std@@V?$allocator@_W@2@@std@@@1@$$QAV?$tuple@$$V@1@@Z$3 10026c10 f   deps_format.obj
 0001:00025c18       __ehhandler$??$_Buynode@ABUpiecewise_construct_t@std@@V?$tuple@ABV?$basic_string@_WU?$char_traits@_W@std@@V?$allocator@_W@2@@std@@@2@V?$tuple@$$V@2@@?$_List_buy@U?$pair@$$CBV?$basic_string@_WU?$char_traits@_W@std@@V?$allocator@_W@2@@std@@Urid_assets_t@deps_json_t@@@std@@V?$allocator@U?$pair@$$CBV?$basic_string@_WU?$char_traits@_W@std@@V?$allocator@_W@2@@std@@Urid_assets_t@deps_json_t@@@std@@@2@@std@@QAEPAU?$_List_node@U?$pair@$$CBV?$basic_string@_WU?$char_traits@_W@std@@V?$allocator@_W@2@@std@@Urid_assets_t@deps_json_t@@@std@@PAX@1@PAU21@0ABUpiecewise_construct_t@1@$$QAV?$tuple@ABV?$basic_string@_WU?$char_traits@_W@std@@V?$allocator@_W@2@@std@@@1@$$QAV?$tuple@$$V@1@@Z 10026c18 f   deps_format.obj
 0001:00025c40       __ehhandler$??$_Buynode@ABUpiecewise_construct_t@std@@V?$tuple@ABV?$basic_string@_WU?$char_traits@_W@std@@V?$allocator@_W@2@@std@@@2@V?$tuple@$$V@2@@?$_List_buy@U?$pair@$$CBV?$basic_string@_WU?$char_traits@_W@std@@V?$allocator@_W@2@@std@@Uassets_t@deps_json_t@@@std@@V?$allocator@U?$pair@$$CBV?$basic_string@_WU?$char_traits@_W@std@@V?$allocator@_W@2@@std@@Uassets_t@deps_json_t@@@std@@@2@@std@@QAEPAU?$_List_node@U?$pair@$$CBV?$basic_string@_WU?$char_traits@_W@std@@V?$allocator@_W@2@@std@@Uassets_t@deps_json_t@@@std@@PAX@1@PAU21@0ABUpiecewise_construct_t@1@$$QAV?$tuple@ABV?$basic_string@_WU?$char_traits@_W@std@@V?$allocator@_W@2@@std@@@1@$$QAV?$tuple@$$V@1@@Z 10026c40 f   deps_format.obj
 0001:00025c60       __unwindfunclet$?to_path@deps_entry_t@@QBE_NABV?$basic_string@_WU?$char_traits@_W@std@@V?$allocator@_W@2@@std@@_NPAV23@@Z$0 10026c60 f   deps_entry.obj
 0001:00025c68       __unwindfunclet$?to_path@deps_entry_t@@QBE_NABV?$basic_string@_WU?$char_traits@_W@std@@V?$allocator@_W@2@@std@@_NPAV23@@Z$1 10026c68 f   deps_entry.obj
 0001:00025c81       __unwindfunclet$?to_path@deps_entry_t@@QBE_NABV?$basic_string@_WU?$char_traits@_W@std@@V?$allocator@_W@2@@std@@_NPAV23@@Z$3 10026c81 f   deps_entry.obj
 0001:00025c89       __ehhandler$?to_path@deps_entry_t@@QBE_NABV?$basic_string@_WU?$char_traits@_W@std@@V?$allocator@_W@2@@std@@_NPAV23@@Z 10026c89 f   deps_entry.obj
 0001:00025cb0       __unwindfunclet$?to_dir_path@deps_entry_t@@QBE_NABV?$basic_string@_WU?$char_traits@_W@std@@V?$allocator@_W@2@@std@@PAV23@@Z$0 10026cb0 f   deps_entry.obj
 0001:00025cb8       __unwindfunclet$?to_dir_path@deps_entry_t@@QBE_NABV?$basic_string@_WU?$char_traits@_W@std@@V?$allocator@_W@2@@std@@PAV23@@Z$1 10026cb8 f   deps_entry.obj
 0001:00025cc0       __unwindfunclet$?to_dir_path@deps_entry_t@@QBE_NABV?$basic_string@_WU?$char_traits@_W@std@@V?$allocator@_W@2@@std@@PAV23@@Z$2 10026cc0 f   deps_entry.obj
 0001:00025cc8       __unwindfunclet$?to_dir_path@deps_entry_t@@QBE_NABV?$basic_string@_WU?$char_traits@_W@std@@V?$allocator@_W@2@@std@@PAV23@@Z$3 10026cc8 f   deps_entry.obj
 0001:00025cd0       __ehhandler$?to_dir_path@deps_entry_t@@QBE_NABV?$basic_string@_WU?$char_traits@_W@std@@V?$allocator@_W@2@@std@@PAV23@@Z 10026cd0 f   deps_entry.obj
 0001:00025d00       __unwindfunclet$?readdir@pal@@YAXABV?$basic_string@_WU?$char_traits@_W@std@@V?$allocator@_W@2@@std@@PAV?$vector@V?$basic_string@_WU?$char_traits@_W@std@@V?$allocator@_W@2@@std@@V?$allocator@V?$basic_string@_WU?$char_traits@_W@std@@V?$allocator@_W@2@@std@@@2@@3@@Z$0 10026d00 f   pal.windows.obj
 0001:00025d00       __unwindfunclet$?to_full_path@deps_entry_t@@QBE_NABV?$basic_string@_WU?$char_traits@_W@std@@V?$allocator@_W@2@@std@@PAV23@@Z$0 10026d00 f   deps_entry.obj
 0001:00025d08       __ehhandler$?readdir@pal@@YAXABV?$basic_string@_WU?$char_traits@_W@std@@V?$allocator@_W@2@@std@@PAV?$vector@V?$basic_string@_WU?$char_traits@_W@std@@V?$allocator@_W@2@@std@@V?$allocator@V?$basic_string@_WU?$char_traits@_W@std@@V?$allocator@_W@2@@std@@@2@@3@@Z 10026d08 f   pal.windows.obj
 0001:00025d08       __ehhandler$?to_full_path@deps_entry_t@@QBE_NABV?$basic_string@_WU?$char_traits@_W@std@@V?$allocator@_W@2@@std@@PAV23@@Z 10026d08 f   deps_entry.obj
 0001:00025d30       __unwindfunclet$?to_hash_matched_path@deps_entry_t@@QBE_NABV?$basic_string@_WU?$char_traits@_W@std@@V?$allocator@_W@2@@std@@PAV23@@Z$0 10026d30 f   deps_entry.obj
 0001:00025d38       __unwindfunclet$?to_hash_matched_path@deps_entry_t@@QBE_NABV?$basic_string@_WU?$char_traits@_W@std@@V?$allocator@_W@2@@std@@PAV23@@Z$1 10026d38 f   deps_entry.obj
 0001:00025d40       __unwindfunclet$?to_hash_matched_path@deps_entry_t@@QBE_NABV?$basic_string@_WU?$char_traits@_W@std@@V?$allocator@_W@2@@std@@PAV23@@Z$2 10026d40 f   deps_entry.obj
 0001:00025d48       __unwindfunclet$?to_hash_matched_path@deps_entry_t@@QBE_NABV?$basic_string@_WU?$char_traits@_W@std@@V?$allocator@_W@2@@std@@PAV23@@Z$3 10026d48 f   deps_entry.obj
 0001:00025d53       __unwindfunclet$?to_hash_matched_path@deps_entry_t@@QBE_NABV?$basic_string@_WU?$char_traits@_W@std@@V?$allocator@_W@2@@std@@PAV23@@Z$4 10026d53 f   deps_entry.obj
 0001:00025d5b       __unwindfunclet$?to_hash_matched_path@deps_entry_t@@QBE_NABV?$basic_string@_WU?$char_traits@_W@std@@V?$allocator@_W@2@@std@@PAV23@@Z$24 10026d5b f   deps_entry.obj
 0001:00025d63       __unwindfunclet$?to_hash_matched_path@deps_entry_t@@QBE_NABV?$basic_string@_WU?$char_traits@_W@std@@V?$allocator@_W@2@@std@@PAV23@@Z$5 10026d63 f   deps_entry.obj
 0001:00025d6e       __unwindfunclet$?to_hash_matched_path@deps_entry_t@@QBE_NABV?$basic_string@_WU?$char_traits@_W@std@@V?$allocator@_W@2@@std@@PAV23@@Z$6 10026d6e f   deps_entry.obj
 0001:00025d76       __unwindfunclet$?to_hash_matched_path@deps_entry_t@@QBE_NABV?$basic_string@_WU?$char_traits@_W@std@@V?$allocator@_W@2@@std@@PAV23@@Z$7 10026d76 f   deps_entry.obj
 0001:00025d81       __ehhandler$?to_hash_matched_path@deps_entry_t@@QBE_NABV?$basic_string@_WU?$char_traits@_W@std@@V?$allocator@_W@2@@std@@PAV23@@Z 10026d81 f   deps_entry.obj
 0001:00025db0       __ehhandler$??$_Construct@V?$istreambuf_iterator@DU?$char_traits@D@std@@@std@@@?$basic_string@DU?$char_traits@D@std@@V?$allocator@D@2@@std@@QAEXV?$istreambuf_iterator@DU?$char_traits@D@std@@@1@V21@Uinput_iterator_tag@1@@Z 10026db0 f   deps_entry.obj
 0001:00025dd0       __unwindfunclet$?add_tpa_asset@?A0xa0b67cc8@@YAXABV?$basic_string@_WU?$char_traits@_W@std@@V?$allocator@_W@2@@std@@0PAV?$unordered_set@V?$basic_string@_WU?$char_traits@_W@std@@V?$allocator@_W@2@@std@@U?$hash@V?$basic_string@_WU?$char_traits@_W@std@@V?$allocator@_W@2@@std@@@2@U?$equal_to@V?$basic_string@_WU?$char_traits@_W@std@@V?$allocator@_W@2@@std@@@2@V?$allocator@V?$basic_string@_WU?$char_traits@_W@std@@V?$allocator@_W@2@@std@@@2@@3@PAV23@@Z$0 10026dd0 f   deps_resolver.obj
 0001:00025dd0       __unwindfunclet$?add_unique_path@?A0xa0b67cc8@@YAXW4asset_types@deps_entry_t@@ABV?$basic_string@_WU?$char_traits@_W@std@@V?$allocator@_W@2@@std@@PAV?$unordered_set@V?$basic_string@_WU?$char_traits@_W@std@@V?$allocator@_W@2@@std@@U?$hash@V?$basic_string@_WU?$char_traits@_W@std@@V?$allocator@_W@2@@std@@@2@U?$equal_to@V?$basic_string@_WU?$char_traits@_W@std@@V?$allocator@_W@2@@std@@@2@V?$allocator@V?$basic_string@_WU?$char_traits@_W@std@@V?$allocator@_W@2@@std@@@2@@5@PAV45@31@Z$0 10026dd0 f   deps_resolver.obj
 0001:00025dd8       __ehhandler$?add_unique_path@?A0xa0b67cc8@@YAXW4asset_types@deps_entry_t@@ABV?$basic_string@_WU?$char_traits@_W@std@@V?$allocator@_W@2@@std@@PAV?$unordered_set@V?$basic_string@_WU?$char_traits@_W@std@@V?$allocator@_W@2@@std@@U?$hash@V?$basic_string@_WU?$char_traits@_W@std@@V?$allocator@_W@2@@std@@@2@U?$equal_to@V?$basic_string@_WU?$char_traits@_W@std@@V?$allocator@_W@2@@std@@@2@V?$allocator@V?$basic_string@_WU?$char_traits@_W@std@@V?$allocator@_W@2@@std@@@2@@5@PAV45@31@Z 10026dd8 f   deps_resolver.obj
 0001:00025dd8       __ehhandler$?add_tpa_asset@?A0xa0b67cc8@@YAXABV?$basic_string@_WU?$char_traits@_W@std@@V?$allocator@_W@2@@std@@0PAV?$unordered_set@V?$basic_string@_WU?$char_traits@_W@std@@V?$allocator@_W@2@@std@@U?$hash@V?$basic_string@_WU?$char_traits@_W@std@@V?$allocator@_W@2@@std@@@2@U?$equal_to@V?$basic_string@_WU?$char_traits@_W@std@@V?$allocator@_W@2@@std@@@2@V?$allocator@V?$basic_string@_WU?$char_traits@_W@std@@V?$allocator@_W@2@@std@@@2@@3@PAV23@@Z 10026dd8 f   deps_resolver.obj
 0001:00025e00       __unwindfunclet$?get_dir_assemblies@deps_resolver_t@@AAEXABV?$basic_string@_WU?$char_traits@_W@std@@V?$allocator@_W@2@@std@@0PAV?$unordered_map@V?$basic_string@_WU?$char_traits@_W@std@@V?$allocator@_W@2@@std@@V12@U?$hash@V?$basic_string@_WU?$char_traits@_W@std@@V?$allocator@_W@2@@std@@@2@U?$equal_to@V?$basic_string@_WU?$char_traits@_W@std@@V?$allocator@_W@2@@std@@@2@V?$allocator@U?$pair@$$CBV?$basic_string@_WU?$char_traits@_W@std@@V?$allocator@_W@2@@std@@V12@@std@@@2@@3@@Z$0 10026e00 f   deps_resolver.obj
 0001:00025e08       __unwindfunclet$?get_dir_assemblies@deps_resolver_t@@AAEXABV?$basic_string@_WU?$char_traits@_W@std@@V?$allocator@_W@2@@std@@0PAV?$unordered_map@V?$basic_string@_WU?$char_traits@_W@std@@V?$allocator@_W@2@@std@@V12@U?$hash@V?$basic_string@_WU?$char_traits@_W@std@@V?$allocator@_W@2@@std@@@2@U?$equal_to@V?$basic_string@_WU?$char_traits@_W@std@@V?$allocator@_W@2@@std@@@2@V?$allocator@U?$pair@$$CBV?$basic_string@_WU?$char_traits@_W@std@@V?$allocator@_W@2@@std@@V12@@std@@@2@@3@@Z$1 10026e08 f   deps_resolver.obj
 0001:00025e10       __unwindfunclet$?get_dir_assemblies@deps_resolver_t@@AAEXABV?$basic_string@_WU?$char_traits@_W@std@@V?$allocator@_W@2@@std@@0PAV?$unordered_map@V?$basic_string@_WU?$char_traits@_W@std@@V?$allocator@_W@2@@std@@V12@U?$hash@V?$basic_string@_WU?$char_traits@_W@std@@V?$allocator@_W@2@@std@@@2@U?$equal_to@V?$basic_string@_WU?$char_traits@_W@std@@V?$allocator@_W@2@@std@@@2@V?$allocator@U?$pair@$$CBV?$basic_string@_WU?$char_traits@_W@std@@V?$allocator@_W@2@@std@@V12@@std@@@2@@3@@Z$2 10026e10 f   deps_resolver.obj
 0001:00025e18       __unwindfunclet$?get_dir_assemblies@deps_resolver_t@@AAEXABV?$basic_string@_WU?$char_traits@_W@std@@V?$allocator@_W@2@@std@@0PAV?$unordered_map@V?$basic_string@_WU?$char_traits@_W@std@@V?$allocator@_W@2@@std@@V12@U?$hash@V?$basic_string@_WU?$char_traits@_W@std@@V?$allocator@_W@2@@std@@@2@U?$equal_to@V?$basic_string@_WU?$char_traits@_W@std@@V?$allocator@_W@2@@std@@@2@V?$allocator@U?$pair@$$CBV?$basic_string@_WU?$char_traits@_W@std@@V?$allocator@_W@2@@std@@V12@@std@@@2@@3@@Z$4 10026e18 f   deps_resolver.obj
 0001:00025e2b       __unwindfunclet$?get_dir_assemblies@deps_resolver_t@@AAEXABV?$basic_string@_WU?$char_traits@_W@std@@V?$allocator@_W@2@@std@@0PAV?$unordered_map@V?$basic_string@_WU?$char_traits@_W@std@@V?$allocator@_W@2@@std@@V12@U?$hash@V?$basic_string@_WU?$char_traits@_W@std@@V?$allocator@_W@2@@std@@@2@U?$equal_to@V?$basic_string@_WU?$char_traits@_W@std@@V?$allocator@_W@2@@std@@@2@V?$allocator@U?$pair@$$CBV?$basic_string@_WU?$char_traits@_W@std@@V?$allocator@_W@2@@std@@V12@@std@@@2@@3@@Z$5 10026e2b f   deps_resolver.obj
 0001:00025e36       __unwindfunclet$?get_dir_assemblies@deps_resolver_t@@AAEXABV?$basic_string@_WU?$char_traits@_W@std@@V?$allocator@_W@2@@std@@0PAV?$unordered_map@V?$basic_string@_WU?$char_traits@_W@std@@V?$allocator@_W@2@@std@@V12@U?$hash@V?$basic_string@_WU?$char_traits@_W@std@@V?$allocator@_W@2@@std@@@2@U?$equal_to@V?$basic_string@_WU?$char_traits@_W@std@@V?$allocator@_W@2@@std@@@2@V?$allocator@U?$pair@$$CBV?$basic_string@_WU?$char_traits@_W@std@@V?$allocator@_W@2@@std@@V12@@std@@@2@@3@@Z$6 10026e36 f   deps_resolver.obj
 0001:00025e41       __unwindfunclet$?get_dir_assemblies@deps_resolver_t@@AAEXABV?$basic_string@_WU?$char_traits@_W@std@@V?$allocator@_W@2@@std@@0PAV?$unordered_map@V?$basic_string@_WU?$char_traits@_W@std@@V?$allocator@_W@2@@std@@V12@U?$hash@V?$basic_string@_WU?$char_traits@_W@std@@V?$allocator@_W@2@@std@@@2@U?$equal_to@V?$basic_string@_WU?$char_traits@_W@std@@V?$allocator@_W@2@@std@@@2@V?$allocator@U?$pair@$$CBV?$basic_string@_WU?$char_traits@_W@std@@V?$allocator@_W@2@@std@@V12@@std@@@2@@3@@Z$7 10026e41 f   deps_resolver.obj
 0001:00025e4c       __unwindfunclet$?get_dir_assemblies@deps_resolver_t@@AAEXABV?$basic_string@_WU?$char_traits@_W@std@@V?$allocator@_W@2@@std@@0PAV?$unordered_map@V?$basic_string@_WU?$char_traits@_W@std@@V?$allocator@_W@2@@std@@V12@U?$hash@V?$basic_string@_WU?$char_traits@_W@std@@V?$allocator@_W@2@@std@@@2@U?$equal_to@V?$basic_string@_WU?$char_traits@_W@std@@V?$allocator@_W@2@@std@@@2@V?$allocator@U?$pair@$$CBV?$basic_string@_WU?$char_traits@_W@std@@V?$allocator@_W@2@@std@@V12@@std@@@2@@3@@Z$8 10026e4c f   deps_resolver.obj
 0001:00025e57       __unwindfunclet$?get_dir_assemblies@deps_resolver_t@@AAEXABV?$basic_string@_WU?$char_traits@_W@std@@V?$allocator@_W@2@@std@@0PAV?$unordered_map@V?$basic_string@_WU?$char_traits@_W@std@@V?$allocator@_W@2@@std@@V12@U?$hash@V?$basic_string@_WU?$char_traits@_W@std@@V?$allocator@_W@2@@std@@@2@U?$equal_to@V?$basic_string@_WU?$char_traits@_W@std@@V?$allocator@_W@2@@std@@@2@V?$allocator@U?$pair@$$CBV?$basic_string@_WU?$char_traits@_W@std@@V?$allocator@_W@2@@std@@V12@@std@@@2@@3@@Z$9 10026e57 f   deps_resolver.obj
 0001:00025e62       __ehhandler$?get_dir_assemblies@deps_resolver_t@@AAEXABV?$basic_string@_WU?$char_traits@_W@std@@V?$allocator@_W@2@@std@@0PAV?$unordered_map@V?$basic_string@_WU?$char_traits@_W@std@@V?$allocator@_W@2@@std@@V12@U?$hash@V?$basic_string@_WU?$char_traits@_W@std@@V?$allocator@_W@2@@std@@@2@U?$equal_to@V?$basic_string@_WU?$char_traits@_W@std@@V?$allocator@_W@2@@std@@@2@V?$allocator@U?$pair@$$CBV?$basic_string@_WU?$char_traits@_W@std@@V?$allocator@_W@2@@std@@V12@@std@@@2@@3@@Z 10026e62 f   deps_resolver.obj
 0001:00025e90       __unwindfunclet$?try_roll_forward@deps_resolver_t@@AAE_NABUdeps_entry_t@@ABV?$basic_string@_WU?$char_traits@_W@std@@V?$allocator@_W@2@@std@@_N2PAV34@@Z$0 10026e90 f   deps_resolver.obj
 0001:00025e9b       __unwindfunclet$?try_roll_forward@deps_resolver_t@@AAE_NABUdeps_entry_t@@ABV?$basic_string@_WU?$char_traits@_W@std@@V?$allocator@_W@2@@std@@_N2PAV34@@Z$1 10026e9b f   deps_resolver.obj
 0001:00025ea3       __unwindfunclet$?try_roll_forward@deps_resolver_t@@AAE_NABUdeps_entry_t@@ABV?$basic_string@_WU?$char_traits@_W@std@@V?$allocator@_W@2@@std@@_N2PAV34@@Z$2 10026ea3 f   deps_resolver.obj
 0001:00025eab       __unwindfunclet$?try_roll_forward@deps_resolver_t@@AAE_NABUdeps_entry_t@@ABV?$basic_string@_WU?$char_traits@_W@std@@V?$allocator@_W@2@@std@@_N2PAV34@@Z$3 10026eab f   deps_resolver.obj
 0001:00025eb3       __unwindfunclet$?try_roll_forward@deps_resolver_t@@AAE_NABUdeps_entry_t@@ABV?$basic_string@_WU?$char_traits@_W@std@@V?$allocator@_W@2@@std@@_N2PAV34@@Z$4 10026eb3 f   deps_resolver.obj
 0001:00025ebb       __unwindfunclet$?try_roll_forward@deps_resolver_t@@AAE_NABUdeps_entry_t@@ABV?$basic_string@_WU?$char_traits@_W@std@@V?$allocator@_W@2@@std@@_N2PAV34@@Z$5 10026ebb f   deps_resolver.obj
 0001:00025ec3       __unwindfunclet$?try_roll_forward@deps_resolver_t@@AAE_NABUdeps_entry_t@@ABV?$basic_string@_WU?$char_traits@_W@std@@V?$allocator@_W@2@@std@@_N2PAV34@@Z$6 10026ec3 f   deps_resolver.obj
 0001:00025ecb       __ehhandler$?try_roll_forward@deps_resolver_t@@AAE_NABUdeps_entry_t@@ABV?$basic_string@_WU?$char_traits@_W@std@@V?$allocator@_W@2@@std@@_N2PAV34@@Z 10026ecb f   deps_resolver.obj
 0001:00025f00       __unwindfunclet$?setup_probe_config@deps_resolver_t@@QAEXABUhostpolicy_init_t@@ABUarguments_t@@@Z$0 10026f00 f   deps_resolver.obj
 0001:00025f08       __unwindfunclet$?setup_probe_config@deps_resolver_t@@QAEXABUhostpolicy_init_t@@ABUarguments_t@@@Z$1 10026f08 f   deps_resolver.obj
 0001:00025f10       __unwindfunclet$?setup_probe_config@deps_resolver_t@@QAEXABUhostpolicy_init_t@@ABUarguments_t@@@Z$2 10026f10 f   deps_resolver.obj
 0001:00025f18       __unwindfunclet$?setup_probe_config@deps_resolver_t@@QAEXABUhostpolicy_init_t@@ABUarguments_t@@@Z$3 10026f18 f   deps_resolver.obj
 0001:00025f20       __unwindfunclet$?setup_probe_config@deps_resolver_t@@QAEXABUhostpolicy_init_t@@ABUarguments_t@@@Z$4 10026f20 f   deps_resolver.obj
 0001:00025f28       __unwindfunclet$?setup_probe_config@deps_resolver_t@@QAEXABUhostpolicy_init_t@@ABUarguments_t@@@Z$5 10026f28 f   deps_resolver.obj
 0001:00025f30       __unwindfunclet$?setup_probe_config@deps_resolver_t@@QAEXABUhostpolicy_init_t@@ABUarguments_t@@@Z$6 10026f30 f   deps_resolver.obj
 0001:00025f38       __unwindfunclet$?setup_probe_config@deps_resolver_t@@QAEXABUhostpolicy_init_t@@ABUarguments_t@@@Z$7 10026f38 f   deps_resolver.obj
 0001:00025f40       __unwindfunclet$?setup_probe_config@deps_resolver_t@@QAEXABUhostpolicy_init_t@@ABUarguments_t@@@Z$8 10026f40 f   deps_resolver.obj
 0001:00025f48       __ehhandler$?setup_probe_config@deps_resolver_t@@QAEXABUhostpolicy_init_t@@ABUarguments_t@@@Z 10026f48 f   deps_resolver.obj
 0001:00025f70       __unwindfunclet$?probe_entry_in_configs@deps_resolver_t@@AAE_NABUdeps_entry_t@@PAV?$basic_string@_WU?$char_traits@_W@std@@V?$allocator@_W@2@@std@@@Z$0 10026f70 f   deps_resolver.obj
 0001:00025f78       __unwindfunclet$?probe_entry_in_configs@deps_resolver_t@@AAE_NABUdeps_entry_t@@PAV?$basic_string@_WU?$char_traits@_W@std@@V?$allocator@_W@2@@std@@@Z$5 10026f78 f   deps_resolver.obj
 0001:00025f80       __ehhandler$?probe_entry_in_configs@deps_resolver_t@@AAE_NABUdeps_entry_t@@PAV?$basic_string@_WU?$char_traits@_W@std@@V?$allocator@_W@2@@std@@@Z 10026f80 f   deps_resolver.obj
 0001:00025fc0       __unwindfunclet$?resolve_tpa_list@deps_resolver_t@@AAE_NPAV?$basic_string@_WU?$char_traits@_W@std@@V?$allocator@_W@2@@std@@PAV?$unordered_set@V?$basic_string@_WU?$char_traits@_W@std@@V?$allocator@_W@2@@std@@U?$hash@V?$basic_string@_WU?$char_traits@_W@std@@V?$allocator@_W@2@@std@@@2@U?$equal_to@V?$basic_string@_WU?$char_traits@_W@std@@V?$allocator@_W@2@@std@@@2@V?$allocator@V?$basic_string@_WU?$char_traits@_W@std@@V?$allocator@_W@2@@std@@@2@@3@@Z$0 10026fc0 f   deps_resolver.obj
 0001:00025fc8       __unwindfunclet$?resolve_tpa_list@deps_resolver_t@@AAE_NPAV?$basic_string@_WU?$char_traits@_W@std@@V?$allocator@_W@2@@std@@PAV?$unordered_set@V?$basic_string@_WU?$char_traits@_W@std@@V?$allocator@_W@2@@std@@U?$hash@V?$basic_string@_WU?$char_traits@_W@std@@V?$allocator@_W@2@@std@@@2@U?$equal_to@V?$basic_string@_WU?$char_traits@_W@std@@V?$allocator@_W@2@@std@@@2@V?$allocator@V?$basic_string@_WU?$char_traits@_W@std@@V?$allocator@_W@2@@std@@@2@@3@@Z$1 10026fc8 f   deps_resolver.obj
 0001:00025fd3       __unwindfunclet$?resolve_tpa_list@deps_resolver_t@@AAE_NPAV?$basic_string@_WU?$char_traits@_W@std@@V?$allocator@_W@2@@std@@PAV?$unordered_set@V?$basic_string@_WU?$char_traits@_W@std@@V?$allocator@_W@2@@std@@U?$hash@V?$basic_string@_WU?$char_traits@_W@std@@V?$allocator@_W@2@@std@@@2@U?$equal_to@V?$basic_string@_WU?$char_traits@_W@std@@V?$allocator@_W@2@@std@@@2@V?$allocator@V?$basic_string@_WU?$char_traits@_W@std@@V?$allocator@_W@2@@std@@@2@@3@@Z$2 10026fd3 f   deps_resolver.obj
 0001:00025fdb       __unwindfunclet$?resolve_tpa_list@deps_resolver_t@@AAE_NPAV?$basic_string@_WU?$char_traits@_W@std@@V?$allocator@_W@2@@std@@PAV?$unordered_set@V?$basic_string@_WU?$char_traits@_W@std@@V?$allocator@_W@2@@std@@U?$hash@V?$basic_string@_WU?$char_traits@_W@std@@V?$allocator@_W@2@@std@@@2@U?$equal_to@V?$basic_string@_WU?$char_traits@_W@std@@V?$allocator@_W@2@@std@@@2@V?$allocator@V?$basic_string@_WU?$char_traits@_W@std@@V?$allocator@_W@2@@std@@@2@@3@@Z$3 10026fdb f   deps_resolver.obj
 0001:00025fe6       __unwindfunclet$?resolve_tpa_list@deps_resolver_t@@AAE_NPAV?$basic_string@_WU?$char_traits@_W@std@@V?$allocator@_W@2@@std@@PAV?$unordered_set@V?$basic_string@_WU?$char_traits@_W@std@@V?$allocator@_W@2@@std@@U?$hash@V?$basic_string@_WU?$char_traits@_W@std@@V?$allocator@_W@2@@std@@@2@U?$equal_to@V?$basic_string@_WU?$char_traits@_W@std@@V?$allocator@_W@2@@std@@@2@V?$allocator@V?$basic_string@_WU?$char_traits@_W@std@@V?$allocator@_W@2@@std@@@2@@3@@Z$4 10026fe6 f   deps_resolver.obj
 0001:00025fee       __ehhandler$?resolve_tpa_list@deps_resolver_t@@AAE_NPAV?$basic_string@_WU?$char_traits@_W@std@@V?$allocator@_W@2@@std@@PAV?$unordered_set@V?$basic_string@_WU?$char_traits@_W@std@@V?$allocator@_W@2@@std@@U?$hash@V?$basic_string@_WU?$char_traits@_W@std@@V?$allocator@_W@2@@std@@@2@U?$equal_to@V?$basic_string@_WU?$char_traits@_W@std@@V?$allocator@_W@2@@std@@@2@V?$allocator@V?$basic_string@_WU?$char_traits@_W@std@@V?$allocator@_W@2@@std@@@2@@3@@Z 10026fee f   deps_resolver.obj
 0001:00026020       __unwindfunclet$??R<lambda_a2ef49da93dd4a41c14ce17fbded6c76>@@QBE_NABV?$basic_string@_WU?$char_traits@_W@std@@V?$allocator@_W@2@@std@@PAVdeps_json_t@@ABUdeps_entry_t@@@Z$0 10027020 f   deps_resolver.obj
 0001:00026028       __unwindfunclet$??R<lambda_a2ef49da93dd4a41c14ce17fbded6c76>@@QBE_NABV?$basic_string@_WU?$char_traits@_W@std@@V?$allocator@_W@2@@std@@PAVdeps_json_t@@ABUdeps_entry_t@@@Z$1 10027028 f   deps_resolver.obj
 0001:00026030       __unwindfunclet$??R<lambda_a2ef49da93dd4a41c14ce17fbded6c76>@@QBE_NABV?$basic_string@_WU?$char_traits@_W@std@@V?$allocator@_W@2@@std@@PAVdeps_json_t@@ABUdeps_entry_t@@@Z$2 10027030 f   deps_resolver.obj
 0001:00026038       __unwindfunclet$??R<lambda_a2ef49da93dd4a41c14ce17fbded6c76>@@QBE_NABV?$basic_string@_WU?$char_traits@_W@std@@V?$allocator@_W@2@@std@@PAVdeps_json_t@@ABUdeps_entry_t@@@Z$3 10027038 f   deps_resolver.obj
 0001:00026040       __ehhandler$??R<lambda_a2ef49da93dd4a41c14ce17fbded6c76>@@QBE_NABV?$basic_string@_WU?$char_traits@_W@std@@V?$allocator@_W@2@@std@@PAVdeps_json_t@@ABUdeps_entry_t@@@Z 10027040 f   deps_resolver.obj
 0001:00026070       __unwindfunclet$?init_known_entry_path@deps_resolver_t@@QAEXABUdeps_entry_t@@ABV?$basic_string@_WU?$char_traits@_W@std@@V?$allocator@_W@2@@std@@@Z$0 10027070 f   deps_resolver.obj
 0001:00026089       __unwindfunclet$?init_known_entry_path@deps_resolver_t@@QAEXABUdeps_entry_t@@ABV?$basic_string@_WU?$char_traits@_W@std@@V?$allocator@_W@2@@std@@@Z$1 10027089 f   deps_resolver.obj
 0001:000260a2       __unwindfunclet$?init_known_entry_path@deps_resolver_t@@QAEXABUdeps_entry_t@@ABV?$basic_string@_WU?$char_traits@_W@std@@V?$allocator@_W@2@@std@@@Z$2 100270a2 f   deps_resolver.obj
 0001:000260bb       __unwindfunclet$?init_known_entry_path@deps_resolver_t@@QAEXABUdeps_entry_t@@ABV?$basic_string@_WU?$char_traits@_W@std@@V?$allocator@_W@2@@std@@@Z$3 100270bb f   deps_resolver.obj
 0001:000260d4       __ehhandler$?init_known_entry_path@deps_resolver_t@@QAEXABUdeps_entry_t@@ABV?$basic_string@_WU?$char_traits@_W@std@@V?$allocator@_W@2@@std@@@Z 100270d4 f   deps_resolver.obj
 0001:00026100       __unwindfunclet$?resolve_probe_dirs@deps_resolver_t@@AAE_NW4asset_types@deps_entry_t@@PAV?$basic_string@_WU?$char_traits@_W@std@@V?$allocator@_W@2@@std@@PAV?$unordered_set@V?$basic_string@_WU?$char_traits@_W@std@@V?$allocator@_W@2@@std@@U?$hash@V?$basic_string@_WU?$char_traits@_W@std@@V?$allocator@_W@2@@std@@@2@U?$equal_to@V?$basic_string@_WU?$char_traits@_W@std@@V?$allocator@_W@2@@std@@@2@V?$allocator@V?$basic_string@_WU?$char_traits@_W@std@@V?$allocator@_W@2@@std@@@2@@5@@Z$0 10027100 f   deps_resolver.obj
 0001:0002610b       __unwindfunclet$?resolve_probe_dirs@deps_resolver_t@@AAE_NW4asset_types@deps_entry_t@@PAV?$basic_string@_WU?$char_traits@_W@std@@V?$allocator@_W@2@@std@@PAV?$unordered_set@V?$basic_string@_WU?$char_traits@_W@std@@V?$allocator@_W@2@@std@@U?$hash@V?$basic_string@_WU?$char_traits@_W@std@@V?$allocator@_W@2@@std@@@2@U?$equal_to@V?$basic_string@_WU?$char_traits@_W@std@@V?$allocator@_W@2@@std@@@2@V?$allocator@V?$basic_string@_WU?$char_traits@_W@std@@V?$allocator@_W@2@@std@@@2@@5@@Z$1 1002710b f   deps_resolver.obj
 0001:00026116       __unwindfunclet$?resolve_probe_dirs@deps_resolver_t@@AAE_NW4asset_types@deps_entry_t@@PAV?$basic_string@_WU?$char_traits@_W@std@@V?$allocator@_W@2@@std@@PAV?$unordered_set@V?$basic_string@_WU?$char_traits@_W@std@@V?$allocator@_W@2@@std@@U?$hash@V?$basic_string@_WU?$char_traits@_W@std@@V?$allocator@_W@2@@std@@@2@U?$equal_to@V?$basic_string@_WU?$char_traits@_W@std@@V?$allocator@_W@2@@std@@@2@V?$allocator@V?$basic_string@_WU?$char_traits@_W@std@@V?$allocator@_W@2@@std@@@2@@5@@Z$2 10027116 f   deps_resolver.obj
 0001:00026121       __unwindfunclet$?resolve_probe_dirs@deps_resolver_t@@AAE_NW4asset_types@deps_entry_t@@PAV?$basic_string@_WU?$char_traits@_W@std@@V?$allocator@_W@2@@std@@PAV?$unordered_set@V?$basic_string@_WU?$char_traits@_W@std@@V?$allocator@_W@2@@std@@U?$hash@V?$basic_string@_WU?$char_traits@_W@std@@V?$allocator@_W@2@@std@@@2@U?$equal_to@V?$basic_string@_WU?$char_traits@_W@std@@V?$allocator@_W@2@@std@@@2@V?$allocator@V?$basic_string@_WU?$char_traits@_W@std@@V?$allocator@_W@2@@std@@@2@@5@@Z$3 10027121 f   deps_resolver.obj
 0001:00026129       __unwindfunclet$?resolve_probe_dirs@deps_resolver_t@@AAE_NW4asset_types@deps_entry_t@@PAV?$basic_string@_WU?$char_traits@_W@std@@V?$allocator@_W@2@@std@@PAV?$unordered_set@V?$basic_string@_WU?$char_traits@_W@std@@V?$allocator@_W@2@@std@@U?$hash@V?$basic_string@_WU?$char_traits@_W@std@@V?$allocator@_W@2@@std@@@2@U?$equal_to@V?$basic_string@_WU?$char_traits@_W@std@@V?$allocator@_W@2@@std@@@2@V?$allocator@V?$basic_string@_WU?$char_traits@_W@std@@V?$allocator@_W@2@@std@@@2@@5@@Z$4 10027129 f   deps_resolver.obj
 0001:00026131       __unwindfunclet$?resolve_probe_dirs@deps_resolver_t@@AAE_NW4asset_types@deps_entry_t@@PAV?$basic_string@_WU?$char_traits@_W@std@@V?$allocator@_W@2@@std@@PAV?$unordered_set@V?$basic_string@_WU?$char_traits@_W@std@@V?$allocator@_W@2@@std@@U?$hash@V?$basic_string@_WU?$char_traits@_W@std@@V?$allocator@_W@2@@std@@@2@U?$equal_to@V?$basic_string@_WU?$char_traits@_W@std@@V?$allocator@_W@2@@std@@@2@V?$allocator@V?$basic_string@_WU?$char_traits@_W@std@@V?$allocator@_W@2@@std@@@2@@5@@Z$5 10027131 f   deps_resolver.obj
 0001:0002613c       __unwindfunclet$?resolve_probe_dirs@deps_resolver_t@@AAE_NW4asset_types@deps_entry_t@@PAV?$basic_string@_WU?$char_traits@_W@std@@V?$allocator@_W@2@@std@@PAV?$unordered_set@V?$basic_string@_WU?$char_traits@_W@std@@V?$allocator@_W@2@@std@@U?$hash@V?$basic_string@_WU?$char_traits@_W@std@@V?$allocator@_W@2@@std@@@2@U?$equal_to@V?$basic_string@_WU?$char_traits@_W@std@@V?$allocator@_W@2@@std@@@2@V?$allocator@V?$basic_string@_WU?$char_traits@_W@std@@V?$allocator@_W@2@@std@@@2@@5@@Z$6 1002713c f   deps_resolver.obj
 0001:00026144       __unwindfunclet$?resolve_probe_dirs@deps_resolver_t@@AAE_NW4asset_types@deps_entry_t@@PAV?$basic_string@_WU?$char_traits@_W@std@@V?$allocator@_W@2@@std@@PAV?$unordered_set@V?$basic_string@_WU?$char_traits@_W@std@@V?$allocator@_W@2@@std@@U?$hash@V?$basic_string@_WU?$char_traits@_W@std@@V?$allocator@_W@2@@std@@@2@U?$equal_to@V?$basic_string@_WU?$char_traits@_W@std@@V?$allocator@_W@2@@std@@@2@V?$allocator@V?$basic_string@_WU?$char_traits@_W@std@@V?$allocator@_W@2@@std@@@2@@5@@Z$7 10027144 f   deps_resolver.obj
 0001:0002614c       __unwindfunclet$?resolve_probe_dirs@deps_resolver_t@@AAE_NW4asset_types@deps_entry_t@@PAV?$basic_string@_WU?$char_traits@_W@std@@V?$allocator@_W@2@@std@@PAV?$unordered_set@V?$basic_string@_WU?$char_traits@_W@std@@V?$allocator@_W@2@@std@@U?$hash@V?$basic_string@_WU?$char_traits@_W@std@@V?$allocator@_W@2@@std@@@2@U?$equal_to@V?$basic_string@_WU?$char_traits@_W@std@@V?$allocator@_W@2@@std@@@2@V?$allocator@V?$basic_string@_WU?$char_traits@_W@std@@V?$allocator@_W@2@@std@@@2@@5@@Z$8 1002714c f   deps_resolver.obj
 0001:00026154       __ehhandler$?resolve_probe_dirs@deps_resolver_t@@AAE_NW4asset_types@deps_entry_t@@PAV?$basic_string@_WU?$char_traits@_W@std@@V?$allocator@_W@2@@std@@PAV?$unordered_set@V?$basic_string@_WU?$char_traits@_W@std@@V?$allocator@_W@2@@std@@U?$hash@V?$basic_string@_WU?$char_traits@_W@std@@V?$allocator@_W@2@@std@@@2@U?$equal_to@V?$basic_string@_WU?$char_traits@_W@std@@V?$allocator@_W@2@@std@@@2@V?$allocator@V?$basic_string@_WU?$char_traits@_W@std@@V?$allocator@_W@2@@std@@@2@@5@@Z 10027154 f   deps_resolver.obj
 0001:00026180       __unwindfunclet$??R<lambda_697c7eb4ac48f527a469b347c0df95d3>@@QBE_NABUdeps_entry_t@@ABV?$basic_string@_WU?$char_traits@_W@std@@V?$allocator@_W@2@@std@@@Z$0 10027180 f   deps_resolver.obj
 0001:00026188       __unwindfunclet$??R<lambda_697c7eb4ac48f527a469b347c0df95d3>@@QBE_NABUdeps_entry_t@@ABV?$basic_string@_WU?$char_traits@_W@std@@V?$allocator@_W@2@@std@@@Z$1 10027188 f   deps_resolver.obj
 0001:00026190       __unwindfunclet$??R<lambda_697c7eb4ac48f527a469b347c0df95d3>@@QBE_NABUdeps_entry_t@@ABV?$basic_string@_WU?$char_traits@_W@std@@V?$allocator@_W@2@@std@@@Z$2 10027190 f   deps_resolver.obj
 0001:00026198       __unwindfunclet$??R<lambda_697c7eb4ac48f527a469b347c0df95d3>@@QBE_NABUdeps_entry_t@@ABV?$basic_string@_WU?$char_traits@_W@std@@V?$allocator@_W@2@@std@@@Z$4 10027198 f   deps_resolver.obj
 0001:000261b1       __unwindfunclet$??R<lambda_697c7eb4ac48f527a469b347c0df95d3>@@QBE_NABUdeps_entry_t@@ABV?$basic_string@_WU?$char_traits@_W@std@@V?$allocator@_W@2@@std@@@Z$3 100271b1 f   deps_resolver.obj
 0001:000261b9       __unwindfunclet$??R<lambda_697c7eb4ac48f527a469b347c0df95d3>@@QBE_NABUdeps_entry_t@@ABV?$basic_string@_WU?$char_traits@_W@std@@V?$allocator@_W@2@@std@@@Z$5 100271b9 f   deps_resolver.obj
 0001:000261d2       __unwindfunclet$??R<lambda_697c7eb4ac48f527a469b347c0df95d3>@@QBE_NABUdeps_entry_t@@ABV?$basic_string@_WU?$char_traits@_W@std@@V?$allocator@_W@2@@std@@@Z$6 100271d2 f   deps_resolver.obj
 0001:000261da       __ehhandler$??R<lambda_697c7eb4ac48f527a469b347c0df95d3>@@QBE_NABUdeps_entry_t@@ABV?$basic_string@_WU?$char_traits@_W@std@@V?$allocator@_W@2@@std@@@Z 100271da f   deps_resolver.obj
 0001:00026200       __ehhandler$??$_Insert@V?$basic_string@_WU?$char_traits@_W@std@@V?$allocator@_W@2@@std@@U_Not_a_node_tag@2@@?$_Hash@V?$_Uset_traits@V?$basic_string@_WU?$char_traits@_W@std@@V?$allocator@_W@2@@std@@V?$_Uhash_compare@V?$basic_string@_WU?$char_traits@_W@std@@V?$allocator@_W@2@@std@@U?$hash@V?$basic_string@_WU?$char_traits@_W@std@@V?$allocator@_W@2@@std@@@2@U?$equal_to@V?$basic_string@_WU?$char_traits@_W@std@@V?$allocator@_W@2@@std@@@2@@2@V?$allocator@V?$basic_string@_WU?$char_traits@_W@std@@V?$allocator@_W@2@@std@@@2@$0A@@std@@@std@@IAE?AU?$pair@V?$_List_const_iterator@V?$_List_val@U?$_List_simple_types@V?$basic_string@_WU?$char_traits@_W@std@@V?$allocator@_W@2@@std@@@std@@@std@@@std@@_N@1@$$QAV?$basic_string@_WU?$char_traits@_W@std@@V?$allocator@_W@2@@1@U_Not_a_node_tag@1@@Z 10027200 f   deps_resolver.obj
 0001:00026220       __ehhandler$??$_Insert@ABV?$basic_string@_WU?$char_traits@_W@std@@V?$allocator@_W@2@@std@@U_Not_a_node_tag@2@@?$_Hash@V?$_Uset_traits@V?$basic_string@_WU?$char_traits@_W@std@@V?$allocator@_W@2@@std@@V?$_Uhash_compare@V?$basic_string@_WU?$char_traits@_W@std@@V?$allocator@_W@2@@std@@U?$hash@V?$basic_string@_WU?$char_traits@_W@std@@V?$allocator@_W@2@@std@@@2@U?$equal_to@V?$basic_string@_WU?$char_traits@_W@std@@V?$allocator@_W@2@@std@@@2@@2@V?$allocator@V?$basic_string@_WU?$char_traits@_W@std@@V?$allocator@_W@2@@std@@@2@$0A@@std@@@std@@IAE?AU?$pair@V?$_List_const_iterator@V?$_List_val@U?$_List_simple_types@V?$basic_string@_WU?$char_traits@_W@std@@V?$allocator@_W@2@@std@@@std@@@std@@@std@@_N@1@ABV?$basic_string@_WU?$char_traits@_W@std@@V?$allocator@_W@2@@1@U_Not_a_node_tag@1@@Z 10027220 f   deps_resolver.obj
 0001:00026240       __ehhandler$??$_Insert@AAU?$pair@$$CBV?$basic_string@_WU?$char_traits@_W@std@@V?$allocator@_W@2@@std@@V12@@std@@V?$_List_unchecked_iterator@V?$_List_val@U?$_List_simple_types@U?$pair@$$CBV?$basic_string@_WU?$char_traits@_W@std@@V?$allocator@_W@2@@std@@V12@@std@@@std@@@std@@@2@@?$_Hash@V?$_Umap_traits@V?$basic_string@_WU?$char_traits@_W@std@@V?$allocator@_W@2@@std@@V12@V?$_Uhash_compare@V?$basic_string@_WU?$char_traits@_W@std@@V?$allocator@_W@2@@std@@U?$hash@V?$basic_string@_WU?$char_traits@_W@std@@V?$allocator@_W@2@@std@@@2@U?$equal_to@V?$basic_string@_WU?$char_traits@_W@std@@V?$allocator@_W@2@@std@@@2@@2@V?$allocator@U?$pair@$$CBV?$basic_string@_WU?$char_traits@_W@std@@V?$allocator@_W@2@@std@@V12@@std@@@2@$0A@@std@@@std@@IAE?AU?$pair@V?$_List_iterator@V?$_List_val@U?$_List_simple_types@U?$pair@$$CBV?$basic_string@_WU?$char_traits@_W@std@@V?$allocator@_W@2@@std@@V12@@std@@@std@@@std@@@std@@_N@1@AAU?$pair@$$CBV?$basic_string@_WU?$char_traits@_W@std@@V?$allocator@_W@2@@std@@V12@@1@V?$_List_unchecked_iterator@V?$_List_val@U?$_List_simple_types@U?$pair@$$CBV?$basic_string@_WU?$char_traits@_W@std@@V?$allocator@_W@2@@std@@V12@@std@@@std@@@std@@@1@@Z 10027240 f   deps_resolver.obj
 0001:00026260       __unwindfunclet$??$_Buynode@AAV?$basic_string@_WU?$char_traits@_W@std@@V?$allocator@_W@2@@std@@AAV12@@?$_List_buy@U?$pair@$$CBV?$basic_string@_WU?$char_traits@_W@std@@V?$allocator@_W@2@@std@@V12@@std@@V?$allocator@U?$pair@$$CBV?$basic_string@_WU?$char_traits@_W@std@@V?$allocator@_W@2@@std@@V12@@std@@@2@@std@@QAEPAU?$_List_node@U?$pair@$$CBV?$basic_string@_WU?$char_traits@_W@std@@V?$allocator@_W@2@@std@@V12@@std@@PAX@1@PAU21@0AAV?$basic_string@_WU?$char_traits@_W@std@@V?$allocator@_W@2@@1@1@Z$2 10027260 f   deps_resolver.obj
 0001:00026268       __ehhandler$??$_Buynode@AAV?$basic_string@_WU?$char_traits@_W@std@@V?$allocator@_W@2@@std@@AAV12@@?$_List_buy@U?$pair@$$CBV?$basic_string@_WU?$char_traits@_W@std@@V?$allocator@_W@2@@std@@V12@@std@@V?$allocator@U?$pair@$$CBV?$basic_string@_WU?$char_traits@_W@std@@V?$allocator@_W@2@@std@@V12@@std@@@2@@std@@QAEPAU?$_List_node@U?$pair@$$CBV?$basic_string@_WU?$char_traits@_W@std@@V?$allocator@_W@2@@std@@V12@@std@@PAX@1@PAU21@0AAV?$basic_string@_WU?$char_traits@_W@std@@V?$allocator@_W@2@@1@1@Z 10027268 f   deps_resolver.obj
 0001:00026290       __unwindfunclet$?_Do_call@?$_Func_impl_no_alloc@V<lambda_4cf1a043bca302a229a9e21dced1c4a6>@@V?$basic_string@_WU?$char_traits@_W@std@@V?$allocator@_W@2@@std@@ABV23@@std@@EAE?AV?$basic_string@_WU?$char_traits@_W@std@@V?$allocator@_W@2@@2@ABV32@@Z$4 10027290 f   deps_resolver.obj
 0001:00026298       __ehhandler$?_Do_call@?$_Func_impl_no_alloc@V<lambda_4cf1a043bca302a229a9e21dced1c4a6>@@V?$basic_string@_WU?$char_traits@_W@std@@V?$allocator@_W@2@@std@@ABV23@@std@@EAE?AV?$basic_string@_WU?$char_traits@_W@std@@V?$allocator@_W@2@@2@ABV32@@Z 10027298 f   deps_resolver.obj
 0001:000262c0       __ehhandler$??$_Insert@ABV?$basic_string@_WU?$char_traits@_W@std@@V?$allocator@_W@2@@std@@V?$_List_unchecked_const_iterator@V?$_List_val@U?$_List_simple_types@V?$basic_string@_WU?$char_traits@_W@std@@V?$allocator@_W@2@@std@@@std@@@std@@U_Iterator_base0@2@@2@@?$_Hash@V?$_Uset_traits@V?$basic_string@_WU?$char_traits@_W@std@@V?$allocator@_W@2@@std@@V?$_Uhash_compare@V?$basic_string@_WU?$char_traits@_W@std@@V?$allocator@_W@2@@std@@U?$hash@V?$basic_string@_WU?$char_traits@_W@std@@V?$allocator@_W@2@@std@@@2@U?$equal_to@V?$basic_string@_WU?$char_traits@_W@std@@V?$allocator@_W@2@@std@@@2@@2@V?$allocator@V?$basic_string@_WU?$char_traits@_W@std@@V?$allocator@_W@2@@std@@@2@$0A@@std@@@std@@IAE?AU?$pair@V?$_List_const_iterator@V?$_List_val@U?$_List_simple_types@V?$basic_string@_WU?$char_traits@_W@std@@V?$allocator@_W@2@@std@@@std@@@std@@@std@@_N@1@ABV?$basic_string@_WU?$char_traits@_W@std@@V?$allocator@_W@2@@1@V?$_List_unchecked_const_iterator@V?$_List_val@U?$_List_simple_types@V?$basic_string@_WU?$char_traits@_W@std@@V?$allocator@_W@2@@std@@@std@@@std@@U_Iterator_base0@2@@1@@Z 100272c0 f   deps_resolver.obj
 0001:000262e0       __ehhandler$??$_Buynode@ABUpiecewise_construct_t@std@@V?$tuple@ABV?$basic_string@_WU?$char_traits@_W@std@@V?$allocator@_W@2@@std@@@2@V?$tuple@$$V@2@@?$_List_buy@U?$pair@$$CBV?$basic_string@_WU?$char_traits@_W@std@@V?$allocator@_W@2@@std@@V12@@std@@V?$allocator@U?$pair@$$CBV?$basic_string@_WU?$char_traits@_W@std@@V?$allocator@_W@2@@std@@V12@@std@@@2@@std@@QAEPAU?$_List_node@U?$pair@$$CBV?$basic_string@_WU?$char_traits@_W@std@@V?$allocator@_W@2@@std@@V12@@std@@PAX@1@PAU21@0ABUpiecewise_construct_t@1@$$QAV?$tuple@ABV?$basic_string@_WU?$char_traits@_W@std@@V?$allocator@_W@2@@std@@@1@$$QAV?$tuple@$$V@1@@Z 100272e0 f   deps_resolver.obj
 0001:00026300       __ehhandler$??$_Buynode@ABV?$basic_string@_WU?$char_traits@_W@std@@V?$allocator@_W@2@@std@@@?$_List_buy@V?$basic_string@_WU?$char_traits@_W@std@@V?$allocator@_W@2@@std@@V?$allocator@V?$basic_string@_WU?$char_traits@_W@std@@V?$allocator@_W@2@@std@@@2@@std@@QAEPAU?$_List_node@V?$basic_string@_WU?$char_traits@_W@std@@V?$allocator@_W@2@@std@@PAX@1@PAU21@0ABV?$basic_string@_WU?$char_traits@_W@std@@V?$allocator@_W@2@@1@@Z 10027300 f   deps_resolver.obj
 0001:00026320       __unwindfunclet$??0arguments_t@@QAE@XZ$0 10027320 f   args.obj
 0001:00026328       __unwindfunclet$??0arguments_t@@QAE@XZ$1 10027328 f   args.obj
 0001:00026333       __unwindfunclet$??0arguments_t@@QAE@XZ$2 10027333 f   args.obj
 0001:0002633e       __unwindfunclet$??0arguments_t@@QAE@XZ$3 1002733e f   args.obj
 0001:00026349       __unwindfunclet$??0arguments_t@@QAE@XZ$4 10027349 f   args.obj
 0001:00026354       __unwindfunclet$??0arguments_t@@QAE@XZ$5 10027354 f   args.obj
 0001:0002635f       __ehhandler$??0arguments_t@@QAE@XZ 1002735f f   args.obj
 0001:00026380       __unwindfunclet$?bind@coreclr@@YA_NABV?$basic_string@_WU?$char_traits@_W@std@@V?$allocator@_W@2@@std@@@Z$0 10027380 f   coreclr.obj
 0001:00026388       __ehhandler$?bind@coreclr@@YA_NABV?$basic_string@_WU?$char_traits@_W@std@@V?$allocator@_W@2@@std@@@Z 10027388 f   coreclr.obj
 0001:000263b0       __unwindfunclet$?get_runtime_config_paths_from_app@@YAXABV?$basic_string@_WU?$char_traits@_W@std@@V?$allocator@_W@2@@std@@PAV12@1@Z$0 100273b0 f   libhost.obj
 0001:000263bb       __unwindfunclet$?get_runtime_config_paths_from_app@@YAXABV?$basic_string@_WU?$char_traits@_W@std@@V?$allocator@_W@2@@std@@PAV12@1@Z$1 100273bb f   libhost.obj
 0001:000263c3       __unwindfunclet$?get_runtime_config_paths_from_app@@YAXABV?$basic_string@_WU?$char_traits@_W@std@@V?$allocator@_W@2@@std@@PAV12@1@Z$2 100273c3 f   libhost.obj
 0001:000263cb       __unwindfunclet$?get_runtime_config_paths_from_app@@YAXABV?$basic_string@_WU?$char_traits@_W@std@@V?$allocator@_W@2@@std@@PAV12@1@Z$3 100273cb f   libhost.obj
 0001:000263d3       __unwindfunclet$?get_runtime_config_paths_from_app@@YAXABV?$basic_string@_WU?$char_traits@_W@std@@V?$allocator@_W@2@@std@@PAV12@1@Z$4 100273d3 f   libhost.obj
 0001:000263db       __ehhandler$?get_runtime_config_paths_from_app@@YAXABV?$basic_string@_WU?$char_traits@_W@std@@V?$allocator@_W@2@@std@@PAV12@1@Z 100273db f   libhost.obj
 0001:00026410       __unwindfunclet$?try_prerelease_roll_forward_in_dir@@YAXABV?$basic_string@_WU?$char_traits@_W@std@@V?$allocator@_W@2@@std@@ABUfx_ver_t@@PAV12@@Z$0 10027410 f   libhost.obj
 0001:00026410       __unwindfunclet$?try_patch_roll_forward_in_dir@@YAXABV?$basic_string@_WU?$char_traits@_W@std@@V?$allocator@_W@2@@std@@ABUfx_ver_t@@PAV12@@Z$0 10027410 f   libhost.obj
 0001:00026418       __unwindfunclet$?try_prerelease_roll_forward_in_dir@@YAXABV?$basic_string@_WU?$char_traits@_W@std@@V?$allocator@_W@2@@std@@ABUfx_ver_t@@PAV12@@Z$2 10027418 f   libhost.obj
 0001:00026418       __unwindfunclet$?try_patch_roll_forward_in_dir@@YAXABV?$basic_string@_WU?$char_traits@_W@std@@V?$allocator@_W@2@@std@@ABUfx_ver_t@@PAV12@@Z$2 10027418 f   libhost.obj
 0001:00026420       __unwindfunclet$?try_patch_roll_forward_in_dir@@YAXABV?$basic_string@_WU?$char_traits@_W@std@@V?$allocator@_W@2@@std@@ABUfx_ver_t@@PAV12@@Z$3 10027420 f   libhost.obj
 0001:00026420       __unwindfunclet$?try_prerelease_roll_forward_in_dir@@YAXABV?$basic_string@_WU?$char_traits@_W@std@@V?$allocator@_W@2@@std@@ABUfx_ver_t@@PAV12@@Z$3 10027420 f   libhost.obj
 0001:00026428       __unwindfunclet$?try_patch_roll_forward_in_dir@@YAXABV?$basic_string@_WU?$char_traits@_W@std@@V?$allocator@_W@2@@std@@ABUfx_ver_t@@PAV12@@Z$12 10027428 f   libhost.obj
 0001:00026428       __unwindfunclet$?try_prerelease_roll_forward_in_dir@@YAXABV?$basic_string@_WU?$char_traits@_W@std@@V?$allocator@_W@2@@std@@ABUfx_ver_t@@PAV12@@Z$12 10027428 f   libhost.obj
 0001:00026433       __unwindfunclet$?try_patch_roll_forward_in_dir@@YAXABV?$basic_string@_WU?$char_traits@_W@std@@V?$allocator@_W@2@@std@@ABUfx_ver_t@@PAV12@@Z$4 10027433 f   libhost.obj
 0001:00026433       __unwindfunclet$?try_prerelease_roll_forward_in_dir@@YAXABV?$basic_string@_WU?$char_traits@_W@std@@V?$allocator@_W@2@@std@@ABUfx_ver_t@@PAV12@@Z$4 10027433 f   libhost.obj
 0001:0002643e       __unwindfunclet$?try_patch_roll_forward_in_dir@@YAXABV?$basic_string@_WU?$char_traits@_W@std@@V?$allocator@_W@2@@std@@ABUfx_ver_t@@PAV12@@Z$5 1002743e f   libhost.obj
 0001:0002643e       __unwindfunclet$?try_prerelease_roll_forward_in_dir@@YAXABV?$basic_string@_WU?$char_traits@_W@std@@V?$allocator@_W@2@@std@@ABUfx_ver_t@@PAV12@@Z$5 1002743e f   libhost.obj
 0001:00026449       __ehhandler$?try_patch_roll_forward_in_dir@@YAXABV?$basic_string@_WU?$char_traits@_W@std@@V?$allocator@_W@2@@std@@ABUfx_ver_t@@PAV12@@Z 10027449 f   libhost.obj
 0001:00026449       __ehhandler$?try_prerelease_roll_forward_in_dir@@YAXABV?$basic_string@_WU?$char_traits@_W@std@@V?$allocator@_W@2@@std@@ABUfx_ver_t@@PAV12@@Z 10027449 f   libhost.obj
 0001:00026480       __unwindfunclet$??0runtime_config_t@@QAE@ABV?$basic_string@_WU?$char_traits@_W@std@@V?$allocator@_W@2@@std@@0@Z$0 10027480 f   runtime_config.obj
 0001:00026488       __unwindfunclet$??0runtime_config_t@@QAE@ABV?$basic_string@_WU?$char_traits@_W@std@@V?$allocator@_W@2@@std@@0@Z$1 10027488 f   runtime_config.obj
 0001:00026493       __unwindfunclet$??0runtime_config_t@@QAE@ABV?$basic_string@_WU?$char_traits@_W@std@@V?$allocator@_W@2@@std@@0@Z$2 10027493 f   runtime_config.obj
 0001:0002649e       __unwindfunclet$??0runtime_config_t@@QAE@ABV?$basic_string@_WU?$char_traits@_W@std@@V?$allocator@_W@2@@std@@0@Z$3 1002749e f   runtime_config.obj
 0001:000264a9       __unwindfunclet$??0runtime_config_t@@QAE@ABV?$basic_string@_WU?$char_traits@_W@std@@V?$allocator@_W@2@@std@@0@Z$4 100274a9 f   runtime_config.obj
 0001:000264b4       __unwindfunclet$??0runtime_config_t@@QAE@ABV?$basic_string@_WU?$char_traits@_W@std@@V?$allocator@_W@2@@std@@0@Z$5 100274b4 f   runtime_config.obj
 0001:000264bf       __unwindfunclet$??0runtime_config_t@@QAE@ABV?$basic_string@_WU?$char_traits@_W@std@@V?$allocator@_W@2@@std@@0@Z$6 100274bf f   runtime_config.obj
 0001:000264ca       __unwindfunclet$??0runtime_config_t@@QAE@ABV?$basic_string@_WU?$char_traits@_W@std@@V?$allocator@_W@2@@std@@0@Z$7 100274ca f   runtime_config.obj
 0001:000264d8       __ehhandler$??0runtime_config_t@@QAE@ABV?$basic_string@_WU?$char_traits@_W@std@@V?$allocator@_W@2@@std@@0@Z 100274d8 f   runtime_config.obj
 0001:00026500       __unwindfunclet$?parse_opts@runtime_config_t@@QAE_NABVvalue@json@web@@@Z$1 10027500 f   runtime_config.obj
 0001:0002651f       __unwindfunclet$?parse_opts@runtime_config_t@@QAE_NABVvalue@json@web@@@Z$2 1002751f f   runtime_config.obj
 0001:0002653e       __unwindfunclet$?parse_opts@runtime_config_t@@QAE_NABVvalue@json@web@@@Z$7 1002753e f   runtime_config.obj
