 nodejavabridge_bindings

 Timestamp is 5c522dcc (Wed Jan 30 16:05:48 2019)

 Preferred load address is 10000000

 Start         Length     Name                   Class
 0001:00000000 000002c0H .text$di                CODE
 0001:000002c0 00034dc7H .text$mn                CODE
 0001:00035087 00000099H .text$x                 CODE
 0001:00035120 00000378H .text$yd                CODE
 0002:00000000 000002c0H .idata$5                DATA
 0002:000002c0 00000004H .00cfg                  DATA
 0002:000002c4 00000004H .CRT$XCA                DATA
 0002:000002c8 0000000cH .CRT$XCC                DATA
 0002:000002d4 00000008H .CRT$XCL                DATA
 0002:000002dc 00000030H .CRT$XCU                DATA
 0002:0000030c 00000004H .CRT$XCZ                DATA
 0002:00000310 00000004H .CRT$XIA                DATA
 0002:00000314 00000014H .CRT$XIC                DATA
 0002:00000328 00000004H .CRT$XIZ                DATA
 0002:0000032c 00000004H .CRT$XPA                DATA
 0002:00000330 00000008H .CRT$XPX                DATA
 0002:00000338 00000004H .CRT$XPXA               DATA
 0002:0000033c 00000004H .CRT$XPZ                DATA
 0002:00000340 00000004H .CRT$XTA                DATA
 0002:00000344 0000000cH .CRT$XTZ                DATA
 0002:00000348 00000000H .gfids$y                DATA
 0002:00000350 0000f340H .rdata                  DATA
 0002:0000f690 00000570H .rdata$r                DATA
 0002:0000fc00 00000028H .rdata$sxdata           DATA
 0002:0000fc28 00000384H .rdata$zzzdbg           DATA
 0002:0000ffac 00000004H .rtc$IAA                DATA
 0002:0000ffb0 00000004H .rtc$IZZ                DATA
 0002:0000ffb4 00000004H .rtc$TAA                DATA
 0002:0000ffb8 00000008H .rtc$TZZ                DATA
 0002:0000ffc0 000007c0H .xdata$x                DATA
 0002:00010780 000000dcH .edata                  DATA
 0002:0001085c 00000050H .idata$2                DATA
 0002:000108ac 00000014H .idata$3                DATA
 0002:000108c0 000002c0H .idata$4                DATA
 0002:00010b80 0000202eH .idata$6                DATA
 0003:00000000 000008c0H .data                   DATA
 0003:000008c0 00000278H .data$r                 DATA
 0003:00000b38 00000e9cH .bss                    DATA
 0004:00000000 00000060H .rsrc$01                DATA
 0004:00000060 00000180H .rsrc$02                DATA

  Address         Publics by Value              Rva+Base       Lib:Object

 0000:00000000       ___guard_iat_count         00000000     <absolute>
 0000:00000000       ___guard_fids_count        00000000     <absolute>
 0000:00000000       ___guard_longjmp_table     00000000     <absolute>
 0000:00000000       ___hybrid_code_map_count   00000000     <absolute>
 0000:00000000       ___dynamic_value_reloc_table 00000000     <absolute>
 0000:00000000       ___guard_longjmp_count     00000000     <absolute>
 0000:00000000       ___volatile_metadata       00000000     <absolute>
 0000:00000000       ___guard_fids_table        00000000     <absolute>
 0000:00000000       ___hybrid_auxiliary_iat    00000000     <absolute>
 0000:00000000       ___guard_iat_table         00000000     <absolute>
 0000:00000000       __except_list              00000000     <absolute>
 0000:00000000       ___enclave_config          00000000     <absolute>
 0000:00000000       ___hybrid_code_map         00000000     <absolute>
 0000:0000000a       ___safe_se_handler_count   0000000a     <absolute>
 0000:00000100       ___guard_flags             00000100     <absolute>
 0000:00000000       ___ImageBase               10000000     <linker-defined>
 0001:000002c0       ___local_stdio_printf_options 100012c0 f i java.obj
 0001:000002d0       _fprintf                   100012d0 f i java.obj
 0001:00000300       _sprintf_s                 10001300 f i java.obj
 0001:00000340       ?what@exception@stdext@@UBEPBDXZ 10001340 f i java.obj
 0001:00000350       ?_Raise@exception@stdext@@QBEXXZ 10001350 f i java.obj
 0001:00000380       ?_Unlock@?$basic_streambuf@DU?$char_traits@D@std@@@std@@UAEXXZ 10001380 f i java.obj
 0001:00000380       @_guard_check_icall_nop@4  10001380 f i LIBCMT:guard_support.obj
 0001:00000380       ?EIO_CallJs@@YAXPAUuv_work_s@@@Z 10001380 f i java.obj
 0001:00000380       ?_Lock@?$basic_streambuf@DU?$char_traits@D@std@@@std@@UAEXXZ 10001380 f i java.obj
 0001:00000380       ?_Doraise@exception@stdext@@MBEXXZ 10001380 f i java.obj
 0001:00000390       ??_E_System_error@std@@UAEPAXI@Z 10001390 f i * CIL library *:* CIL module *
 0001:00000390       ??_Gfailure@ios_base@std@@UAEPAXI@Z 10001390 f i java.obj
 0001:00000390       ??_Efailure@ios_base@std@@UAEPAXI@Z 10001390 f i * CIL library *:* CIL module *
 0001:00000390       ??_Eexception@stdext@@UAEPAXI@Z 10001390 f i * CIL library *:* CIL module *
 0001:00000390       ??_Eruntime_error@std@@UAEPAXI@Z 10001390 f i * CIL library *:* CIL module *
 0001:00000390       ??_G_System_error@std@@UAEPAXI@Z 10001390 f i java.obj
 0001:00000390       ??_Gexception@stdext@@UAEPAXI@Z 10001390 f i java.obj
 0001:00000390       ??_Gruntime_error@std@@UAEPAXI@Z 10001390 f i java.obj
 0001:000003b0       ??0runtime_error@std@@QAE@PBD@Z 100013b0 f i java.obj
 0001:000003d0       ??0_Locinfo@std@@QAE@PBD@Z 100013d0 f i java.obj
 0001:00000450       ??1_Locinfo@std@@QAE@XZ    10001450 f i java.obj
 0001:000004f0       ??_G?$num_put@DV?$ostreambuf_iterator@DU?$char_traits@D@std@@@std@@@std@@MAEPAXI@Z 100014f0 f i java.obj
 0001:000004f0       ??_E?$num_put@DV?$ostreambuf_iterator@DU?$char_traits@D@std@@@std@@@std@@MAEPAXI@Z 100014f0 f i * CIL library *:* CIL module *
 0001:000004f0       ??_G_Facet_base@std@@UAEPAXI@Z 100014f0 f i java.obj
 0001:000004f0       ??_E_Facet_base@std@@UAEPAXI@Z 100014f0 f i * CIL library *:* CIL module *
 0001:00000510       ?_Incref@facet@locale@std@@UAEXXZ 10001510 f i java.obj
 0001:00000520       ?_Decref@facet@locale@std@@UAEPAV_Facet_base@3@XZ 10001520 f i java.obj
 0001:00000540       ??1locale@std@@QAE@XZ      10001540 f i java.obj
 0001:00000560       ?do_tolower@?$ctype@D@std@@MBEDD@Z 10001560 f i java.obj
 0001:00000580       ?do_tolower@?$ctype@D@std@@MBEPBDPADPBD@Z 10001580 f i java.obj
 0001:000005c0       ?do_toupper@?$ctype@D@std@@MBEDD@Z 100015c0 f i java.obj
 0001:000005e0       ?do_toupper@?$ctype@D@std@@MBEPBDPADPBD@Z 100015e0 f i java.obj
 0001:00000620       ?do_widen@?$ctype@D@std@@MBEDD@Z 10001620 f i java.obj
 0001:00000630       ?do_widen@?$ctype@D@std@@MBEPBDPBD0PAD@Z 10001630 f i java.obj
 0001:00000650       ?do_narrow@?$ctype@D@std@@MBEDDD@Z 10001650 f i java.obj
 0001:00000660       ?do_narrow@?$ctype@D@std@@MBEPBDPBD0DPAD@Z 10001660 f i java.obj
 0001:00000680       ??_E?$ctype@D@std@@MAEPAXI@Z 10001680 f i * CIL library *:* CIL module *
 0001:00000680       ??_G?$ctype@D@std@@MAEPAXI@Z 10001680 f i java.obj
 0001:000006d0       ?default_error_condition@error_category@std@@UBE?AVerror_condition@2@H@Z 100016d0 f i java.obj
 0001:000006e0       ?equivalent@error_category@std@@UBE_NHABVerror_condition@2@@Z 100016e0 f i java.obj
 0001:00000720       ?equivalent@error_category@std@@UBE_NABVerror_code@2@H@Z 10001720 f i java.obj
 0001:00000750       ?make_error_code@std@@YA?AVerror_code@1@W4io_errc@1@@Z 10001750 f i java.obj
 0001:00000780       ??0_System_error@std@@IAE@Verror_code@1@ABV?$basic_string@DU?$char_traits@D@std@@V?$allocator@D@2@@1@@Z 10001780 f i java.obj
 0001:00000960       ?name@_Iostream_error_category@std@@UBEPBDXZ 10001960 f i java.obj
 0001:00000970       ?message@_Iostream_error_category@std@@UBE?AV?$basic_string@DU?$char_traits@D@std@@V?$allocator@D@2@@2@H@Z 10001970 f i java.obj
 0001:000009e0       ??_G_Iostream_error_category@std@@UAEPAXI@Z 100019e0 f i java.obj
 0001:000009e0       ??_E_Iostream_error_category@std@@UAEPAXI@Z 100019e0 f i * CIL library *:* CIL module *
 0001:00000a00       ??0failure@ios_base@std@@QAE@PBDABVerror_code@2@@Z 10001a00 f i java.obj
 0001:00000ac0       ?_Doraise@failure@ios_base@std@@MBEXXZ 10001ac0 f i java.obj
 0001:00000ad0       ??_Gios_base@std@@UAEPAXI@Z 10001ad0 f i java.obj
 0001:00000ad0       ??_E?$basic_ios@DU?$char_traits@D@std@@@std@@UAEPAXI@Z 10001ad0 f i * CIL library *:* CIL module *
 0001:00000ad0       ??_G?$basic_ios@DU?$char_traits@D@std@@@std@@UAEPAXI@Z 10001ad0 f i java.obj
 0001:00000ad0       ??_Eios_base@std@@UAEPAXI@Z 10001ad0 f i * CIL library *:* CIL module *
 0001:00000b00       ?NewObject@JNIEnv_@@QAAPAV_jobject@@PAV_jclass@@PAU_jmethodID@@ZZ 10001b00 f i java.obj
 0001:00000b20       ?CallObjectMethod@JNIEnv_@@QAAPAV_jobject@@PAV2@PAU_jmethodID@@ZZ 10001b20 f i java.obj
 0001:00000b40       ?CallBooleanMethod@JNIEnv_@@QAAEPAV_jobject@@PAU_jmethodID@@ZZ 10001b40 f i java.obj
 0001:00000b60       ?CallByteMethod@JNIEnv_@@QAACPAV_jobject@@PAU_jmethodID@@ZZ 10001b60 f i java.obj
 0001:00000b80       ?CallCharMethod@JNIEnv_@@QAAGPAV_jobject@@PAU_jmethodID@@ZZ 10001b80 f i java.obj
 0001:00000ba0       ?CallShortMethod@JNIEnv_@@QAAFPAV_jobject@@PAU_jmethodID@@ZZ 10001ba0 f i java.obj
 0001:00000bc0       ?CallIntMethod@JNIEnv_@@QAAJPAV_jobject@@PAU_jmethodID@@ZZ 10001bc0 f i java.obj
 0001:00000be0       ?CallFloatMethod@JNIEnv_@@QAAMPAV_jobject@@PAU_jmethodID@@ZZ 10001be0 f i java.obj
 0001:00000c00       ?CallDoubleMethod@JNIEnv_@@QAANPAV_jobject@@PAU_jmethodID@@ZZ 10001c00 f i java.obj
 0001:00000c20       ?CallStaticObjectMethod@JNIEnv_@@QAAPAV_jobject@@PAV_jclass@@PAU_jmethodID@@ZZ 10001c20 f i java.obj
 0001:00000c40       ?SetObjectArrayElement@JNIEnv_@@QAEXPAV_jobjectArray@@JPAV_jobject@@@Z 10001c40 f i java.obj
 0001:00000f00       ?New@?$Factory@VFunctionTemplate@v8@@@imp@Nan@@SA?AV?$Local@VFunctionTemplate@v8@@@v8@@P6AXABV?$FunctionCallbackInfo@VValue@v8@@@3@@ZV?$Local@VValue@v8@@@5@V?$Local@VSignature@v8@@@5@@Z 10001f00 f i java.obj
 0001:00001060       ?ThrowError@Nan@@YAXPBD@Z  10002060 f i java.obj
 0001:000010e0       ?TypeError@Nan@@YA?AV?$Local@VValue@v8@@@v8@@PBD@Z 100020e0 f i java.obj
 0001:00001160       ?ThrowError@Nan@@YAXV?$Local@VValue@v8@@@v8@@@Z 10002160 f i java.obj
 0001:00001180       ?SetPrototypeMethod@Nan@@YAXV?$Local@VFunctionTemplate@v8@@@v8@@PBDP6AXABV?$FunctionCallbackInfo@VValue@v8@@@1@@Z@Z 10002180 f i java.obj
 0001:00001230       ?SetAccessor@Nan@@YA_NV?$Local@VObject@v8@@@v8@@V?$Local@VString@v8@@@3@P6AX1ABV?$PropertyCallbackInfo@VValue@v8@@@1@@ZP6AX1V?$Local@VValue@v8@@@3@ABV?$PropertyCallbackInfo@X@1@@Z4W4AccessControl@3@W4PropertyAttribute@3@@Z 10002230 f i java.obj
 0001:00001390       ?Wrap@ObjectWrap@Nan@@IAEXV?$Local@VObject@v8@@@v8@@@Z 10002390 f i java.obj
 0001:00001440       ?Ref@ObjectWrap@Nan@@MAEXXZ 10002440 f i java.obj
 0001:00001440       ?Ref@JavaObject@@UAEXXZ    10002440 f i javaObject.obj
 0001:00001470       ?Unref@JavaObject@@UAEXXZ  10002470 f i javaObject.obj
 0001:00001470       ?Unref@ObjectWrap@Nan@@MAEXXZ 10002470 f i java.obj
 0001:00001500       ?WeakCallback@ObjectWrap@Nan@@CAXABV?$WeakCallbackInfo@VObjectWrap@Nan@@@v8@@@Z 10002500 f i java.obj
 0001:00001570       ??_GObjectWrap@Nan@@UAEPAXI@Z 10002570 f i java.obj
 0001:00001570       ??_EObjectWrap@Nan@@UAEPAXI@Z 10002570 f i * CIL library *:* CIL module *
 0001:000015e0       ?Init@Java@@SAXV?$Local@VObject@v8@@@v8@@@Z 100025e0 f   java.obj
 0001:00001880       ?New@Java@@CAXABV?$FunctionCallbackInfo@VValue@v8@@@Nan@@@Z 10002880 f   java.obj
 0001:00001b50       ??_EJava@@EAEPAXI@Z        10002b50 f i * CIL library *:* CIL module *
 0001:00001b50       ??_GJava@@EAEPAXI@Z        10002b50 f i java.obj
 0001:00001b70       ??1Java@@EAE@XZ            10002b70 f   java.obj
 0001:00001d10       ?configureAsync@Java@@AAEXAAV?$Local@VValue@v8@@@v8@@@Z 10002d10 f   java.obj
 0001:000020e0       ?createJVM@Java@@AAE?AV?$Local@VValue@v8@@@v8@@PAPAUJavaVM_@@PAPAUJNIEnv_@@@Z 100030e0 f   java.obj
 0001:00002b00       ??_D?$basic_ostringstream@DU?$char_traits@D@std@@V?$allocator@D@2@@std@@QAEXXZ 10003b00 f i java.obj
 0001:00002b60       ?AccessorProhibitsOverwritingGetter@Java@@CAXV?$Local@VString@v8@@@v8@@ABV?$PropertyCallbackInfo@VValue@v8@@@Nan@@@Z 10003b60 f   java.obj
 0001:00002f00       ?AccessorProhibitsOverwritingSetter@Java@@CAXV?$Local@VString@v8@@@v8@@V?$Local@VValue@v8@@@3@ABV?$PropertyCallbackInfo@X@Nan@@@Z 10003f00 f   java.obj
 0001:000030a0       ?getClassLoader@Java@@CAXABV?$FunctionCallbackInfo@VValue@v8@@@Nan@@@Z 100040a0 f   java.obj
 0001:00003210       ?newInstance@Java@@CAXABV?$FunctionCallbackInfo@VValue@v8@@@Nan@@@Z 10004210 f   java.obj
 0001:00003b50       ?newInstanceSync@Java@@CAXABV?$FunctionCallbackInfo@VValue@v8@@@Nan@@@Z 10004b50 f   java.obj
 0001:00004280       ?newProxy@Java@@CAXABV?$FunctionCallbackInfo@VValue@v8@@@Nan@@@Z 10005280 f   java.obj
 0001:000055c0       ??1DynamicProxyData@@QAE@XZ 100065c0 f i java.obj
 0001:000056e0       ?callStaticMethod@Java@@CAXABV?$FunctionCallbackInfo@VValue@v8@@@Nan@@@Z 100066e0 f   java.obj
 0001:00006220       ?callStaticMethodSync@Java@@CAXABV?$FunctionCallbackInfo@VValue@v8@@@Nan@@@Z 10007220 f   java.obj
 0001:00006c70       ?callMethodSync@Java@@CAXABV?$FunctionCallbackInfo@VValue@v8@@@Nan@@@Z 10007c70 f   java.obj
 0001:00007340       ?callMethod@Java@@CAXABV?$FunctionCallbackInfo@VValue@v8@@@Nan@@@Z 10008340 f   java.obj
 0001:00007c30       ?findClassSync@Java@@CAXABV?$FunctionCallbackInfo@VValue@v8@@@Nan@@@Z 10008c30 f   java.obj
 0001:00008150       ?newArray@Java@@CAXABV?$FunctionCallbackInfo@VValue@v8@@@Nan@@@Z 10009150 f   java.obj
 0001:00009240       ?newByte@Java@@CAXABV?$FunctionCallbackInfo@VValue@v8@@@Nan@@@Z 1000a240 f   java.obj
 0001:00009460       ?newShort@Java@@CAXABV?$FunctionCallbackInfo@VValue@v8@@@Nan@@@Z 1000a460 f   java.obj
 0001:00009680       ?newLong@Java@@CAXABV?$FunctionCallbackInfo@VValue@v8@@@Nan@@@Z 1000a680 f   java.obj
 0001:000098a0       ?newChar@Java@@CAXABV?$FunctionCallbackInfo@VValue@v8@@@Nan@@@Z 1000a8a0 f   java.obj
 0001:00009bc0       ?newFloat@Java@@CAXABV?$FunctionCallbackInfo@VValue@v8@@@Nan@@@Z 1000abc0 f   java.obj
 0001:00009df0       ?newDouble@Java@@CAXABV?$FunctionCallbackInfo@VValue@v8@@@Nan@@@Z 1000adf0 f   java.obj
 0001:0000a010       ?getStaticFieldValue@Java@@CAXABV?$FunctionCallbackInfo@VValue@v8@@@Nan@@@Z 1000b010 f   java.obj
 0001:0000ac80       ?setStaticFieldValue@Java@@CAXABV?$FunctionCallbackInfo@VValue@v8@@@Nan@@@Z 1000bc80 f   java.obj
 0001:0000b790       ?instanceOf@Java@@CAXABV?$FunctionCallbackInfo@VValue@v8@@@Nan@@@Z 1000c790 f   java.obj
 0001:0000bdc0       ?EIO_AfterCallJs@@YAXPAUuv_work_s@@@Z 1000cdc0 f   java.obj
 0001:0000c5c0       ?throwNewThrowable@@YAXPAUJNIEnv_@@PBDV?$basic_string@DU?$char_traits@D@std@@V?$allocator@D@2@@std@@@Z 1000d5c0 f   java.obj
 0001:0000c640       _Java_node_NodeDynamicProxyClass_callJs@24 1000d640 f   java.obj
 0001:0000c8a0       _Java_node_NodeDynamicProxyClass_unref@16 1000d8a0 f   java.obj
 0001:0000c8b0       ??A?$FunctionCallbackInfo@VValue@v8@@@Nan@@QBE?AV?$Local@VValue@v8@@@v8@@H@Z 1000d8b0 f i java.obj
 0001:0000c8f0       ?resize@?$basic_string@DU?$char_traits@D@std@@V?$allocator@D@2@@std@@QAEXID@Z 1000d8f0 f i java.obj
 0001:0000c960       ?append@?$basic_string@DU?$char_traits@D@std@@V?$allocator@D@2@@std@@QAEAAV12@QBD@Z 1000d960 f i java.obj
 0001:0000c9d0       ??1?$basic_string@DU?$char_traits@D@std@@V?$allocator@D@2@@std@@QAE@XZ 1000d9d0 f i java.obj
 0001:0000ca20       ??4?$basic_string@DU?$char_traits@D@std@@V?$allocator@D@2@@std@@QAEAAV01@$$QAV01@@Z 1000da20 f i java.obj
 0001:0000caa0       ??0?$basic_string@DU?$char_traits@D@std@@V?$allocator@D@2@@std@@QAE@ID@Z 1000daa0 f i java.obj
 0001:0000cbe0       ??0?$basic_string@DU?$char_traits@D@std@@V?$allocator@D@2@@std@@QAE@QBD@Z 1000dbe0 f i java.obj
 0001:0000cc20       ??0?$basic_string@DU?$char_traits@D@std@@V?$allocator@D@2@@std@@QAE@ABV01@@Z 1000dc20 f i java.obj
 0001:0000cce0       ?str@?$basic_ostringstream@DU?$char_traits@D@std@@V?$allocator@D@2@@std@@QBE?AV?$basic_string@DU?$char_traits@D@std@@V?$allocator@D@2@@2@XZ 1000dce0 f i java.obj
 0001:0000cd60       ??0?$basic_ostringstream@DU?$char_traits@D@std@@V?$allocator@D@2@@std@@QAE@H@Z 1000dd60 f i java.obj
 0001:0000cf60       ?seekpos@?$basic_stringbuf@DU?$char_traits@D@std@@V?$allocator@D@2@@std@@MAE?AV?$fpos@U_Mbstatet@@@2@V32@H@Z 1000df60 f i java.obj
 0001:0000d060       ?seekoff@?$basic_stringbuf@DU?$char_traits@D@std@@V?$allocator@D@2@@std@@MAE?AV?$fpos@U_Mbstatet@@@2@_JHH@Z 1000e060 f i java.obj
 0001:0000d1d0       ?underflow@?$basic_stringbuf@DU?$char_traits@D@std@@V?$allocator@D@2@@std@@MAEHXZ 1000e1d0 f i java.obj
 0001:0000d230       ?pbackfail@?$basic_stringbuf@DU?$char_traits@D@std@@V?$allocator@D@2@@std@@MAEHH@Z 1000e230 f i java.obj
 0001:0000d280       ?overflow@?$basic_stringbuf@DU?$char_traits@D@std@@V?$allocator@D@2@@std@@MAEHH@Z 1000e280 f i java.obj
 0001:0000d430       ??1?$basic_stringbuf@DU?$char_traits@D@std@@V?$allocator@D@2@@std@@UAE@XZ 1000e430 f i java.obj
 0001:0000d500       ??6?$basic_ostream@DU?$char_traits@D@std@@@std@@QAEAAV01@H@Z 1000e500 f i java.obj
 0001:0000d710       ?imbue@?$basic_streambuf@DU?$char_traits@D@std@@@std@@MAEXABVlocale@2@@Z 1000e710 f i java.obj
 0001:0000d720       ?sync@?$basic_streambuf@DU?$char_traits@D@std@@@std@@MAEHXZ 1000e720 f i java.obj
 0001:0000d730       ?setbuf@?$basic_streambuf@DU?$char_traits@D@std@@@std@@MAEPAV12@PAD_J@Z 1000e730 f i java.obj
 0001:0000d740       ?seekpos@?$basic_streambuf@DU?$char_traits@D@std@@@std@@MAE?AV?$fpos@U_Mbstatet@@@2@V32@H@Z 1000e740 f i java.obj
 0001:0000d770       ?seekoff@?$basic_streambuf@DU?$char_traits@D@std@@@std@@MAE?AV?$fpos@U_Mbstatet@@@2@_JHH@Z 1000e770 f i java.obj
 0001:0000d7a0       ?xsputn@?$basic_streambuf@DU?$char_traits@D@std@@@std@@MAE_JPBD_J@Z 1000e7a0 f i java.obj
 0001:0000d880       ?xsgetn@?$basic_streambuf@DU?$char_traits@D@std@@@std@@MAE_JPAD_J@Z 1000e880 f i java.obj
 0001:0000d960       ?uflow@?$basic_streambuf@DU?$char_traits@D@std@@@std@@MAEHXZ 1000e960 f i java.obj
 0001:0000d990       ?underflow@?$basic_streambuf@DU?$char_traits@D@std@@@std@@MAEHXZ 1000e990 f i java.obj
 0001:0000d9a0       ?showmanyc@?$basic_streambuf@DU?$char_traits@D@std@@@std@@MAE_JXZ 1000e9a0 f i java.obj
 0001:0000d9b0       ?overflow@?$basic_streambuf@DU?$char_traits@D@std@@@std@@MAEHH@Z 1000e9b0 f i java.obj
 0001:0000d9b0       ?pbackfail@?$basic_streambuf@DU?$char_traits@D@std@@@std@@MAEHH@Z 1000e9b0 f i java.obj
 0001:0000d9c0       ??_E?$basic_ostringstream@DU?$char_traits@D@std@@V?$allocator@D@2@@std@@UAEPAXI@Z 1000e9c0 f i * CIL library *:* CIL module *
 0001:0000d9c0       ??_G?$basic_ostringstream@DU?$char_traits@D@std@@V?$allocator@D@2@@std@@UAEPAXI@Z 1000e9c0 f i java.obj
 0001:0000da30       ??_E?$basic_stringbuf@DU?$char_traits@D@std@@V?$allocator@D@2@@std@@UAEPAXI@Z 1000ea30 f i * CIL library *:* CIL module *
 0001:0000da30       ??_G?$basic_stringbuf@DU?$char_traits@D@std@@V?$allocator@D@2@@std@@UAEPAXI@Z 1000ea30 f i java.obj
 0001:0000da50       ??_G?$basic_ostream@DU?$char_traits@D@std@@@std@@UAEPAXI@Z 1000ea50 f i java.obj
 0001:0000da50       ??_E?$basic_ostream@DU?$char_traits@D@std@@@std@@UAEPAXI@Z 1000ea50 f i * CIL library *:* CIL module *
 0001:0000daa0       ??_E?$basic_streambuf@DU?$char_traits@D@std@@@std@@UAEPAXI@Z 1000eaa0 f i * CIL library *:* CIL module *
 0001:0000daa0       ??_G?$basic_streambuf@DU?$char_traits@D@std@@@std@@UAEPAXI@Z 1000eaa0 f i java.obj
 0001:0000daf0       ??0sentry@?$basic_ostream@DU?$char_traits@D@std@@@std@@QAE@AAV12@@Z 1000eaf0 f i java.obj
 0001:0000dbe0       ?do_put@?$num_put@DV?$ostreambuf_iterator@DU?$char_traits@D@std@@@std@@@std@@MBE?AV?$ostreambuf_iterator@DU?$char_traits@D@std@@@2@V32@AAVios_base@2@DPBX@Z 1000ebe0 f i java.obj
 0001:0000dc50       ?do_put@?$num_put@DV?$ostreambuf_iterator@DU?$char_traits@D@std@@@std@@@std@@MBE?AV?$ostreambuf_iterator@DU?$char_traits@D@std@@@2@V32@AAVios_base@2@DO@Z 1000ec50 f i java.obj
 0001:0000ddf0       ?do_put@?$num_put@DV?$ostreambuf_iterator@DU?$char_traits@D@std@@@std@@@std@@MBE?AV?$ostreambuf_iterator@DU?$char_traits@D@std@@@2@V32@AAVios_base@2@DN@Z 1000edf0 f i java.obj
 0001:0000df90       ?do_put@?$num_put@DV?$ostreambuf_iterator@DU?$char_traits@D@std@@@std@@@std@@MBE?AV?$ostreambuf_iterator@DU?$char_traits@D@std@@@2@V32@AAVios_base@2@D_K@Z 1000ef90 f i java.obj
 0001:0000e010       ?do_put@?$num_put@DV?$ostreambuf_iterator@DU?$char_traits@D@std@@@std@@@std@@MBE?AV?$ostreambuf_iterator@DU?$char_traits@D@std@@@2@V32@AAVios_base@2@D_J@Z 1000f010 f i java.obj
 0001:0000e090       ?do_put@?$num_put@DV?$ostreambuf_iterator@DU?$char_traits@D@std@@@std@@@std@@MBE?AV?$ostreambuf_iterator@DU?$char_traits@D@std@@@2@V32@AAVios_base@2@DK@Z 1000f090 f i java.obj
 0001:0000e110       ?do_put@?$num_put@DV?$ostreambuf_iterator@DU?$char_traits@D@std@@@std@@@std@@MBE?AV?$ostreambuf_iterator@DU?$char_traits@D@std@@@2@V32@AAVios_base@2@DJ@Z 1000f110 f i java.obj
 0001:0000e190       ?do_put@?$num_put@DV?$ostreambuf_iterator@DU?$char_traits@D@std@@@std@@@std@@MBE?AV?$ostreambuf_iterator@DU?$char_traits@D@std@@@2@V32@AAVios_base@2@D_N@Z 1000f190 f i java.obj
 0001:0000e3e0       ?assign@?$basic_string@DU?$char_traits@D@std@@V?$allocator@D@2@@std@@QAEAAV12@QBDI@Z 1000f3e0 f i java.obj
 0001:0000e500       ?_Pnavail@?$basic_streambuf@DU?$char_traits@D@std@@@std@@IBE_JXZ 1000f500 f i java.obj
 0001:0000e520       ?_Gnavail@?$basic_streambuf@DU?$char_traits@D@std@@@std@@IBE_JXZ 1000f520 f i java.obj
 0001:0000e540       ?setstate@?$basic_ios@DU?$char_traits@D@std@@@std@@QAEXH_N@Z 1000f540 f i java.obj
 0001:0000e5b0       ?do_truename@?$numpunct@D@std@@MBE?AV?$basic_string@DU?$char_traits@D@std@@V?$allocator@D@2@@2@XZ 1000f5b0 f i java.obj
 0001:0000e5f0       ?do_falsename@?$numpunct@D@std@@MBE?AV?$basic_string@DU?$char_traits@D@std@@V?$allocator@D@2@@2@XZ 1000f5f0 f i java.obj
 0001:0000e630       ?do_grouping@?$numpunct@D@std@@MBE?AV?$basic_string@DU?$char_traits@D@std@@V?$allocator@D@2@@2@XZ 1000f630 f i java.obj
 0001:0000e670       ?do_thousands_sep@?$numpunct@D@std@@MBEDXZ 1000f670 f i java.obj
 0001:0000e680       ?do_decimal_point@?$numpunct@D@std@@MBEDXZ 1000f680 f i java.obj
 0001:0000e690       ?_Rep@?$num_put@DV?$ostreambuf_iterator@DU?$char_traits@D@std@@@std@@@std@@ABA?AV?$ostreambuf_iterator@DU?$char_traits@D@std@@@2@V32@DI@Z 1000f690 f i java.obj
 0001:0000e700       ?_Put@?$num_put@DV?$ostreambuf_iterator@DU?$char_traits@D@std@@@std@@@std@@ABA?AV?$ostreambuf_iterator@DU?$char_traits@D@std@@@2@V32@PBDI@Z 1000f700 f i java.obj
 0001:0000e780       ?_Iput@?$num_put@DV?$ostreambuf_iterator@DU?$char_traits@D@std@@@std@@@std@@ABA?AV?$ostreambuf_iterator@DU?$char_traits@D@std@@@2@V32@AAVios_base@2@DPADI@Z 1000f780 f i java.obj
 0001:0000eb80       ?_Ifmt@?$num_put@DV?$ostreambuf_iterator@DU?$char_traits@D@std@@@std@@@std@@ABAPADPADPBDH@Z 1000fb80 f i java.obj
 0001:0000ec10       ?_Fput@?$num_put@DV?$ostreambuf_iterator@DU?$char_traits@D@std@@@std@@@std@@ABA?AV?$ostreambuf_iterator@DU?$char_traits@D@std@@@2@V32@AAVios_base@2@DPBDI@Z 1000fc10 f i java.obj
 0001:0000f080       ?_Ffmt@?$num_put@DV?$ostreambuf_iterator@DU?$char_traits@D@std@@@std@@@std@@ABAPADPADDH@Z 10010080 f i java.obj
 0001:0000f140       ??_E?$numpunct@D@std@@MAEPAXI@Z 10010140 f i * CIL library *:* CIL module *
 0001:0000f140       ??_G?$numpunct@D@std@@MAEPAXI@Z 10010140 f i java.obj
 0001:0000f180       ?_Xran@?$_String_val@U?$_Simple_types@D@std@@@std@@SAXXZ 10010180 f i java.obj
 0001:0000f190       ??$use_facet@V?$ctype@D@std@@@std@@YAABV?$ctype@D@0@ABVlocale@0@@Z 10010190 f i java.obj
 0001:0000f2c0       ??$Reset@VObject@v8@@@?$Persistent@VObject@v8@@V?$NonCopyablePersistentTraits@VObject@v8@@@2@@Nan@@QAEXABV?$Local@VObject@v8@@@v8@@@Z 100102c0 f i java.obj
 0001:0000f300       ??$New@VObject@v8@@V?$NonCopyablePersistentTraits@VObject@v8@@@2@@Nan@@YA?AV?$Local@VObject@v8@@@v8@@ABV?$Persistent@VObject@v8@@V?$NonCopyablePersistentTraits@VObject@v8@@@2@@0@@Z 10010300 f i java.obj
 0001:0000f330       ??$?9DU?$char_traits@D@std@@V?$allocator@D@1@@std@@YA_NABV?$basic_string@DU?$char_traits@D@std@@V?$allocator@D@2@@0@0@Z 10010330 f i java.obj
 0001:0000f3a0       ??$?6U?$char_traits@D@std@@@std@@YAAAV?$basic_ostream@DU?$char_traits@D@std@@@0@AAV10@PBD@Z 100103a0 f i java.obj
 0001:0000f5e0       ??$Unwrap@VJavaObject@@@ObjectWrap@Nan@@SAPAVJavaObject@@V?$Local@VObject@v8@@@v8@@@Z 100105e0 f i java.obj
 0001:0000f5e0       ??$Unwrap@VJava@@@ObjectWrap@Nan@@SAPAVJava@@V?$Local@VObject@v8@@@v8@@@Z 100105e0 f i java.obj
 0001:0000f5e0       ??$Unwrap@VJavaProxyObject@@@ObjectWrap@Nan@@SAPAVJavaProxyObject@@V?$Local@VObject@v8@@@v8@@@Z 100105e0 f i javaObject.obj
 0001:0000f660       ??$?HDU?$char_traits@D@std@@V?$allocator@D@1@@std@@YA?AV?$basic_string@DU?$char_traits@D@std@@V?$allocator@D@2@@0@QBDABV10@@Z 10010660 f i java.obj
 0001:0000f710       ??$use_facet@V?$numpunct@D@std@@@std@@YAABV?$numpunct@D@0@ABVlocale@0@@Z 10010710 f i java.obj
 0001:0000f8e0       ??$_Reallocate_grow_by@V<lambda_c1b8c41cb4019640539cfd828748c4d4>@@ID@?$basic_string@DU?$char_traits@D@std@@V?$allocator@D@2@@std@@QAEAAV01@IV<lambda_c1b8c41cb4019640539cfd828748c4d4>@@ID@Z 100108e0 f i java.obj
 0001:0000fa30       ??$_Reallocate_grow_by@V<lambda_ab246b20b9526e2ef7792587e4298a77>@@PBDI@?$basic_string@DU?$char_traits@D@std@@V?$allocator@D@2@@std@@QAEAAV01@IV<lambda_ab246b20b9526e2ef7792587e4298a77>@@PBDI@Z 10010a30 f i java.obj
 0001:0000fb80       ??$_Reallocate_grow_by@V<lambda_6607a66f2a10a1261ff9db96cba1015b>@@IID@?$basic_string@DU?$char_traits@D@std@@V?$allocator@D@2@@std@@QAEAAV01@IV<lambda_6607a66f2a10a1261ff9db96cba1015b>@@IID@Z 10010b80 f i java.obj
 0001:0000fd00       ?_Xlen@?$basic_string@DU?$char_traits@D@std@@V?$allocator@D@2@@std@@SAXXZ 10010d00 f i java.obj
 0001:0000fd10       ?reserve@?$basic_string@DU?$char_traits@D@std@@V?$allocator@D@2@@std@@QAEXI@Z 10010d10 f i java.obj
 0001:0000fe90       ??$_Immortalize_impl@V_Iostream_error_category@std@@@std@@YGHPAX0PAPAX@Z 10010e90 f i java.obj
 0001:0000feb0       ??$_Insert_string@DU?$char_traits@D@std@@I@std@@YAAAV?$basic_ostream@DU?$char_traits@D@std@@@0@AAV10@QBDI@Z 10010eb0 f i java.obj
 0001:000100a0       ??$_Reallocate_grow_by@V<lambda_4d79bb85f269e6e8002a4599002d832c>@@IPBDI@?$basic_string@DU?$char_traits@D@std@@V?$allocator@D@2@@std@@QAEAAV01@IV<lambda_4d79bb85f269e6e8002a4599002d832c>@@IPBDI@Z 100110a0 f i java.obj
 0001:000101d4       ??_E?$basic_ostream@DU?$char_traits@D@std@@@std@@$4PPPPPPPM@A@AEPAXI@Z 100111d4 f i java.obj
 0001:000101dc       ??_E?$basic_ostringstream@DU?$char_traits@D@std@@V?$allocator@D@2@@std@@$4PPPPPPPM@A@AEPAXI@Z 100111dc f i java.obj
 0001:000101f0       ?CallStaticIntMethod@JNIEnv_@@QAAJPAV_jclass@@PAU_jmethodID@@ZZ 100111f0 f i javaObject.obj
 0001:00010210       ?SetAccessor@Nan@@YAXV?$Local@VObjectTemplate@v8@@@v8@@V?$Local@VString@v8@@@3@P6AX1ABV?$PropertyCallbackInfo@VValue@v8@@@1@@ZP6AX1V?$Local@VValue@v8@@@3@ABV?$PropertyCallbackInfo@X@1@@Z4W4AccessControl@3@W4PropertyAttribute@3@V?$Local@VAccessorSignature@v8@@@3@@Z 10011210 f i javaObject.obj
 0001:00010350       ?New@JavaObject@@SA?AV?$Local@VObject@v8@@@v8@@PAVJava@@PAV_jobject@@@Z 10011350 f   javaObject.obj
 0001:00011660       ??_GJavaObject@@MAEPAXI@Z  10012660 f i javaObject.obj
 0001:00011660       ??_EJavaObject@@MAEPAXI@Z  10012660 f i * CIL library *:* CIL module *
 0001:00011680       ??1JavaObject@@MAE@XZ      10012680 f   javaObject.obj
 0001:00011700       ?methodCall@JavaObject@@CAXABV?$FunctionCallbackInfo@VValue@v8@@@Nan@@@Z 10012700 f   javaObject.obj
 0001:00011d00       ?methodCallSync@JavaObject@@CAXABV?$FunctionCallbackInfo@VValue@v8@@@Nan@@@Z 10012d00 f   javaObject.obj
 0001:00011fa0       ?methodCallPromise@JavaObject@@CAXABV?$FunctionCallbackInfo@VValue@v8@@@Nan@@@Z 10012fa0 f   javaObject.obj
 0001:00012080       ?fieldGetter@JavaObject@@CAXV?$Local@VString@v8@@@v8@@ABV?$PropertyCallbackInfo@VValue@v8@@@Nan@@@Z 10013080 f   javaObject.obj
 0001:000125b0       ?fieldSetter@JavaObject@@CAXV?$Local@VString@v8@@@v8@@V?$Local@VValue@v8@@@3@ABV?$PropertyCallbackInfo@X@Nan@@@Z 100135b0 f   javaObject.obj
 0001:00012a10       ?indexGetter@JavaObject@@CAXIABV?$PropertyCallbackInfo@VValue@v8@@@Nan@@@Z 10013a10 f   javaObject.obj
 0001:00012b70       ?init@JavaProxyObject@@SAXXZ 10013b70 f   javaObject.obj
 0001:00012d10       ?New@JavaProxyObject@@SA?AV?$Local@VObject@v8@@@v8@@PAVJava@@PAV_jobject@@PAUDynamicProxyData@@@Z 10013d10 f   javaObject.obj
 0001:00012eb0       ??_GJavaProxyObject@@EAEPAXI@Z 10013eb0 f i javaObject.obj
 0001:00012eb0       ??_EJavaProxyObject@@EAEPAXI@Z 10013eb0 f i * CIL library *:* CIL module *
 0001:00012f10       ?doUnref@JavaProxyObject@@CAXABV?$FunctionCallbackInfo@VValue@v8@@@Nan@@@Z 10013f10 f   javaObject.obj
 0001:00012f70       ?invocationHandlerGetter@JavaProxyObject@@CAXV?$Local@VString@v8@@@v8@@ABV?$PropertyCallbackInfo@VValue@v8@@@Nan@@@Z 10013f70 f   javaObject.obj
 0001:00013030       ??A?$map@V?$basic_string@DU?$char_traits@D@std@@V?$allocator@D@2@@std@@PAV?$Persistent@VFunctionTemplate@v8@@V?$NonCopyablePersistentTraits@VFunctionTemplate@v8@@@2@@Nan@@U?$less@V?$basic_string@DU?$char_traits@D@std@@V?$allocator@D@2@@std@@@2@V?$allocator@U?$pair@$$CBV?$basic_string@DU?$char_traits@D@std@@V?$allocator@D@2@@std@@PAV?$Persistent@VFunctionTemplate@v8@@V?$NonCopyablePersistentTraits@VFunctionTemplate@v8@@@2@@Nan@@@std@@@2@@std@@QAEAAPAV?$Persistent@VFunctionTemplate@v8@@V?$NonCopyablePersistentTraits@VFunctionTemplate@v8@@@2@@Nan@@ABV?$basic_string@DU?$char_traits@D@std@@V?$allocator@D@2@@1@@Z 10014030 f i javaObject.obj
 0001:00013130       ?lower_bound@?$_Tree@V?$_Tmap_traits@V?$basic_string@DU?$char_traits@D@std@@V?$allocator@D@2@@std@@PAV?$Persistent@VFunctionTemplate@v8@@V?$NonCopyablePersistentTraits@VFunctionTemplate@v8@@@2@@Nan@@U?$less@V?$basic_string@DU?$char_traits@D@std@@V?$allocator@D@2@@std@@@2@V?$allocator@U?$pair@$$CBV?$basic_string@DU?$char_traits@D@std@@V?$allocator@D@2@@std@@PAV?$Persistent@VFunctionTemplate@v8@@V?$NonCopyablePersistentTraits@VFunctionTemplate@v8@@@2@@Nan@@@std@@@2@$0A@@std@@@std@@QAE?AV?$_Tree_iterator@V?$_Tree_val@U?$_Tree_simple_types@U?$pair@$$CBV?$basic_string@DU?$char_traits@D@std@@V?$allocator@D@2@@std@@PAV?$Persistent@VFunctionTemplate@v8@@V?$NonCopyablePersistentTraits@VFunctionTemplate@v8@@@2@@Nan@@@std@@@std@@@std@@@2@ABV?$basic_string@DU?$char_traits@D@std@@V?$allocator@D@2@@2@@Z 10014130 f i javaObject.obj
 0001:00013200       ?erase@?$_Tree@V?$_Tmap_traits@V?$basic_string@DU?$char_traits@D@std@@V?$allocator@D@2@@std@@PAV?$Persistent@VFunctionTemplate@v8@@V?$NonCopyablePersistentTraits@VFunctionTemplate@v8@@@2@@Nan@@U?$less@V?$basic_string@DU?$char_traits@D@std@@V?$allocator@D@2@@std@@@2@V?$allocator@U?$pair@$$CBV?$basic_string@DU?$char_traits@D@std@@V?$allocator@D@2@@std@@PAV?$Persistent@VFunctionTemplate@v8@@V?$NonCopyablePersistentTraits@VFunctionTemplate@v8@@@2@@Nan@@@std@@@2@$0A@@std@@@std@@QAE?AV?$_Tree_iterator@V?$_Tree_val@U?$_Tree_simple_types@U?$pair@$$CBV?$basic_string@DU?$char_traits@D@std@@V?$allocator@D@2@@std@@PAV?$Persistent@VFunctionTemplate@v8@@V?$NonCopyablePersistentTraits@VFunctionTemplate@v8@@@2@@Nan@@@std@@@std@@@std@@@2@V?$_Tree_const_iterator@V?$_Tree_val@U?$_Tree_simple_types@U?$pair@$$CBV?$basic_string@DU?$char_traits@D@std@@V?$allocator@D@2@@std@@PAV?$Persistent@VFunctionTemplate@v8@@V?$NonCopyablePersistentTraits@VFunctionTemplate@v8@@@2@@Nan@@@std@@@std@@@std@@@2@0@Z 10014200 f i javaObject.obj
 0001:00013370       ?_Extract@?$_Tree_val@U?$_Tree_simple_types@V?$basic_string@DU?$char_traits@D@std@@V?$allocator@D@2@@std@@@std@@@std@@QAEPAU?$_Tree_node@V?$basic_string@DU?$char_traits@D@std@@V?$allocator@D@2@@std@@PAX@2@V?$_Tree_const_iterator@V?$_Tree_val@U?$_Tree_simple_types@V?$basic_string@DU?$char_traits@D@std@@V?$allocator@D@2@@std@@@std@@@std@@@2@@Z 10014370 f i utils.obj
 0001:00013370       ?_Extract@?$_Tree_val@U?$_Tree_simple_types@U?$pair@$$CBV?$basic_string@DU?$char_traits@D@std@@V?$allocator@D@2@@std@@PAV?$Persistent@VFunctionTemplate@v8@@V?$NonCopyablePersistentTraits@VFunctionTemplate@v8@@@2@@Nan@@@std@@@std@@@std@@QAEPAU?$_Tree_node@U?$pair@$$CBV?$basic_string@DU?$char_traits@D@std@@V?$allocator@D@2@@std@@PAV?$Persistent@VFunctionTemplate@v8@@V?$NonCopyablePersistentTraits@VFunctionTemplate@v8@@@2@@Nan@@@std@@PAX@2@V?$_Tree_const_iterator@V?$_Tree_val@U?$_Tree_simple_types@U?$pair@$$CBV?$basic_string@DU?$char_traits@D@std@@V?$allocator@D@2@@std@@PAV?$Persistent@VFunctionTemplate@v8@@V?$NonCopyablePersistentTraits@VFunctionTemplate@v8@@@2@@Nan@@@std@@@std@@@std@@@2@@Z 10014370 f i javaObject.obj
 0001:00013790       ?_Erase@?$_Tree@V?$_Tmap_traits@V?$basic_string@DU?$char_traits@D@std@@V?$allocator@D@2@@std@@PAV?$Persistent@VFunctionTemplate@v8@@V?$NonCopyablePersistentTraits@VFunctionTemplate@v8@@@2@@Nan@@U?$less@V?$basic_string@DU?$char_traits@D@std@@V?$allocator@D@2@@std@@@2@V?$allocator@U?$pair@$$CBV?$basic_string@DU?$char_traits@D@std@@V?$allocator@D@2@@std@@PAV?$Persistent@VFunctionTemplate@v8@@V?$NonCopyablePersistentTraits@VFunctionTemplate@v8@@@2@@Nan@@@std@@@2@$0A@@std@@@std@@IAEXPAU?$_Tree_node@U?$pair@$$CBV?$basic_string@DU?$char_traits@D@std@@V?$allocator@D@2@@std@@PAV?$Persistent@VFunctionTemplate@v8@@V?$NonCopyablePersistentTraits@VFunctionTemplate@v8@@@2@@Nan@@@std@@PAX@2@@Z 10014790 f i javaObject.obj
 0001:00013810       ??$_Insert_hint@AAU?$pair@$$CBV?$basic_string@DU?$char_traits@D@std@@V?$allocator@D@2@@std@@PAV?$Persistent@VFunctionTemplate@v8@@V?$NonCopyablePersistentTraits@VFunctionTemplate@v8@@@2@@Nan@@@std@@PAU?$_Tree_node@U?$pair@$$CBV?$basic_string@DU?$char_traits@D@std@@V?$allocator@D@2@@std@@PAV?$Persistent@VFunctionTemplate@v8@@V?$NonCopyablePersistentTraits@VFunctionTemplate@v8@@@2@@Nan@@@std@@PAX@2@@?$_Tree@V?$_Tmap_traits@V?$basic_string@DU?$char_traits@D@std@@V?$allocator@D@2@@std@@PAV?$Persistent@VFunctionTemplate@v8@@V?$NonCopyablePersistentTraits@VFunctionTemplate@v8@@@2@@Nan@@U?$less@V?$basic_string@DU?$char_traits@D@std@@V?$allocator@D@2@@std@@@2@V?$allocator@U?$pair@$$CBV?$basic_string@DU?$char_traits@D@std@@V?$allocator@D@2@@std@@PAV?$Persistent@VFunctionTemplate@v8@@V?$NonCopyablePersistentTraits@VFunctionTemplate@v8@@@2@@Nan@@@std@@@2@$0A@@std@@@std@@IAE?AV?$_Tree_iterator@V?$_Tree_val@U?$_Tree_simple_types@U?$pair@$$CBV?$basic_string@DU?$char_traits@D@std@@V?$allocator@D@2@@std@@PAV?$Persistent@VFunctionTemplate@v8@@V?$NonCopyablePersistentTraits@VFunctionTemplate@v8@@@2@@Nan@@@std@@@std@@@std@@@1@V?$_Tree_const_iterator@V?$_Tree_val@U?$_Tree_simple_types@U?$pair@$$CBV?$basic_string@DU?$char_traits@D@std@@V?$allocator@D@2@@std@@PAV?$Persistent@VFunctionTemplate@v8@@V?$NonCopyablePersistentTraits@VFunctionTemplate@v8@@@2@@Nan@@@std@@@std@@@std@@@1@AAU?$pair@$$CBV?$basic_string@DU?$char_traits@D@std@@V?$allocator@D@2@@std@@PAV?$Persistent@VFunctionTemplate@v8@@V?$NonCopyablePersistentTraits@VFunctionTemplate@v8@@@2@@Nan@@@1@PAU?$_Tree_node@U?$pair@$$CBV?$basic_string@DU?$char_traits@D@std@@V?$allocator@D@2@@std@@PAV?$Persistent@VFunctionTemplate@v8@@V?$NonCopyablePersistentTraits@VFunctionTemplate@v8@@@2@@Nan@@@std@@PAX@1@@Z 10014810 f i javaObject.obj
 0001:00013d10       ?_Destroy_if_node@?$_Tree@V?$_Tmap_traits@V?$basic_string@DU?$char_traits@D@std@@V?$allocator@D@2@@std@@PAV?$Persistent@VFunctionTemplate@v8@@V?$NonCopyablePersistentTraits@VFunctionTemplate@v8@@@2@@Nan@@U?$less@V?$basic_string@DU?$char_traits@D@std@@V?$allocator@D@2@@std@@@2@V?$allocator@U?$pair@$$CBV?$basic_string@DU?$char_traits@D@std@@V?$allocator@D@2@@std@@PAV?$Persistent@VFunctionTemplate@v8@@V?$NonCopyablePersistentTraits@VFunctionTemplate@v8@@@2@@Nan@@@std@@@2@$0A@@std@@@std@@IAEXPAU?$_Tree_node@U?$pair@$$CBV?$basic_string@DU?$char_traits@D@std@@V?$allocator@D@2@@std@@PAV?$Persistent@VFunctionTemplate@v8@@V?$NonCopyablePersistentTraits@VFunctionTemplate@v8@@@2@@Nan@@@std@@PAX@2@@Z 10014d10 f i javaObject.obj
 0001:00013d70       ??$_Insert_at@AAU?$pair@$$CBV?$basic_string@DU?$char_traits@D@std@@V?$allocator@D@2@@std@@PAV?$Persistent@VFunctionTemplate@v8@@V?$NonCopyablePersistentTraits@VFunctionTemplate@v8@@@2@@Nan@@@std@@PAU?$_Tree_node@U?$pair@$$CBV?$basic_string@DU?$char_traits@D@std@@V?$allocator@D@2@@std@@PAV?$Persistent@VFunctionTemplate@v8@@V?$NonCopyablePersistentTraits@VFunctionTemplate@v8@@@2@@Nan@@@std@@PAX@2@@?$_Tree@V?$_Tmap_traits@V?$basic_string@DU?$char_traits@D@std@@V?$allocator@D@2@@std@@PAV?$Persistent@VFunctionTemplate@v8@@V?$NonCopyablePersistentTraits@VFunctionTemplate@v8@@@2@@Nan@@U?$less@V?$basic_string@DU?$char_traits@D@std@@V?$allocator@D@2@@std@@@2@V?$allocator@U?$pair@$$CBV?$basic_string@DU?$char_traits@D@std@@V?$allocator@D@2@@std@@PAV?$Persistent@VFunctionTemplate@v8@@V?$NonCopyablePersistentTraits@VFunctionTemplate@v8@@@2@@Nan@@@std@@@2@$0A@@std@@@std@@IAE?AV?$_Tree_iterator@V?$_Tree_val@U?$_Tree_simple_types@U?$pair@$$CBV?$basic_string@DU?$char_traits@D@std@@V?$allocator@D@2@@std@@PAV?$Persistent@VFunctionTemplate@v8@@V?$NonCopyablePersistentTraits@VFunctionTemplate@v8@@@2@@Nan@@@std@@@std@@@std@@@1@_NPAU?$_Tree_node@U?$pair@$$CBV?$basic_string@DU?$char_traits@D@std@@V?$allocator@D@2@@std@@PAV?$Persistent@VFunctionTemplate@v8@@V?$NonCopyablePersistentTraits@VFunctionTemplate@v8@@@2@@Nan@@@std@@PAX@1@AAU?$pair@$$CBV?$basic_string@DU?$char_traits@D@std@@V?$allocator@D@2@@std@@PAV?$Persistent@VFunctionTemplate@v8@@V?$NonCopyablePersistentTraits@VFunctionTemplate@v8@@@2@@Nan@@@1@1@Z 10014d70 f i javaObject.obj
 0001:00013fb0       ??$_Insert_nohint@AAU?$pair@$$CBV?$basic_string@DU?$char_traits@D@std@@V?$allocator@D@2@@std@@PAV?$Persistent@VFunctionTemplate@v8@@V?$NonCopyablePersistentTraits@VFunctionTemplate@v8@@@2@@Nan@@@std@@PAU?$_Tree_node@U?$pair@$$CBV?$basic_string@DU?$char_traits@D@std@@V?$allocator@D@2@@std@@PAV?$Persistent@VFunctionTemplate@v8@@V?$NonCopyablePersistentTraits@VFunctionTemplate@v8@@@2@@Nan@@@std@@PAX@2@@?$_Tree@V?$_Tmap_traits@V?$basic_string@DU?$char_traits@D@std@@V?$allocator@D@2@@std@@PAV?$Persistent@VFunctionTemplate@v8@@V?$NonCopyablePersistentTraits@VFunctionTemplate@v8@@@2@@Nan@@U?$less@V?$basic_string@DU?$char_traits@D@std@@V?$allocator@D@2@@std@@@2@V?$allocator@U?$pair@$$CBV?$basic_string@DU?$char_traits@D@std@@V?$allocator@D@2@@std@@PAV?$Persistent@VFunctionTemplate@v8@@V?$NonCopyablePersistentTraits@VFunctionTemplate@v8@@@2@@Nan@@@std@@@2@$0A@@std@@@std@@IAE?AU?$pair@V?$_Tree_iterator@V?$_Tree_val@U?$_Tree_simple_types@U?$pair@$$CBV?$basic_string@DU?$char_traits@D@std@@V?$allocator@D@2@@std@@PAV?$Persistent@VFunctionTemplate@v8@@V?$NonCopyablePersistentTraits@VFunctionTemplate@v8@@@2@@Nan@@@std@@@std@@@std@@@std@@_N@1@_NAAU?$pair@$$CBV?$basic_string@DU?$char_traits@D@std@@V?$allocator@D@2@@std@@PAV?$Persistent@VFunctionTemplate@v8@@V?$NonCopyablePersistentTraits@VFunctionTemplate@v8@@@2@@Nan@@@1@PAU?$_Tree_node@U?$pair@$$CBV?$basic_string@DU?$char_traits@D@std@@V?$allocator@D@2@@std@@PAV?$Persistent@VFunctionTemplate@v8@@V?$NonCopyablePersistentTraits@VFunctionTemplate@v8@@@2@@Nan@@@std@@PAX@1@@Z 10014fb0 f i javaObject.obj
 0001:00014200       ?Call@Callback@Nan@@QBE?AV?$MaybeLocal@VValue@v8@@@v8@@HQAV?$Local@VValue@v8@@@4@PAVAsyncResource@2@@Z 10015200 f i methodCallBaton.obj
 0001:000142d0       ??1AsyncWorker@Nan@@UAE@XZ 100152d0 f i methodCallBaton.obj
 0001:00014370       ?WorkComplete@AsyncWorker@Nan@@UAEXXZ 10015370 f i methodCallBaton.obj
 0001:000143e0       ?Destroy@AsyncWorker@Nan@@UAEXXZ 100153e0 f i methodCallBaton.obj
 0001:000143f0       ?HandleOKCallback@AsyncWorker@Nan@@MAEXXZ 100153f0 f i methodCallBaton.obj
 0001:00014430       ?HandleErrorCallback@AsyncWorker@Nan@@MAEXXZ 10015430 f i methodCallBaton.obj
 0001:000144b0       ??_EAsyncWorker@Nan@@UAEPAXI@Z 100154b0 f i * CIL library *:* CIL module *
 0001:000144b0       ??_GAsyncWorker@Nan@@UAEPAXI@Z 100154b0 f i methodCallBaton.obj
 0001:000144d0       ?AsyncExecute@Nan@@YAXPAUuv_work_s@@@Z 100154d0 f i methodCallBaton.obj
 0001:000144e0       ?AsyncExecuteComplete@Nan@@YAXPAUuv_work_s@@@Z 100154e0 f i methodCallBaton.obj
 0001:00014500       ??0MethodCallBaton@@QAE@PAVJava@@PAV_jobject@@PAV_jarray@@AAV?$Local@VValue@v8@@@v8@@@Z 10015500 f   methodCallBaton.obj
 0001:000146e0       ??_EMethodCallBaton@@UAEPAXI@Z 100156e0 f i * CIL library *:* CIL module *
 0001:000146e0       ??_GMethodCallBaton@@UAEPAXI@Z 100156e0 f i methodCallBaton.obj
 0001:00014700       ??1MethodCallBaton@@UAE@XZ 10015700 f   methodCallBaton.obj
 0001:000147d0       ?runSync@MethodCallBaton@@QAE?AV?$Local@VValue@v8@@@v8@@XZ 100157d0 f   methodCallBaton.obj
 0001:00014800       ?Execute@MethodCallBaton@@MAEXXZ 10015800 f   methodCallBaton.obj
 0001:00014840       ?WorkComplete@MethodCallBaton@@MAEXXZ 10015840 f   methodCallBaton.obj
 0001:00014930       ?resultsToV8@MethodCallBaton@@IAE?AV?$Local@VValue@v8@@@v8@@PAUJNIEnv_@@@Z 10015930 f   methodCallBaton.obj
 0001:00014a10       ?ExecuteInternal@NewInstanceBaton@@MAEXPAUJNIEnv_@@@Z 10015a10 f   methodCallBaton.obj
 0001:00014b00       ?ExecuteInternal@StaticMethodCallBaton@@MAEXPAUJNIEnv_@@@Z 10015b00 f   methodCallBaton.obj
 0001:00014c10       ?ExecuteInternal@InstanceMethodCallBaton@@MAEXPAUJNIEnv_@@@Z 10015c10 f   methodCallBaton.obj
 0001:00014d40       ??0NewInstanceBaton@@QAE@PAVJava@@PAV_jclass@@PAV_jobject@@PAV_jarray@@AAV?$Local@VValue@v8@@@v8@@@Z 10015d40 f   methodCallBaton.obj
 0001:00014d80       ??_ENewInstanceBaton@@UAEPAXI@Z 10015d80 f i * CIL library *:* CIL module *
 0001:00014d80       ??_GNewInstanceBaton@@UAEPAXI@Z 10015d80 f i methodCallBaton.obj
 0001:00014dd0       ??0StaticMethodCallBaton@@QAE@PAVJava@@PAV_jclass@@PAV_jobject@@PAV_jarray@@AAV?$Local@VValue@v8@@@v8@@@Z 10015dd0 f   methodCallBaton.obj
 0001:00014e10       ??_EStaticMethodCallBaton@@UAEPAXI@Z 10015e10 f i * CIL library *:* CIL module *
 0001:00014e10       ??_GStaticMethodCallBaton@@UAEPAXI@Z 10015e10 f i methodCallBaton.obj
 0001:00014e60       ??0InstanceMethodCallBaton@@QAE@PAVJava@@PAVJavaObject@@PAV_jobject@@PAV_jarray@@AAV?$Local@VValue@v8@@@v8@@@Z 10015e60 f   methodCallBaton.obj
 0001:00014ea0       ??_EInstanceMethodCallBaton@@UAEPAXI@Z 10015ea0 f i * CIL library *:* CIL module *
 0001:00014ea0       ??_GInstanceMethodCallBaton@@UAEPAXI@Z 10015ea0 f i methodCallBaton.obj
 0001:00014f00       _DllMain@12                10015f00 f   nodeJavaBridge.obj
 0001:00014f10       _printf                    10015f10 f i utils.obj
 0001:00014f50       ?CallLongMethod@JNIEnv_@@QAA_JPAV_jobject@@PAU_jmethodID@@ZZ 10015f50 f i utils.obj
 0001:00014f70       ?javaReflectionGetMethods@@YAXPAUJNIEnv_@@PAV_jclass@@PAV?$list@PAV_jobject@@V?$allocator@PAV_jobject@@@std@@@std@@_N@Z 10015f70 f   utils.obj
 0001:000150c0       ?javaToString@@YA?AV?$basic_string@DU?$char_traits@D@std@@V?$allocator@D@2@@std@@PAUJNIEnv_@@PAV_jstring@@@Z 100160c0 f   utils.obj
 0001:00015180       ?javaObjectToString@@YA?AV?$basic_string@DU?$char_traits@D@std@@V?$allocator@D@2@@std@@PAUJNIEnv_@@PAV_jobject@@@Z 10016180 f   utils.obj
 0001:00015220       ?javaGetEnv@@YAPAUJNIEnv_@@PAUJavaVM_@@PAV_jobject@@@Z 10016220 f   utils.obj
 0001:00015350       ?javaGetType@@YA?AW4_jvalueType@@PAUJNIEnv_@@PAV_jclass@@@Z 10016350 f   utils.obj
 0001:00015840       ?javaFindClass@@YAPAV_jclass@@PAUJNIEnv_@@AAV?$basic_string@DU?$char_traits@D@std@@V?$allocator@D@2@@std@@@Z 10016840 f   utils.obj
 0001:00015910       ?javaFindField@@YAPAV_jobject@@PAUJNIEnv_@@PAV_jclass@@AAV?$basic_string@DU?$char_traits@D@std@@V?$allocator@D@2@@std@@@Z 10016910 f   utils.obj
 0001:00015d40       ?v8ToJava@@YAPAV_jobject@@PAUJNIEnv_@@V?$Local@VValue@v8@@@v8@@@Z 10016d40 f   utils.obj
 0001:00016280       ?checkJavaException@@YAXPAUJNIEnv_@@@Z 10017280 f   utils.obj
 0001:00016350       ?v8ToJava@@YAPAV_jobjectArray@@PAUJNIEnv_@@ABV?$FunctionCallbackInfo@VValue@v8@@@Nan@@HH@Z 10017350 f   utils.obj
 0001:000163f0       ?javaExceptionToString@@YA?AV?$basic_string@DU?$char_traits@D@std@@V?$allocator@D@2@@std@@PAUJNIEnv_@@PAV_jthrowable@@@Z 100173f0 f   utils.obj
 0001:000164f0       ?javaExceptionToV8@@YA?AV?$Local@VValue@v8@@@v8@@PAVJava@@PAUJNIEnv_@@PAV_jthrowable@@ABV?$basic_string@DU?$char_traits@D@std@@V?$allocator@D@2@@std@@@Z 100174f0 f   utils.obj
 0001:00016930       ?javaExceptionToV8@@YA?AV?$Local@VValue@v8@@@v8@@PAVJava@@PAUJNIEnv_@@ABV?$basic_string@DU?$char_traits@D@std@@V?$allocator@D@2@@std@@@Z 10017930 f   utils.obj
 0001:00016980       ?newArrayBuffer@@YA?AV?$Local@VArrayBuffer@v8@@@v8@@PAXI@Z 10017980 f   utils.obj
 0001:000169d0       ?javaArrayToV8@@YA?AV?$Local@VValue@v8@@@v8@@PAVJava@@PAUJNIEnv_@@PAV_jobjectArray@@@Z 100179d0 f   utils.obj
 0001:00016e50       ?javaToV8@@YA?AV?$Local@VValue@v8@@@v8@@PAVJava@@PAUJNIEnv_@@PAV_jobject@@@Z 10017e50 f   utils.obj
 0001:00016e80       ?javaToV8@@YA?AV?$Local@VValue@v8@@@v8@@PAVJava@@PAUJNIEnv_@@PAV_jobject@@PAUDynamicProxyData@@@Z 10017e80 f   utils.obj
 0001:000174f0       ?javaObjectArrayToClasses@@YAPAV_jobjectArray@@PAUJNIEnv_@@PAV1@@Z 100184f0 f   utils.obj
 0001:00017580       ?javaFindMethod@@YAPAV_jobject@@PAUJNIEnv_@@PAV_jclass@@AAV?$basic_string@DU?$char_traits@D@std@@V?$allocator@D@2@@std@@PAV_jobjectArray@@@Z 10018580 f   utils.obj
 0001:00017830       ?javaFindConstructor@@YAPAV_jobject@@PAUJNIEnv_@@PAV_jclass@@PAV_jobjectArray@@@Z 10018830 f   utils.obj
 0001:000178c0       ?longToJavaLongObj@@YAPAV_jobject@@PAUJNIEnv_@@_J@Z 100188c0 f   utils.obj
 0001:00017900       ?dynamicProxyDataVerify@@YAHPAUDynamicProxyData@@@Z 10018900 f   utils.obj
 0001:00017930       ?methodNotFoundToString@@YA?AV?$basic_string@DU?$char_traits@D@std@@V?$allocator@D@2@@std@@PAUJNIEnv_@@PAV_jclass@@V12@_NABV?$FunctionCallbackInfo@VValue@v8@@@Nan@@HH@Z 10018930 f   utils.obj
 0001:00018460       ?unref@@YAXPAUDynamicProxyData@@@Z 10019460 f   utils.obj
 0001:000184e0       ?GetHiddenValue@@YA?AV?$Local@VValue@v8@@@v8@@V?$Local@VObject@v8@@@2@V?$Local@VString@v8@@@2@@Z 100194e0 f   utils.obj
 0001:00018570       ?find@?$_Tree@V?$_Tset_traits@V?$basic_string@DU?$char_traits@D@std@@V?$allocator@D@2@@std@@U?$less@V?$basic_string@DU?$char_traits@D@std@@V?$allocator@D@2@@std@@@2@V?$allocator@V?$basic_string@DU?$char_traits@D@std@@V?$allocator@D@2@@std@@@2@$0A@@std@@@std@@QAE?AV?$_Tree_const_iterator@V?$_Tree_val@U?$_Tree_simple_types@V?$basic_string@DU?$char_traits@D@std@@V?$allocator@D@2@@std@@@std@@@std@@@2@ABV?$basic_string@DU?$char_traits@D@std@@V?$allocator@D@2@@2@@Z 10019570 f i utils.obj
 0001:00018700       ?erase@?$_Tree@V?$_Tset_traits@V?$basic_string@DU?$char_traits@D@std@@V?$allocator@D@2@@std@@U?$less@V?$basic_string@DU?$char_traits@D@std@@V?$allocator@D@2@@std@@@2@V?$allocator@V?$basic_string@DU?$char_traits@D@std@@V?$allocator@D@2@@std@@@2@$0A@@std@@@std@@QAE?AV?$_Tree_const_iterator@V?$_Tree_val@U?$_Tree_simple_types@V?$basic_string@DU?$char_traits@D@std@@V?$allocator@D@2@@std@@@std@@@std@@@2@V32@0@Z 10019700 f i utils.obj
 0001:00018860       ?_Erase@?$_Tree@V?$_Tset_traits@V?$basic_string@DU?$char_traits@D@std@@V?$allocator@D@2@@std@@U?$less@V?$basic_string@DU?$char_traits@D@std@@V?$allocator@D@2@@std@@@2@V?$allocator@V?$basic_string@DU?$char_traits@D@std@@V?$allocator@D@2@@std@@@2@$0A@@std@@@std@@IAEXPAU?$_Tree_node@V?$basic_string@DU?$char_traits@D@std@@V?$allocator@D@2@@std@@PAX@2@@Z 10019860 f i utils.obj
 0001:000188e0       ?New@?$IntegerFactory@VInteger@v8@@@imp@Nan@@SA?AV?$Local@VInteger@v8@@@v8@@H@Z 100198e0 f i utils.obj
 0001:00018960       ??$_Insert_nohint@ABV?$basic_string@DU?$char_traits@D@std@@V?$allocator@D@2@@std@@U_Not_a_node_tag@2@@?$_Tree@V?$_Tset_traits@V?$basic_string@DU?$char_traits@D@std@@V?$allocator@D@2@@std@@U?$less@V?$basic_string@DU?$char_traits@D@std@@V?$allocator@D@2@@std@@@2@V?$allocator@V?$basic_string@DU?$char_traits@D@std@@V?$allocator@D@2@@std@@@2@$0A@@std@@@std@@IAE?AU?$pair@V?$_Tree_const_iterator@V?$_Tree_val@U?$_Tree_simple_types@V?$basic_string@DU?$char_traits@D@std@@V?$allocator@D@2@@std@@@std@@@std@@@std@@_N@1@_NABV?$basic_string@DU?$char_traits@D@std@@V?$allocator@D@2@@1@U_Not_a_node_tag@1@@Z 10019960 f i utils.obj
 0001:00018bb0       ??$_Insert_at@ABV?$basic_string@DU?$char_traits@D@std@@V?$allocator@D@2@@std@@U_Not_a_node_tag@2@@?$_Tree@V?$_Tset_traits@V?$basic_string@DU?$char_traits@D@std@@V?$allocator@D@2@@std@@U?$less@V?$basic_string@DU?$char_traits@D@std@@V?$allocator@D@2@@std@@@2@V?$allocator@V?$basic_string@DU?$char_traits@D@std@@V?$allocator@D@2@@std@@@2@$0A@@std@@@std@@IAE?AV?$_Tree_const_iterator@V?$_Tree_val@U?$_Tree_simple_types@V?$basic_string@DU?$char_traits@D@std@@V?$allocator@D@2@@std@@@std@@@std@@@1@_NPAU?$_Tree_node@V?$basic_string@DU?$char_traits@D@std@@V?$allocator@D@2@@std@@PAX@1@ABV?$basic_string@DU?$char_traits@D@std@@V?$allocator@D@2@@1@U_Not_a_node_tag@1@@Z 10019bb0 f i utils.obj
 0001:00018dfe       ??0_Init_locks@std@@QAE@XZ 10019dfe f   libcpmt:xlock.obj
 0001:00018e2b       ??0_Lockit@std@@QAE@H@Z    10019e2b f   libcpmt:xlock.obj
 0001:00018e5c       ??1_Init_locks@std@@QAE@XZ 10019e5c f   libcpmt:xlock.obj
 0001:00018e83       ??1_Lockit@std@@QAE@XZ     10019e83 f   libcpmt:xlock.obj
 0001:00018ea2       ??0exception@std@@QAE@ABV01@@Z 10019ea2 f i libcpmt:xonce.obj
 0001:00018ece       ??0exception@std@@QAE@QBD@Z 10019ece f i libcpmt:xonce.obj
 0001:00018f03       ??_Glogic_error@std@@UAEPAXI@Z 10019f03 f i libcpmt:xthrow.obj
 0001:00018f03       ??_Ebad_array_new_length@std@@UAEPAXI@Z 10019f03 f i LIBCMT:throw_bad_alloc.obj
 0001:00018f03       ??_Ebad_alloc@std@@UAEPAXI@Z 10019f03 f i libcpmt:xthrow.obj
 0001:00018f03       ??_Elength_error@std@@UAEPAXI@Z 10019f03 f i libcpmt:xthrow.obj
 0001:00018f03       ??_Eexception@std@@UAEPAXI@Z 10019f03 f i libcpmt:xonce.obj
 0001:00018f03       ??_Gbad_alloc@std@@UAEPAXI@Z 10019f03 f i libcpmt:xthrow.obj
 0001:00018f03       ??_Gbad_array_new_length@std@@UAEPAXI@Z 10019f03 f i LIBCMT:throw_bad_alloc.obj
 0001:00018f03       ??_Gout_of_range@std@@UAEPAXI@Z 10019f03 f i libcpmt:xthrow.obj
 0001:00018f03       ??_Eout_of_range@std@@UAEPAXI@Z 10019f03 f i libcpmt:xthrow.obj
 0001:00018f03       ??_Ebad_exception@std@@UAEPAXI@Z 10019f03 f i libvcruntime:frame.obj
 0001:00018f03       ??_Elogic_error@std@@UAEPAXI@Z 10019f03 f i libcpmt:xthrow.obj
 0001:00018f03       ??_Gexception@std@@UAEPAXI@Z 10019f03 f i libcpmt:xonce.obj
 0001:00018f03       ??_Gbad_exception@std@@UAEPAXI@Z 10019f03 f i libvcruntime:frame.obj
 0001:00018f03       ??_Glength_error@std@@UAEPAXI@Z 10019f03 f i libcpmt:xthrow.obj
 0001:00018f30       ?_Execute_once@std@@YAHAAUonce_flag@1@P6GHPAX1PAPAX@Z1@Z 10019f30 f   libcpmt:xonce.obj
 0001:00018f48       ?what@exception@std@@UBEPBDXZ 10019f48 f i libcpmt:xonce.obj
 0001:00018f55       ??0_Locimp@locale@std@@AAE@_N@Z 10019f55 f i libcpmt:locale0.obj
 0001:00018f96       ??1_Fac_node@std@@QAE@XZ   10019f96 f i libcpmt:locale0.obj
 0001:00018ff8       ??1_Fac_tidy_reg_t@std@@QAE@XZ 10019ff8 f i libcpmt:locale0.obj
 0001:0001901f       ??1_Locimp@locale@std@@MAE@XZ 1001a01f f i libcpmt:locale0.obj
 0001:00019078       ??4?$_Yarn@D@std@@QAEAAV01@PBD@Z 1001a078 f i libcpmt:locale0.obj
 0001:000190cc       ??_G_Locimp@locale@std@@MAEPAXI@Z 1001a0cc f i libcpmt:locale0.obj
 0001:000190cc       ??_E_Locimp@locale@std@@MAEPAXI@Z 1001a0cc f i libcpmt:locale0.obj
 0001:000190ee       ?_Facet_Register@std@@YAXPAV_Facet_base@1@@Z 1001a0ee f   libcpmt:locale0.obj
 0001:0001911a       ?_Getgloballocale@locale@std@@CAPAV_Locimp@12@XZ 1001a11a f   libcpmt:locale0.obj
 0001:00019120       ?_Init@locale@std@@CAPAV_Locimp@12@_N@Z 1001a120 f   libcpmt:locale0.obj
 0001:000191b0       ?_Locimp_dtor@_Locimp@locale@std@@CAXPAV123@@Z 1001a1b0 f   libcpmt:locale0.obj
 0001:00019227       ?_Locinfo_ctor@_Locinfo@std@@SAXPAV12@PBD@Z 1001a227 f   libcpmt:locale0.obj
 0001:00019272       ?_Locinfo_dtor@_Locinfo@std@@SAXPAV12@@Z 1001a272 f   libcpmt:locale0.obj
 0001:0001928c       ?_New_Locimp@_Locimp@locale@std@@CAPAV123@_N@Z 1001a28c f   libcpmt:locale0.obj
 0001:000192af       ?_Setgloballocale@locale@std@@CAXPAX@Z 1001a2af f   libcpmt:locale0.obj
 0001:000192d7       __Deletegloballocale       1001a2d7 f   libcpmt:locale0.obj
 0001:0001933c       ??0bad_alloc@std@@QAE@ABV01@@Z 1001a33c f i libcpmt:xthrow.obj
 0001:00019357       ??0bad_alloc@std@@QAE@XZ   1001a357 f i libcpmt:xthrow.obj
 0001:0001936f       ??0length_error@std@@QAE@ABV01@@Z 1001a36f f i libcpmt:xthrow.obj
 0001:0001938a       ??0length_error@std@@QAE@PBD@Z 1001a38a f i libcpmt:xthrow.obj
 0001:000193a9       ??0logic_error@std@@QAE@ABV01@@Z 1001a3a9 f i libcpmt:xthrow.obj
 0001:000193c4       ??0out_of_range@std@@QAE@ABV01@@Z 1001a3c4 f i libcpmt:xthrow.obj
 0001:000193df       ??0out_of_range@std@@QAE@PBD@Z 1001a3df f i libcpmt:xthrow.obj
 0001:000193fe       ??1bad_array_new_length@std@@UAE@XZ 1001a3fe f i LIBCMT:throw_bad_alloc.obj
 0001:000193fe       ??1out_of_range@std@@UAE@XZ 1001a3fe f i libcpmt:xthrow.obj
 0001:000193fe       ??1bad_exception@std@@UAE@XZ 1001a3fe f i libvcruntime:frame.obj
 0001:000193fe       ??1length_error@std@@UAE@XZ 1001a3fe f i libcpmt:xthrow.obj
 0001:000193fe       ??1bad_alloc@std@@UAE@XZ   1001a3fe f i libcpmt:xthrow.obj
 0001:0001940f       ?__scrt_throw_std_bad_alloc@@YAXXZ 1001a40f f   LIBCMT:throw_bad_alloc.obj
 0001:0001940f       ?_Xbad_alloc@std@@YAXXZ    1001a40f f   libcpmt:xthrow.obj
 0001:0001942c       ?_Xlength_error@std@@YAXPBD@Z 1001a42c f   libcpmt:xthrow.obj
 0001:0001944c       ?_Xout_of_range@std@@YAXPBD@Z 1001a44c f   libcpmt:xthrow.obj
 0001:0001946c       ?_Callfns@ios_base@std@@AAEXW4event@12@@Z 1001a46c f i libcpmt:ios.obj
 0001:0001949f       ?_Ios_base_dtor@ios_base@std@@CAXPAV12@@Z 1001a49f f   libcpmt:ios.obj
 0001:000194df       ?_Tidy@ios_base@std@@AAEXXZ 1001a4df f i libcpmt:ios.obj
 0001:00019527       ?_Syserror_map@std@@YAPBDH@Z 1001a527 f   libcpmt:syserror.obj
 0001:0001954c       __Getctype                 1001a54c f   libcpmt:_tolower.obj
 0001:000195b4       __Tolower                  1001a5b4 f   libcpmt:_tolower.obj
 0001:000196b2       __Getcvt                   1001a6b2 f   libcpmt:xwctomb.obj
 0001:00019725       __Toupper                  1001a725 f   libcpmt:_toupper.obj
 0001:00019823       __Mtxdst                   1001a823 f   libcpmt:xmtx.obj
 0001:00019831       __Mtxinit                  1001a831 f   libcpmt:xmtx.obj
 0001:00019848       __Mtxlock                  1001a848 f   libcpmt:xmtx.obj
 0001:00019856       __Mtxunlock                1001a856 f   libcpmt:xmtx.obj
 0001:00019c0e       ___crtInitOnceExecuteOnce  1001ac0e f   libcpmt:winapisupp.obj
 0001:00019c9c       ___crtInitializeCriticalSectionEx 1001ac9c f   libcpmt:winapisupp.obj
 0001:00019cd5       ??1_Init_atexit@@QAE@XZ    1001acd5 f i libcpmt:iosptrs.obj
 0001:00019d38       ?_Atexit@@YAXP6AXXZ@Z      1001ad38 f   libcpmt:iosptrs.obj
 0001:00019d66       ___crtLCMapStringA         1001ad66 f   libcpmt:StlLCMapStringA.obj
 0001:00019f3b       __freea_crt                1001af3b f i libcpmt:StlLCMapStringA.obj
 0001:00019f59       _GetTableIndexFromLocaleName 1001af59 f   libcpmt:winapinls.obj
 0001:00019fa7       ___crtDownlevelLocaleNameToLCID 1001afa7 f   libcpmt:winapinls.obj
 0001:00019fd3       ___crtLCMapStringEx        1001afd3 f   libcpmt:winapinls.obj
 0001:0001a02a       ___wcsnicmp_ascii          1001b02a f   libcpmt:winapinls.obj
 0001:0001a092       @__security_check_cookie@4 1001b092 f   LIBCMT:_secchk_.obj
 0001:0001a0a3       ??_V@YAXPAX@Z              1001b0a3 f   LIBCMT:delete_array.obj
 0001:0001a0a8       ??2@YAPAXI@Z               1001b0a8 f   LIBCMT:new_scalar.obj
 0001:0001a0d8       ??$__crt_fast_encode_pointer@PAX@@YAPAXQAX@Z 1001b0d8 f i libvcruntime:winapi_downlevel.obj
 0001:0001a0d8       ??$__crt_fast_encode_pointer@PAP6AXXZ@@YAPAP6AXXZQAP6AXXZ@Z 1001b0d8 f i LIBCMT:utility.obj
 0001:0001a139       ___scrt_acquire_startup_lock 1001b139 f   LIBCMT:utility.obj
 0001:0001a16b       ___scrt_dllmain_after_initialize_c 1001b16b f   LIBCMT:utility.obj
 0001:0001a196       ___scrt_dllmain_before_initialize_c 1001b196 f   LIBCMT:utility.obj
 0001:0001a1a4       ___scrt_dllmain_crt_thread_attach 1001b1a4 f   LIBCMT:utility.obj
 0001:0001a1c3       ___scrt_dllmain_crt_thread_detach 1001b1c3 f   LIBCMT:utility.obj
 0001:0001a1d0       ___scrt_dllmain_exception_filter 1001b1d0 f   LIBCMT:utility.obj
 0001:0001a204       ___scrt_dllmain_uninitialize_c 1001b204 f   LIBCMT:utility.obj
 0001:0001a227       ___scrt_dllmain_uninitialize_critical 1001b227 f   LIBCMT:utility.obj
 0001:0001a234       ___scrt_initialize_crt     1001b234 f   LIBCMT:utility.obj
 0001:0001a26d       ___scrt_initialize_onexit_tables 1001b26d f   LIBCMT:utility.obj
 0001:0001a312       ___scrt_is_nonwritable_in_current_image 1001b312 f   LIBCMT:utility.obj
 0001:0001a3a6       ___scrt_release_startup_lock 1001b3a6 f   LIBCMT:utility.obj
 0001:0001a3c3       ___scrt_uninitialize_crt   1001b3c3 f   LIBCMT:utility.obj
 0001:0001a3eb       __onexit                   1001b3eb f   LIBCMT:utility.obj
 0001:0001a426       _atexit                    1001b426 f   LIBCMT:utility.obj
 0001:0001a43b       ??3@YAXPAX@Z               1001b43b f   LIBCMT:delete_scalar.obj
 0001:0001a440       ??3@YAXPAXI@Z              1001b440 f   LIBCMT:delete_scalar_size.obj
 0001:0001a44e       ??_U@YAPAXI@Z              1001b44e f   LIBCMT:new_array.obj
 0001:0001a777       __DllMainCRTStartup@12     1001b777 f   LIBCMT:dll_dllmain.obj
 0001:0001a79a       __EH_epilog3               1001b79a f   LIBCMT:ehprolg3.obj
 0001:0001a7af       __EH_prolog3               1001b7af f   LIBCMT:ehprolg3.obj
 0001:0001a7e3       __EH_prolog3_catch         1001b7e3 f   LIBCMT:ehprolg3.obj
 0001:0001a81a       ??_Etype_info@@UAEPAXI@Z   1001b81a f i LIBCMT:std_type_info_static.obj
 0001:0001a81a       ??_Gtype_info@@UAEPAXI@Z   1001b81a f i LIBCMT:std_type_info_static.obj
 0001:0001a840       __alloca_probe_16          1001b840 f   LIBCMT:alloca16.obj
 0001:0001a856       __alloca_probe_8           1001b856     LIBCMT:alloca16.obj
 0001:0001a870       __allmul                   1001b870 f   LIBCMT:llmul.obj
 0001:0001a8b0       __aulldiv                  1001b8b0 f   LIBCMT:ulldiv.obj
 0001:0001a918       ___raise_securityfailure   1001b918 f   LIBCMT:gs_report.obj
 0001:0001a940       ___report_gsfailure        1001b940 f   LIBCMT:gs_report.obj
 0001:0001aa39       ___report_rangecheckfailure 1001ba39 f   LIBCMT:gs_report.obj
 0001:0001aa45       ___report_securityfailure  1001ba45 f   LIBCMT:gs_report.obj
 0001:0001ab13       ??0bad_array_new_length@std@@QAE@ABV01@@Z 1001bb13 f i LIBCMT:throw_bad_alloc.obj
 0001:0001ab2e       ??0bad_array_new_length@std@@QAE@XZ 1001bb2e f i LIBCMT:throw_bad_alloc.obj
 0001:0001ab46       ?__scrt_throw_std_bad_array_new_length@@YAXXZ 1001bb46 f   LIBCMT:throw_bad_alloc.obj
 0001:0001ab63       ___isa_available_init      1001bb63 f   LIBCMT:_cpu_disp_.obj
 0001:0001acfa       __get_startup_argv_mode    1001bcfa f   LIBCMT:argv_mode.obj
 0001:0001acfe       ___scrt_is_ucrt_dll_in_use 1001bcfe f   LIBCMT:ucrt_detection.obj
 0001:0001ad0a       ___scrt_fastfail           1001bd0a f   LIBCMT:utility_desktop.obj
 0001:0001ae24       __crt_debugger_hook        1001be24 f   LIBCMT:utility_desktop.obj
 0001:0001ae30       __SEH_prolog4              1001be30 f   LIBCMT:_sehprolg4_.obj
 0001:0001ae76       __SEH_epilog4              1001be76 f   LIBCMT:_sehprolg4_.obj
 0001:0001aed8       ___security_init_cookie    1001bed8 f   LIBCMT:gs_support.obj
 0001:0001af23       ?__scrt_initialize_type_info@@YAXXZ 1001bf23 f   LIBCMT:tncleanup.obj
 0001:0001af2f       ?__scrt_uninitialize_type_info@@YAXXZ 1001bf2f f   LIBCMT:tncleanup.obj
 0001:0001af3b       ___local_stdio_scanf_options 1001bf3b f i LIBCMT:default_local_stdio_options.obj
 0001:0001af41       ___scrt_initialize_default_local_stdio_options 1001bf41 f   LIBCMT:default_local_stdio_options.obj
 0001:0001af5e       ___scrt_get_dyn_tls_init_callback 1001bf5e f   LIBCMT:dyn_tls_init.obj
 0001:0001af64       __RTC_Initialize           1001bf64 f   LIBCMT:_initsect_.obj
 0001:0001af90       __RTC_Terminate            1001bf90 f   LIBCMT:_initsect_.obj
 0001:0001afc0       __alloca_probe             1001bfc0 f   LIBCMT:chkstk.obj
 0001:0001afc0       __chkstk                   1001bfc0 f   LIBCMT:chkstk.obj
 0001:0001afed       __get_purecall_handler     1001bfed f   libvcruntime:purevirt.obj
 0001:0001b002       __purecall                 1001c002 f   libvcruntime:purevirt.obj
 0001:0001b01e       ___std_exception_copy      1001c01e f   libvcruntime:std_exception.obj
 0001:0001b081       ___std_exception_destroy   1001c081 f   libvcruntime:std_exception.obj
 0001:0001b0a0       __CxxThrowException@8      1001c0a0 f   libvcruntime:throw.obj
 0001:0001b10d       ?GetRangeOfTrysToCheck@__FrameHandler3@@SA?AU?$pair@Viterator@TryBlockMap@__FrameHandler3@@V123@@std@@AAVTryBlockMap@1@HH@Z 1001c10d f   libvcruntime:trnsctrl.obj
 0001:0001b18f       ?_CallCatchBlock2@@YAPAXPAUEHRegistrationNode@@PBU_s_FuncInfo@@PAXHK@Z 1001c18f f   libvcruntime:trnsctrl.obj
 0001:0001b1ed       ?_CallSETranslator@@YAHPAUEHExceptionRecord@@PAUEHRegistrationNode@@PAX2PBU_s_FuncInfo@@H1@Z 1001c1ed f   libvcruntime:trnsctrl.obj
 0001:0001b2c8       ?_JumpToContinuation@@YGXPAXPAUEHRegistrationNode@@@Z 1001c2c8 f   libvcruntime:trnsctrl.obj
 0001:0001b2f8       ?_UnwindNestedFrames@@YGXPAUEHRegistrationNode@@PAUEHExceptionRecord@@@Z 1001c2f8 f   libvcruntime:trnsctrl.obj
 0001:0001b34b       __CatchGuardHandler        1001c34b f   libvcruntime:trnsctrl.obj
 0001:0001b37c       __CreateFrameInfo          1001c37c f   libvcruntime:trnsctrl.obj
 0001:0001b3a0       __FindAndUnlinkFrame       1001c3a0 f   libvcruntime:trnsctrl.obj
 0001:0001b3e5       __TranslatorGuardHandler   1001c3e5 f   libvcruntime:trnsctrl.obj
 0001:0001b482       ___CxxFrameHandler3        1001c482 f   libvcruntime:trnsctrl.obj
 0001:0001b4c0       _memcpy                    1001c4c0 f   libvcruntime:memcpy.obj
 0001:0001ba40       _memmove                   1001ca40 f   libvcruntime:memmove.obj
 0001:0001bfc0       _memset                    1001cfc0 f   libvcruntime:memset.obj
 0001:0001c11a       ___DestructExceptionObject 1001d11a f   libvcruntime:ehhelpers.obj
 0001:0001c1ba       ?_CallMemberFunction0@@YGXQAX0@Z 1001d1ba f i libvcruntime:ehhelpers.obj
 0001:0001c1c7       __IsExceptionObjectToBeDestroyed 1001d1c7 f   libvcruntime:ehhelpers.obj
 0001:0001c1ed       ___AdjustPointer           1001d1ed f   libvcruntime:ehhelpers.obj
 0001:0001c212       ___FrameUnwindFilter       1001d212 f   libvcruntime:ehhelpers.obj
 0001:0001c260       _memchr                    1001d260 f   libvcruntime:memchr.obj
 0001:0001c30d       _memcmp                    1001d30d f   libvcruntime:_memcmp_.obj
 0001:0001d2b1       ___vcrt_initialize         1001e2b1 f   libvcruntime:initialization.obj
 0001:0001d2da       ___vcrt_thread_attach      1001e2da f   libvcruntime:initialization.obj
 0001:0001d2e5       ___vcrt_thread_detach      1001e2e5 f   libvcruntime:initialization.obj
 0001:0001d2f0       ___vcrt_uninitialize       1001e2f0 f   libvcruntime:initialization.obj
 0001:0001d30f       ___vcrt_uninitialize_critical 1001e30f f   libvcruntime:initialization.obj
 0001:0001d360       __except_handler4          1001e360 f   libvcruntime:_chandler4_.obj
 0001:0001d4b7       ___std_type_info_compare   1001e4b7 f   libvcruntime:std_type_info.obj
 0001:0001d4f3       ___std_type_info_destroy_list 1001e4f3 f   libvcruntime:std_type_info.obj
 0001:0001d516       ___vcrt_initialize_pure_virtual_call_handler 1001e516 f   libvcruntime:purevirt_data.obj
 0001:0001d521       ___vcrt_freefls@4          1001e521 f   libvcruntime:per_thread_data.obj
 0001:0001d53d       ___vcrt_freeptd            1001e53d f   libvcruntime:per_thread_data.obj
 0001:0001d573       ___vcrt_getptd             1001e573 f   libvcruntime:per_thread_data.obj
 0001:0001d581       ___vcrt_getptd_noexit      1001e581 f   libvcruntime:per_thread_data.obj
 0001:0001d613       ___vcrt_initialize_ptd     1001e613 f   libvcruntime:per_thread_data.obj
 0001:0001d646       ___vcrt_uninitialize_ptd   1001e646 f   libvcruntime:per_thread_data.obj
 0001:0001dd58       ??$TypeMatchHelper@$$CBU_s_HandlerType@@@@YAHPBU_s_HandlerType@@PBU_s_CatchableType@@PBU_s_ThrowInfo@@@Z 1001ed58 f i libvcruntime:frame.obj
 0001:0001dde6       ??$__InternalCxxFrameHandler@V__FrameHandler3@@@@YA?AW4_EXCEPTION_DISPOSITION@@PAUEHExceptionRecord@@PAUEHRegistrationNode@@PAU_CONTEXT@@PAXPBU_s_FuncInfo@@H1E@Z 1001ede6 f i libvcruntime:frame.obj
 0001:0001dee8       ??0bad_exception@std@@QAE@ABV01@@Z 1001eee8 f i libvcruntime:frame.obj
 0001:0001df03       ??0bad_exception@std@@QAE@XZ 1001ef03 f i libvcruntime:frame.obj
 0001:0001df1b       ??8type_info@@QBE_NABV0@@Z 1001ef1b f i libvcruntime:frame.obj
 0001:0001e182       ?FrameUnwindToEmptyState@__FrameHandler3@@SAXPAUEHRegistrationNode@@PAXPBU_s_FuncInfo@@@Z 1001f182 f   libvcruntime:frame.obj
 0001:0001e19a       ?FrameUnwindToState@__FrameHandler3@@SAXPAUEHRegistrationNode@@PAXPBU_s_FuncInfo@@H@Z 1001f19a f   libvcruntime:frame.obj
 0001:0001e31c       ?_CallMemberFunction1@@YGXQAX00@Z 1001f31c f i libvcruntime:frame.obj
 0001:0001e32c       ?_CallMemberFunction2@@YGXQAX00H@Z 1001f32c f i libvcruntime:frame.obj
 0001:0001e33f       ?getESTypes@__FrameHandler3@@SAPBU_s_ESTypeList@@PBU_s_FuncInfo@@@Z 1001f33f f i libvcruntime:frame.obj
 0001:0001e350       __CallSettingFrame@12      1001f350 f   libvcruntime:lowhelpr.obj
 0001:0001e377       __NLG_Return               1001f377     libvcruntime:lowhelpr.obj
 0001:0001e39c       ___except_validate_context_record 1001f39c f   libvcruntime:jbcxrval.obj
 0001:0001e3cc       ___except_validate_jump_buffer 1001f3cc f   libvcruntime:jbcxrval.obj
 0001:0001e3f9       ___vcrt_initialize_locks   1001f3f9 f   libvcruntime:locks.obj
 0001:0001e435       ___vcrt_uninitialize_locks 1001f435 f   libvcruntime:locks.obj
 0001:0001e597       ___vcrt_FlsAlloc           1001f597 f   libvcruntime:winapi_downlevel.obj
 0001:0001e5d2       ___vcrt_FlsFree            1001f5d2 f   libvcruntime:winapi_downlevel.obj
 0001:0001e60d       ___vcrt_FlsGetValue        1001f60d f   libvcruntime:winapi_downlevel.obj
 0001:0001e648       ___vcrt_FlsSetValue        1001f648 f   libvcruntime:winapi_downlevel.obj
 0001:0001e686       ___vcrt_InitializeCriticalSectionEx 1001f686 f   libvcruntime:winapi_downlevel.obj
 0001:0001e6cd       ___vcrt_initialize_winapi_thunks 1001f6cd f   libvcruntime:winapi_downlevel.obj
 0001:0001e6f6       ___vcrt_uninitialize_winapi_thunks 1001f6f6 f   libvcruntime:winapi_downlevel.obj
 0001:0001e730       __local_unwind4            1001f730 f   libvcruntime:_exsup4_.obj
 0001:0001e808       __seh_longjmp_unwind4@4    1001f808 f   libvcruntime:_exsup4_.obj
 0001:0001e830       @_EH4_CallFilterFunc@8     1001f830 f   libvcruntime:_exsup4_.obj
 0001:0001e848       @_EH4_TransferToHandler@8  1001f848 f   libvcruntime:_exsup4_.obj
 0001:0001e864       @_EH4_GlobalUnwind2@8      1001f864 f   libvcruntime:_exsup4_.obj
 0001:0001e880       @_EH4_LocalUnwind@16       1001f880 f   libvcruntime:_exsup4_.obj
 0001:0001e897       _unexpected                1001f897 f   libvcruntime:unexpected.obj
 0001:0001e8b4       ?GetCurrentState@__FrameHandler3@@SAHPAUEHRegistrationNode@@PAXPBU_s_FuncInfo@@@Z 1001f8b4 f   libvcruntime:ehstate.obj
 0001:0001e8d1       ?SetState@__FrameHandler3@@SAXPAUEHRegistrationNode@@PBU_s_FuncInfo@@H@Z 1001f8d1 f   libvcruntime:ehstate.obj
 0001:0001e8e0       __global_unwind2           1001f8e0 f   libvcruntime:_exsup_.obj
 0001:0001e946       __local_unwind2            1001f946 f   libvcruntime:_exsup_.obj
 0001:0001e9ca       __abnormal_termination     1001f9ca f   libvcruntime:_exsup_.obj
 0001:0001e9f0       __NLG_Notify1              1001f9f0 f   libvcruntime:_exsup_.obj
 0001:0001e9fc       __NLG_Notify               1001f9fc f   libvcruntime:_exsup_.obj
 0001:0001ea13       __NLG_Dispatch2            1001fa13     libvcruntime:_exsup_.obj
 0001:0001ea13       __NLG_Dispatch             1001fa13     libvcruntime:_exsup_.obj
 0001:0001ea1b       __NLG_Call                 1001fa1b f   libvcruntime:_exsup_.obj
 0001:0001ea1d       __NLG_Return2              1001fa1d     libvcruntime:_exsup_.obj
 0001:0001ea1e       _abort                     1001fa1e f   libucrt:abort.obj
 0001:0001ea61       _calloc                    1001fa61 f   libucrt:calloc.obj
 0001:0001ea6c       ___acrt_initialize_stdio   1001fa6c f   libucrt:_file.obj
 0001:0001eb34       ___acrt_iob_func           1001fb34 f   libucrt:_file.obj
 0001:0001eb44       ___acrt_uninitialize_stdio 1001fb44 f   libucrt:_file.obj
 0001:0001eb90       __lock_file                1001fb90 f   libucrt:_file.obj
 0001:0001eba4       __unlock_file              1001fba4 f   libucrt:_file.obj
 0001:0001ebb8       ___acrt_call_reportfault   1001fbb8 f   libucrt:invalid_parameter.obj
 0001:0001ecf3       ___acrt_initialize_invalid_parameter_handler 1001fcf3 f   libucrt:invalid_parameter.obj
 0001:0001ed02       __invalid_parameter        1001fd02 f   libucrt:invalid_parameter.obj
 0001:0001ed7d       __invalid_parameter_noinfo 1001fd7d f   libucrt:invalid_parameter.obj
 0001:0001ed8d       __invalid_parameter_noinfo_noreturn 1001fd8d f   libucrt:invalid_parameter.obj
 0001:0001edaa       __invoke_watson            1001fdaa f   libucrt:invalid_parameter.obj
 0001:0001ede0       _strcspn                   1001fde0 f   libucrt:strcspn.obj
 0001:0001ee26       ??$?RV<lambda_75d23329f2fb3d02b2e1cf5509bb1caf>@@AAV<lambda_c4f131f91cb4ec00a5b0a26aa161b8b4>@@V<lambda_114dc79c86b00c313cb0b6b3b001aaf8>@@@?$__crt_seh_guarded_call@H@@QAEH$$QAV<lambda_75d23329f2fb3d02b2e1cf5509bb1caf>@@AAV<lambda_c4f131f91cb4ec00a5b0a26aa161b8b4>@@$$QAV<lambda_114dc79c86b00c313cb0b6b3b001aaf8>@@@Z 1001fe26 f i libucrt:output.obj
 0001:0001ee77       ??$?RV<lambda_80d7abc6eae2375db70be92ccaaf9b57>@@AAV<lambda_df52180bf14694d51fdefd82613e8f07>@@V<lambda_4fa1155033dff2042363dba4e2dc3802>@@@?$__crt_seh_guarded_call@H@@QAEH$$QAV<lambda_80d7abc6eae2375db70be92ccaaf9b57>@@AAV<lambda_df52180bf14694d51fdefd82613e8f07>@@$$QAV<lambda_4fa1155033dff2042363dba4e2dc3802>@@@Z 1001fe77 f i libucrt:output.obj
 0001:0001eec8       ??$__acrt_lock_stream_and_call@V<lambda_c4f131f91cb4ec00a5b0a26aa161b8b4>@@@@YAHQAU_iobuf@@$$QAV<lambda_c4f131f91cb4ec00a5b0a26aa161b8b4>@@@Z 1001fec8 f i libucrt:output.obj
 0001:0001eef0       ??$__acrt_lock_stream_and_call@V<lambda_df52180bf14694d51fdefd82613e8f07>@@@@YAHQAU_iobuf@@$$QAV<lambda_df52180bf14694d51fdefd82613e8f07>@@@Z 1001fef0 f i libucrt:output.obj
 0001:0001f299       ??$count@D@formatting_buffer@__crt_stdio_output@@QBEIXZ 10020299 f i libucrt:output.obj
 0001:0001f2b1       ??$count@_W@formatting_buffer@__crt_stdio_output@@QBEIXZ 100202b1 f i libucrt:output.obj
 0001:0001f2ca       ??$ensure_buffer_is_big_enough@D@formatting_buffer@__crt_stdio_output@@QAE_NI@Z 100202ca f i libucrt:output.obj
 0001:0001f350       ??$is_wide_character_specifier@D@__crt_stdio_output@@YA_N_KDW4length_modifier@0@@Z 10020350 f i libucrt:output.obj
 0001:0001f390       ??$is_wide_character_specifier@_W@__crt_stdio_output@@YA_N_K_WW4length_modifier@0@@Z 10020390 f i libucrt:output.obj
 0001:0001f3df       ??$scratch_data@D@formatting_buffer@__crt_stdio_output@@QAEPADXZ 100203df f i libucrt:output.obj
 0001:0001f3fd       ??$type_case_integer_parse_into_buffer@I@?$output_processor@DV?$string_output_adapter@D@__crt_stdio_output@@V?$format_validation_base@DV?$string_output_adapter@D@__crt_stdio_output@@@2@@__crt_stdio_output@@AAEXII_N@Z 100203fd f i libucrt:output.obj
 0001:0001f3fd       ??$type_case_integer_parse_into_buffer@I@?$output_processor@DV?$stream_output_adapter@D@__crt_stdio_output@@V?$standard_base@DV?$stream_output_adapter@D@__crt_stdio_output@@@2@@__crt_stdio_output@@AAEXII_N@Z 100203fd f i libucrt:output.obj
 0001:0001f46f       ??$type_case_integer_parse_into_buffer@I@?$output_processor@_WV?$string_output_adapter@_W@__crt_stdio_output@@V?$standard_base@_WV?$string_output_adapter@_W@__crt_stdio_output@@@2@@__crt_stdio_output@@AAEXII_N@Z 1002046f f i libucrt:output.obj
 0001:0001f46f       ??$type_case_integer_parse_into_buffer@I@?$output_processor@_WV?$stream_output_adapter@_W@__crt_stdio_output@@V?$standard_base@_WV?$stream_output_adapter@_W@__crt_stdio_output@@@2@@__crt_stdio_output@@AAEXII_N@Z 1002046f f i libucrt:output.obj
 0001:0001f4f5       ??$type_case_integer_parse_into_buffer@_K@?$output_processor@DV?$string_output_adapter@D@__crt_stdio_output@@V?$format_validation_base@DV?$string_output_adapter@D@__crt_stdio_output@@@2@@__crt_stdio_output@@AAEX_KI_N@Z 100204f5 f i libucrt:output.obj
 0001:0001f4f5       ??$type_case_integer_parse_into_buffer@_K@?$output_processor@DV?$stream_output_adapter@D@__crt_stdio_output@@V?$standard_base@DV?$stream_output_adapter@D@__crt_stdio_output@@@2@@__crt_stdio_output@@AAEX_KI_N@Z 100204f5 f i libucrt:output.obj
 0001:0001f57c       ??$type_case_integer_parse_into_buffer@_K@?$output_processor@_WV?$stream_output_adapter@_W@__crt_stdio_output@@V?$standard_base@_WV?$stream_output_adapter@_W@__crt_stdio_output@@@2@@__crt_stdio_output@@AAEX_KI_N@Z 1002057c f i libucrt:output.obj
 0001:0001f57c       ??$type_case_integer_parse_into_buffer@_K@?$output_processor@_WV?$string_output_adapter@_W@__crt_stdio_output@@V?$standard_base@_WV?$string_output_adapter@_W@__crt_stdio_output@@@2@@__crt_stdio_output@@AAEX_KI_N@Z 1002057c f i libucrt:output.obj
 0001:0001f617       ??$write_multiple_characters@V?$stream_output_adapter@D@__crt_stdio_output@@D@__crt_stdio_output@@YAXABV?$stream_output_adapter@D@0@DHQAH@Z 10020617 f i libucrt:output.obj
 0001:0001f643       ??$write_multiple_characters@V?$stream_output_adapter@_W@__crt_stdio_output@@D@__crt_stdio_output@@YAXABV?$stream_output_adapter@_W@0@DHQAH@Z 10020643 f i libucrt:output.obj
 0001:0001f674       ??$write_multiple_characters@V?$string_output_adapter@D@__crt_stdio_output@@D@__crt_stdio_output@@YAXABV?$string_output_adapter@D@0@DHQAH@Z 10020674 f i libucrt:output.obj
 0001:0001f6a0       ??$write_multiple_characters@V?$string_output_adapter@_W@__crt_stdio_output@@D@__crt_stdio_output@@YAXABV?$string_output_adapter@_W@0@DHQAH@Z 100206a0 f i libucrt:output.obj
 0001:0001f6d1       ??0?$common_data@D@__crt_stdio_output@@IAE@XZ 100206d1 f i libucrt:output.obj
 0001:0001f718       ??0?$common_data@_W@__crt_stdio_output@@IAE@XZ 10020718 f i libucrt:output.obj
 0001:0001f764       ??0?$output_adapter_data@DV?$string_output_adapter@D@__crt_stdio_output@@@__crt_stdio_output@@IAE@ABV?$string_output_adapter@D@1@_KQBDQAU__crt_locale_pointers@@QAD@Z 10020764 f i libucrt:output.obj
 0001:0001f764       ??0?$output_adapter_data@DV?$stream_output_adapter@D@__crt_stdio_output@@@__crt_stdio_output@@IAE@ABV?$stream_output_adapter@D@1@_KQBDQAU__crt_locale_pointers@@QAD@Z 10020764 f i libucrt:output.obj
 0001:0001f7a0       ??0?$output_adapter_data@_WV?$string_output_adapter@_W@__crt_stdio_output@@@__crt_stdio_output@@IAE@ABV?$string_output_adapter@_W@1@_KQB_WQAU__crt_locale_pointers@@QAD@Z 100207a0 f i libucrt:output.obj
 0001:0001f7a0       ??0?$output_adapter_data@_WV?$stream_output_adapter@_W@__crt_stdio_output@@@__crt_stdio_output@@IAE@ABV?$stream_output_adapter@_W@1@_KQB_WQAU__crt_locale_pointers@@QAD@Z 100207a0 f i libucrt:output.obj
 0001:0001f7dc       ??0_LocaleUpdate@@QAE@QAU__crt_locale_pointers@@@Z 100207dc f i libucrt:output.obj
 0001:0001f85f       ??1formatting_buffer@__crt_stdio_output@@QAE@XZ 1002085f f i libucrt:output.obj
 0001:0001f879       ??4?$__crt_unique_heap_ptr@DU__crt_internal_free_policy@@@@QAEAAV0@$$QAV0@@Z 10020879 f i libucrt:output.obj
 0001:0001fa1f       ?crop_zeroes@__crt_stdio_output@@YAXPADQAU__crt_locale_pointers@@@Z 10020a1f f i libucrt:output.obj
 0001:0001fa76       ?find_next_state@?$output_processor@DV?$stream_output_adapter@D@__crt_stdio_output@@V?$standard_base@DV?$stream_output_adapter@D@__crt_stdio_output@@@2@@__crt_stdio_output@@ABE?AW4state@2@DW432@@Z 10020a76 f i libucrt:output.obj
 0001:0001faa8       ?find_next_state@?$output_processor@DV?$string_output_adapter@D@__crt_stdio_output@@V?$format_validation_base@DV?$string_output_adapter@D@__crt_stdio_output@@@2@@__crt_stdio_output@@ABE?AW4state@2@DW432@@Z 10020aa8 f i libucrt:output.obj
 0001:0001fadd       ?find_next_state@?$output_processor@_WV?$string_output_adapter@_W@__crt_stdio_output@@V?$standard_base@_WV?$string_output_adapter@_W@__crt_stdio_output@@@2@@__crt_stdio_output@@ABE?AW4state@2@_WW432@@Z 10020add f i libucrt:output.obj
 0001:0001fadd       ?find_next_state@?$output_processor@_WV?$stream_output_adapter@_W@__crt_stdio_output@@V?$standard_base@_WV?$stream_output_adapter@_W@__crt_stdio_output@@@2@@__crt_stdio_output@@ABE?AW4state@2@_WW432@@Z 10020add f i libucrt:output.obj
 0001:0001fb11       ?force_decimal_point@__crt_stdio_output@@YAXPADQAU__crt_locale_pointers@@@Z 10020b11 f i libucrt:output.obj
 0001:0001fb6d       ?parse_int_from_format_string@?$output_processor@DV?$stream_output_adapter@D@__crt_stdio_output@@V?$standard_base@DV?$stream_output_adapter@D@__crt_stdio_output@@@2@@__crt_stdio_output@@AAE_NQAH@Z 10020b6d f i libucrt:output.obj
 0001:0001fb6d       ?parse_int_from_format_string@?$output_processor@DV?$string_output_adapter@D@__crt_stdio_output@@V?$format_validation_base@DV?$string_output_adapter@D@__crt_stdio_output@@@2@@__crt_stdio_output@@AAE_NQAH@Z 10020b6d f i libucrt:output.obj
 0001:0001fbe5       ?parse_int_from_format_string@?$output_processor@_WV?$stream_output_adapter@_W@__crt_stdio_output@@V?$standard_base@_WV?$stream_output_adapter@_W@__crt_stdio_output@@@2@@__crt_stdio_output@@AAE_NQAH@Z 10020be5 f i libucrt:output.obj
 0001:0001fbe5       ?parse_int_from_format_string@?$output_processor@_WV?$string_output_adapter@_W@__crt_stdio_output@@V?$standard_base@_WV?$string_output_adapter@_W@__crt_stdio_output@@@2@@__crt_stdio_output@@AAE_NQAH@Z 10020be5 f i libucrt:output.obj
 0001:0001fc5f       ?process@?$output_processor@DV?$stream_output_adapter@D@__crt_stdio_output@@V?$standard_base@DV?$stream_output_adapter@D@__crt_stdio_output@@@2@@__crt_stdio_output@@QAEHXZ 10020c5f f i libucrt:output.obj
 0001:0001fd7b       ?process@?$output_processor@DV?$string_output_adapter@D@__crt_stdio_output@@V?$format_validation_base@DV?$string_output_adapter@D@__crt_stdio_output@@@2@@__crt_stdio_output@@QAEHXZ 10020d7b f i libucrt:output.obj
 0001:0001fea3       ?process@?$output_processor@_WV?$stream_output_adapter@_W@__crt_stdio_output@@V?$standard_base@_WV?$stream_output_adapter@_W@__crt_stdio_output@@@2@@__crt_stdio_output@@QAEHXZ 10020ea3 f i libucrt:output.obj
 0001:0001ffc3       ?process@?$output_processor@_WV?$string_output_adapter@_W@__crt_stdio_output@@V?$standard_base@_WV?$string_output_adapter@_W@__crt_stdio_output@@@2@@__crt_stdio_output@@QAEHXZ 10020fc3 f i libucrt:output.obj
 0001:000200e3       ?state_case_flag@?$output_processor@DV?$string_output_adapter@D@__crt_stdio_output@@V?$format_validation_base@DV?$string_output_adapter@D@__crt_stdio_output@@@2@@__crt_stdio_output@@AAE_NXZ 100210e3 f i libucrt:output.obj
 0001:000200e3       ?state_case_flag@?$output_processor@DV?$stream_output_adapter@D@__crt_stdio_output@@V?$standard_base@DV?$stream_output_adapter@D@__crt_stdio_output@@@2@@__crt_stdio_output@@AAE_NXZ 100210e3 f i libucrt:output.obj
 0001:00020120       ?state_case_flag@?$output_processor@_WV?$string_output_adapter@_W@__crt_stdio_output@@V?$standard_base@_WV?$string_output_adapter@_W@__crt_stdio_output@@@2@@__crt_stdio_output@@AAE_NXZ 10021120 f i libucrt:output.obj
 0001:00020120       ?state_case_flag@?$output_processor@_WV?$stream_output_adapter@_W@__crt_stdio_output@@V?$standard_base@_WV?$stream_output_adapter@_W@__crt_stdio_output@@@2@@__crt_stdio_output@@AAE_NXZ 10021120 f i libucrt:output.obj
 0001:0002015d       ?state_case_normal@?$output_processor@DV?$stream_output_adapter@D@__crt_stdio_output@@V?$standard_base@DV?$stream_output_adapter@D@__crt_stdio_output@@@2@@__crt_stdio_output@@AAE_NXZ 1002115d f i libucrt:output.obj
 0001:0002017c       ?state_case_normal@?$output_processor@DV?$string_output_adapter@D@__crt_stdio_output@@V?$format_validation_base@DV?$string_output_adapter@D@__crt_stdio_output@@@2@@__crt_stdio_output@@AAE_NXZ 1002117c f i libucrt:output.obj
 0001:0002019b       ?state_case_normal@?$output_processor@_WV?$stream_output_adapter@_W@__crt_stdio_output@@V?$standard_base@_WV?$stream_output_adapter@_W@__crt_stdio_output@@@2@@__crt_stdio_output@@AAE_NXZ 1002119b f i libucrt:output.obj
 0001:000201ba       ?state_case_normal@?$output_processor@_WV?$string_output_adapter@_W@__crt_stdio_output@@V?$standard_base@_WV?$string_output_adapter@_W@__crt_stdio_output@@@2@@__crt_stdio_output@@AAE_NXZ 100211ba f i libucrt:output.obj
 0001:000201d9       ?state_case_normal_common@?$output_processor@DV?$stream_output_adapter@D@__crt_stdio_output@@V?$standard_base@DV?$stream_output_adapter@D@__crt_stdio_output@@@2@@__crt_stdio_output@@AAE_NXZ 100211d9 f i libucrt:output.obj
 0001:00020203       ?state_case_normal_common@?$output_processor@DV?$string_output_adapter@D@__crt_stdio_output@@V?$format_validation_base@DV?$string_output_adapter@D@__crt_stdio_output@@@2@@__crt_stdio_output@@AAE_NXZ 10021203 f i libucrt:output.obj
 0001:0002022d       ?state_case_normal_common@?$output_processor@_WV?$stream_output_adapter@_W@__crt_stdio_output@@V?$standard_base@_WV?$stream_output_adapter@_W@__crt_stdio_output@@@2@@__crt_stdio_output@@AAE_NXZ 1002122d f i libucrt:output.obj
 0001:00020248       ?state_case_normal_common@?$output_processor@_WV?$string_output_adapter@_W@__crt_stdio_output@@V?$standard_base@_WV?$string_output_adapter@_W@__crt_stdio_output@@@2@@__crt_stdio_output@@AAE_NXZ 10021248 f i libucrt:output.obj
 0001:00020263       ?state_case_normal_tchar@?$output_processor@DV?$stream_output_adapter@D@__crt_stdio_output@@V?$standard_base@DV?$stream_output_adapter@D@__crt_stdio_output@@@2@@__crt_stdio_output@@AAE_ND@Z 10021263 f i libucrt:output.obj
 0001:000202c4       ?state_case_normal_tchar@?$output_processor@DV?$string_output_adapter@D@__crt_stdio_output@@V?$format_validation_base@DV?$string_output_adapter@D@__crt_stdio_output@@@2@@__crt_stdio_output@@AAE_ND@Z 100212c4 f i libucrt:output.obj
 0001:00020325       ?state_case_precision@?$output_processor@DV?$stream_output_adapter@D@__crt_stdio_output@@V?$standard_base@DV?$stream_output_adapter@D@__crt_stdio_output@@@2@@__crt_stdio_output@@AAE_NXZ 10021325 f i libucrt:output.obj
 0001:00020325       ?state_case_precision@?$output_processor@DV?$string_output_adapter@D@__crt_stdio_output@@V?$format_validation_base@DV?$string_output_adapter@D@__crt_stdio_output@@@2@@__crt_stdio_output@@AAE_NXZ 10021325 f i libucrt:output.obj
 0001:0002034d       ?state_case_precision@?$output_processor@_WV?$stream_output_adapter@_W@__crt_stdio_output@@V?$standard_base@_WV?$stream_output_adapter@_W@__crt_stdio_output@@@2@@__crt_stdio_output@@AAE_NXZ 1002134d f i libucrt:output.obj
 0001:0002034d       ?state_case_precision@?$output_processor@_WV?$string_output_adapter@_W@__crt_stdio_output@@V?$standard_base@_WV?$string_output_adapter@_W@__crt_stdio_output@@@2@@__crt_stdio_output@@AAE_NXZ 1002134d f i libucrt:output.obj
 0001:00020376       ?state_case_size@?$output_processor@DV?$stream_output_adapter@D@__crt_stdio_output@@V?$standard_base@DV?$stream_output_adapter@D@__crt_stdio_output@@@2@@__crt_stdio_output@@AAE_NXZ 10021376 f i libucrt:output.obj
 0001:000204df       ?state_case_size@?$output_processor@DV?$string_output_adapter@D@__crt_stdio_output@@V?$format_validation_base@DV?$string_output_adapter@D@__crt_stdio_output@@@2@@__crt_stdio_output@@AAE_NXZ 100214df f i libucrt:output.obj
 0001:00020648       ?state_case_size@?$output_processor@_WV?$stream_output_adapter@_W@__crt_stdio_output@@V?$standard_base@_WV?$stream_output_adapter@_W@__crt_stdio_output@@@2@@__crt_stdio_output@@AAE_NXZ 10021648 f i libucrt:output.obj
 0001:000207c4       ?state_case_size@?$output_processor@_WV?$string_output_adapter@_W@__crt_stdio_output@@V?$standard_base@_WV?$string_output_adapter@_W@__crt_stdio_output@@@2@@__crt_stdio_output@@AAE_NXZ 100217c4 f i libucrt:output.obj
 0001:00020940       ?state_case_type@?$output_processor@DV?$stream_output_adapter@D@__crt_stdio_output@@V?$standard_base@DV?$stream_output_adapter@D@__crt_stdio_output@@@2@@__crt_stdio_output@@AAE_NXZ 10021940 f i libucrt:output.obj
 0001:00020b70       ?state_case_type@?$output_processor@DV?$string_output_adapter@D@__crt_stdio_output@@V?$format_validation_base@DV?$string_output_adapter@D@__crt_stdio_output@@@2@@__crt_stdio_output@@AAE_NXZ 10021b70 f i libucrt:output.obj
 0001:00020da0       ?state_case_type@?$output_processor@_WV?$stream_output_adapter@_W@__crt_stdio_output@@V?$standard_base@_WV?$stream_output_adapter@_W@__crt_stdio_output@@@2@@__crt_stdio_output@@AAE_NXZ 10021da0 f i libucrt:output.obj
 0001:00020ffe       ?state_case_type@?$output_processor@_WV?$string_output_adapter@_W@__crt_stdio_output@@V?$standard_base@_WV?$string_output_adapter@_W@__crt_stdio_output@@@2@@__crt_stdio_output@@AAE_NXZ 10021ffe f i libucrt:output.obj
 0001:0002125c       ?state_case_width@?$output_processor@DV?$stream_output_adapter@D@__crt_stdio_output@@V?$standard_base@DV?$stream_output_adapter@D@__crt_stdio_output@@@2@@__crt_stdio_output@@AAE_NXZ 1002225c f i libucrt:output.obj
 0001:0002125c       ?state_case_width@?$output_processor@DV?$string_output_adapter@D@__crt_stdio_output@@V?$format_validation_base@DV?$string_output_adapter@D@__crt_stdio_output@@@2@@__crt_stdio_output@@AAE_NXZ 1002225c f i libucrt:output.obj
 0001:00021287       ?state_case_width@?$output_processor@_WV?$string_output_adapter@_W@__crt_stdio_output@@V?$standard_base@_WV?$string_output_adapter@_W@__crt_stdio_output@@@2@@__crt_stdio_output@@AAE_NXZ 10022287 f i libucrt:output.obj
 0001:00021287       ?state_case_width@?$output_processor@_WV?$stream_output_adapter@_W@__crt_stdio_output@@V?$standard_base@_WV?$stream_output_adapter@_W@__crt_stdio_output@@@2@@__crt_stdio_output@@AAE_NXZ 10022287 f i libucrt:output.obj
 0001:000212b3       ?to_integer_size@__crt_stdio_output@@YAIW4length_modifier@1@@Z 100222b3 f i libucrt:output.obj
 0001:0002130f       ?type_case_Z@?$output_processor@DV?$stream_output_adapter@D@__crt_stdio_output@@V?$standard_base@DV?$stream_output_adapter@D@__crt_stdio_output@@@2@@__crt_stdio_output@@AAE_NXZ 1002230f f i libucrt:output.obj
 0001:0002130f       ?type_case_Z@?$output_processor@DV?$string_output_adapter@D@__crt_stdio_output@@V?$format_validation_base@DV?$string_output_adapter@D@__crt_stdio_output@@@2@@__crt_stdio_output@@AAE_NXZ 1002230f f i libucrt:output.obj
 0001:00021372       ?type_case_Z@?$output_processor@_WV?$stream_output_adapter@_W@__crt_stdio_output@@V?$standard_base@_WV?$stream_output_adapter@_W@__crt_stdio_output@@@2@@__crt_stdio_output@@AAE_NXZ 10022372 f i libucrt:output.obj
 0001:00021372       ?type_case_Z@?$output_processor@_WV?$string_output_adapter@_W@__crt_stdio_output@@V?$standard_base@_WV?$string_output_adapter@_W@__crt_stdio_output@@@2@@__crt_stdio_output@@AAE_NXZ 10022372 f i libucrt:output.obj
 0001:000213d5       ?type_case_a@?$output_processor@DV?$string_output_adapter@D@__crt_stdio_output@@V?$format_validation_base@DV?$string_output_adapter@D@__crt_stdio_output@@@2@@__crt_stdio_output@@AAE_NXZ 100223d5 f i libucrt:output.obj
 0001:000213d5       ?type_case_a@?$output_processor@DV?$stream_output_adapter@D@__crt_stdio_output@@V?$standard_base@DV?$stream_output_adapter@D@__crt_stdio_output@@@2@@__crt_stdio_output@@AAE_NXZ 100223d5 f i libucrt:output.obj
 0001:0002152f       ?type_case_a@?$output_processor@_WV?$string_output_adapter@_W@__crt_stdio_output@@V?$standard_base@_WV?$string_output_adapter@_W@__crt_stdio_output@@@2@@__crt_stdio_output@@AAE_NXZ 1002252f f i libucrt:output.obj
 0001:0002152f       ?type_case_a@?$output_processor@_WV?$stream_output_adapter@_W@__crt_stdio_output@@V?$standard_base@_WV?$stream_output_adapter@_W@__crt_stdio_output@@@2@@__crt_stdio_output@@AAE_NXZ 1002252f f i libucrt:output.obj
 0001:000216a1       ?type_case_c_tchar@?$output_processor@DV?$string_output_adapter@D@__crt_stdio_output@@V?$format_validation_base@DV?$string_output_adapter@D@__crt_stdio_output@@@2@@__crt_stdio_output@@AAE_ND@Z 100226a1 f i libucrt:output.obj
 0001:000216a1       ?type_case_c_tchar@?$output_processor@DV?$stream_output_adapter@D@__crt_stdio_output@@V?$standard_base@DV?$stream_output_adapter@D@__crt_stdio_output@@@2@@__crt_stdio_output@@AAE_ND@Z 100226a1 f i libucrt:output.obj
 0001:00021731       ?type_case_c_tchar@?$output_processor@_WV?$stream_output_adapter@_W@__crt_stdio_output@@V?$standard_base@_WV?$stream_output_adapter@_W@__crt_stdio_output@@@2@@__crt_stdio_output@@AAE_N_W@Z 10022731 f i libucrt:output.obj
 0001:00021731       ?type_case_c_tchar@?$output_processor@_WV?$string_output_adapter@_W@__crt_stdio_output@@V?$standard_base@_WV?$string_output_adapter@_W@__crt_stdio_output@@@2@@__crt_stdio_output@@AAE_N_W@Z 10022731 f i libucrt:output.obj
 0001:000217c9       ?type_case_integer@?$output_processor@DV?$stream_output_adapter@D@__crt_stdio_output@@V?$standard_base@DV?$stream_output_adapter@D@__crt_stdio_output@@@2@@__crt_stdio_output@@AAE_NI_N@Z 100227c9 f i libucrt:output.obj
 0001:000217c9       ?type_case_integer@?$output_processor@DV?$string_output_adapter@D@__crt_stdio_output@@V?$format_validation_base@DV?$string_output_adapter@D@__crt_stdio_output@@@2@@__crt_stdio_output@@AAE_NI_N@Z 100227c9 f i libucrt:output.obj
 0001:00021917       ?type_case_integer@?$output_processor@_WV?$stream_output_adapter@_W@__crt_stdio_output@@V?$standard_base@_WV?$stream_output_adapter@_W@__crt_stdio_output@@@2@@__crt_stdio_output@@AAE_NI_N@Z 10022917 f i libucrt:output.obj
 0001:00021917       ?type_case_integer@?$output_processor@_WV?$string_output_adapter@_W@__crt_stdio_output@@V?$standard_base@_WV?$string_output_adapter@_W@__crt_stdio_output@@@2@@__crt_stdio_output@@AAE_NI_N@Z 10022917 f i libucrt:output.obj
 0001:00021a69       ?type_case_n@?$output_processor@DV?$stream_output_adapter@D@__crt_stdio_output@@V?$standard_base@DV?$stream_output_adapter@D@__crt_stdio_output@@@2@@__crt_stdio_output@@AAE_NXZ 10022a69 f i libucrt:output.obj
 0001:00021a69       ?type_case_n@?$output_processor@_WV?$string_output_adapter@_W@__crt_stdio_output@@V?$standard_base@_WV?$string_output_adapter@_W@__crt_stdio_output@@@2@@__crt_stdio_output@@AAE_NXZ 10022a69 f i libucrt:output.obj
 0001:00021a69       ?type_case_n@?$output_processor@_WV?$stream_output_adapter@_W@__crt_stdio_output@@V?$standard_base@_WV?$stream_output_adapter@_W@__crt_stdio_output@@@2@@__crt_stdio_output@@AAE_NXZ 10022a69 f i libucrt:output.obj
 0001:00021a69       ?type_case_n@?$output_processor@DV?$string_output_adapter@D@__crt_stdio_output@@V?$format_validation_base@DV?$string_output_adapter@D@__crt_stdio_output@@@2@@__crt_stdio_output@@AAE_NXZ 10022a69 f i libucrt:output.obj
 0001:00021add       ?type_case_o@?$output_processor@DV?$stream_output_adapter@D@__crt_stdio_output@@V?$standard_base@DV?$stream_output_adapter@D@__crt_stdio_output@@@2@@__crt_stdio_output@@AAE_NXZ 10022add f i libucrt:output.obj
 0001:00021add       ?type_case_o@?$output_processor@DV?$string_output_adapter@D@__crt_stdio_output@@V?$format_validation_base@DV?$string_output_adapter@D@__crt_stdio_output@@@2@@__crt_stdio_output@@AAE_NXZ 10022add f i libucrt:output.obj
 0001:00021afc       ?type_case_o@?$output_processor@_WV?$stream_output_adapter@_W@__crt_stdio_output@@V?$standard_base@_WV?$stream_output_adapter@_W@__crt_stdio_output@@@2@@__crt_stdio_output@@AAE_NXZ 10022afc f i libucrt:output.obj
 0001:00021afc       ?type_case_o@?$output_processor@_WV?$string_output_adapter@_W@__crt_stdio_output@@V?$standard_base@_WV?$string_output_adapter@_W@__crt_stdio_output@@@2@@__crt_stdio_output@@AAE_NXZ 10022afc f i libucrt:output.obj
 0001:00021b1b       ?type_case_p@?$output_processor@DV?$string_output_adapter@D@__crt_stdio_output@@V?$format_validation_base@DV?$string_output_adapter@D@__crt_stdio_output@@@2@@__crt_stdio_output@@AAE_NXZ 10022b1b f i libucrt:output.obj
 0001:00021b1b       ?type_case_p@?$output_processor@DV?$stream_output_adapter@D@__crt_stdio_output@@V?$standard_base@DV?$stream_output_adapter@D@__crt_stdio_output@@@2@@__crt_stdio_output@@AAE_NXZ 10022b1b f i libucrt:output.obj
 0001:00021b33       ?type_case_p@?$output_processor@_WV?$string_output_adapter@_W@__crt_stdio_output@@V?$standard_base@_WV?$string_output_adapter@_W@__crt_stdio_output@@@2@@__crt_stdio_output@@AAE_NXZ 10022b33 f i libucrt:output.obj
 0001:00021b33       ?type_case_p@?$output_processor@_WV?$stream_output_adapter@_W@__crt_stdio_output@@V?$standard_base@_WV?$stream_output_adapter@_W@__crt_stdio_output@@@2@@__crt_stdio_output@@AAE_NXZ 10022b33 f i libucrt:output.obj
 0001:00021b4b       ?type_case_s@?$output_processor@DV?$string_output_adapter@D@__crt_stdio_output@@V?$format_validation_base@DV?$string_output_adapter@D@__crt_stdio_output@@@2@@__crt_stdio_output@@AAE_NXZ 10022b4b f i libucrt:output.obj
 0001:00021b4b       ?type_case_s@?$output_processor@DV?$stream_output_adapter@D@__crt_stdio_output@@V?$standard_base@DV?$stream_output_adapter@D@__crt_stdio_output@@@2@@__crt_stdio_output@@AAE_NXZ 10022b4b f i libucrt:output.obj
 0001:00021bbe       ?type_case_s@?$output_processor@_WV?$stream_output_adapter@_W@__crt_stdio_output@@V?$standard_base@_WV?$stream_output_adapter@_W@__crt_stdio_output@@@2@@__crt_stdio_output@@AAE_NXZ 10022bbe f i libucrt:output.obj
 0001:00021bbe       ?type_case_s@?$output_processor@_WV?$string_output_adapter@_W@__crt_stdio_output@@V?$standard_base@_WV?$string_output_adapter@_W@__crt_stdio_output@@@2@@__crt_stdio_output@@AAE_NXZ 10022bbe f i libucrt:output.obj
 0001:00021c32       ?type_case_s_compute_narrow_string_length@?$output_processor@_WV?$stream_output_adapter@_W@__crt_stdio_output@@V?$standard_base@_WV?$stream_output_adapter@_W@__crt_stdio_output@@@2@@__crt_stdio_output@@ABEHH_W@Z 10022c32 f i libucrt:output.obj
 0001:00021c32       ?type_case_s_compute_narrow_string_length@?$output_processor@_WV?$string_output_adapter@_W@__crt_stdio_output@@V?$standard_base@_WV?$string_output_adapter@_W@__crt_stdio_output@@@2@@__crt_stdio_output@@ABEHH_W@Z 10022c32 f i libucrt:output.obj
 0001:00021c72       ?validate@?$stream_output_adapter@D@__crt_stdio_output@@QBE_NXZ 10022c72 f i libucrt:output.obj
 0001:00021c93       ?validate@?$c_string_character_source@_W@__crt_strtox@@QBE_NXZ 10022c93 f i libucrt:strtod.obj
 0001:00021c93       ?validate@?$string_output_adapter@_W@__crt_stdio_output@@QBE_NXZ 10022c93 f i libucrt:output.obj
 0001:00021c93       ?validate@?$c_string_character_source@D@__crt_strtox@@QBE_NXZ 10022c93 f i libucrt:strtod.obj
 0001:00021c93       ?validate@?$stream_output_adapter@_W@__crt_stdio_output@@QBE_NXZ 10022c93 f i libucrt:output.obj
 0001:00021c93       ?validate@?$string_output_adapter@D@__crt_stdio_output@@QBE_NXZ 10022c93 f i libucrt:output.obj
 0001:00021cae       ?validate_and_update_state_at_end_of_format_string@?$format_validation_base@DV?$string_output_adapter@D@__crt_stdio_output@@@__crt_stdio_output@@IBE_NXZ 10022cae f i libucrt:output.obj
 0001:00021cd0       ?validate_stream_is_ansi_if_required@?$__acrt_stdio_char_traits@D@@SA_NQAU_iobuf@@@Z 10022cd0 f i libucrt:output.obj
 0001:00021d52       ?write_character@?$stream_output_adapter@D@__crt_stdio_output@@QBEXDQAH@Z 10022d52 f i libucrt:output.obj
 0001:00021d8f       ?write_character@?$stream_output_adapter@_W@__crt_stdio_output@@QBEX_WQAH@Z 10022d8f f i libucrt:output.obj
 0001:00021dcf       ?write_character@?$string_output_adapter@D@__crt_stdio_output@@QBE_NDQAH@Z 10022dcf f i libucrt:output.obj
 0001:00021e11       ?write_character@?$string_output_adapter@_W@__crt_stdio_output@@QBE_N_WQAH@Z 10022e11 f i libucrt:output.obj
 0001:00021e56       ?write_stored_string_tchar@?$output_processor@DV?$stream_output_adapter@D@__crt_stdio_output@@V?$standard_base@DV?$stream_output_adapter@D@__crt_stdio_output@@@2@@__crt_stdio_output@@AAE_ND@Z 10022e56 f i libucrt:output.obj
 0001:00021eff       ?write_stored_string_tchar@?$output_processor@DV?$string_output_adapter@D@__crt_stdio_output@@V?$format_validation_base@DV?$string_output_adapter@D@__crt_stdio_output@@@2@@__crt_stdio_output@@AAE_ND@Z 10022eff f i libucrt:output.obj
 0001:00021fa8       ?write_stored_string_tchar@?$output_processor@_WV?$stream_output_adapter@_W@__crt_stdio_output@@V?$standard_base@_WV?$stream_output_adapter@_W@__crt_stdio_output@@@2@@__crt_stdio_output@@AAE_N_W@Z 10022fa8 f i libucrt:output.obj
 0001:00022034       ?write_stored_string_tchar@?$output_processor@_WV?$string_output_adapter@_W@__crt_stdio_output@@V?$standard_base@_WV?$string_output_adapter@_W@__crt_stdio_output@@@2@@__crt_stdio_output@@AAE_N_W@Z 10023034 f i libucrt:output.obj
 0001:000220c0       ?write_string@?$stream_output_adapter@D@__crt_stdio_output@@QBEXQBDHQAHAAV__crt_deferred_errno_cache@@@Z 100230c0 f i libucrt:output.obj
 0001:00022176       ?write_string@?$stream_output_adapter@_W@__crt_stdio_output@@QBEXQB_WHQAHAAV__crt_deferred_errno_cache@@@Z 10023176 f i libucrt:output.obj
 0001:0002222f       ?write_string@?$string_output_adapter@D@__crt_stdio_output@@QBEXQBDHQAHAAV__crt_deferred_errno_cache@@@Z 1002322f f i libucrt:output.obj
 0001:00022296       ?write_string@?$string_output_adapter@_W@__crt_stdio_output@@QBEXQB_WHQAHAAV__crt_deferred_errno_cache@@@Z 10023296 f i libucrt:output.obj
 0001:00022309       ___stdio_common_vfprintf   10023309 f   libucrt:output.obj
 0001:00022380       ___stdio_common_vfwprintf  10023380 f   libucrt:output.obj
 0001:000223f7       ___stdio_common_vsprintf_s 100233f7 f   libucrt:output.obj
 0001:0002241b       ___stdio_common_vswprintf  1002341b f   libucrt:output.obj
 0001:0002243f       _localeconv                1002343f f   libucrt:localeconv.obj
 0001:00022469       _free                      10023469 f   libucrt:free.obj
 0001:00022486       _frexp                     10023486 f   libucrt:frexp.obj
 0001:00022be6       ??$ftprintf@PAU_iobuf@@PB_WABQB_WABQB_WABI@?$__crt_char_traits@_W@@SAH$$QAPAU_iobuf@@$$QAPB_WABQB_W2ABI@Z 10023be6 f i libucrt:assert.obj
 0001:00022cc5       __vfwprintf_l              10023cc5 f i libucrt:assert.obj
 0001:00022cea       __vswprintf_c_l            10023cea f i libucrt:assert.obj
 0001:00022d19       __wassert                  10023d19 f   libucrt:assert.obj
 0001:00022d61       _fwprintf                  10023d61 f i libucrt:assert.obj
 0001:00022dfd       _swprintf                  10023dfd f i libucrt:assert.obj
 0001:00022e1b       ___acrt_initialize_locks   10023e1b f   libucrt:locks.obj
 0001:00022e5c       ___acrt_lock               10023e5c f   libucrt:locks.obj
 0001:00022e73       ___acrt_uninitialize_locks 10023e73 f   libucrt:locks.obj
 0001:00022ea4       ___acrt_unlock             10023ea4 f   libucrt:locks.obj
 0001:00022ebb       __lock_locales             10023ebb f   libucrt:locks.obj
 0001:00022ec4       __unlock_locales           10023ec4 f   libucrt:locks.obj
 0001:00022ecd       _terminate                 10023ecd f   libucrt:terminate.obj
 0001:00022f09       _malloc                    10023f09 f   libucrt:malloc.obj
 0001:00022f14       ??$?RV<lambda_0fef6fff2b5e6b53303c9058db11ae1f>@@AAV<lambda_082c17da81b0962e08c0587ee0fac50c>@@V<lambda_fa6e051aed0a38726081083cc7c328e9>@@@?$__crt_seh_guarded_call@PAD@@QAEPAD$$QAV<lambda_0fef6fff2b5e6b53303c9058db11ae1f>@@AAV<lambda_082c17da81b0962e08c0587ee0fac50c>@@$$QAV<lambda_fa6e051aed0a38726081083cc7c328e9>@@@Z 10023f14 f i libucrt:setlocale.obj
 0001:00022f65       ??$__acrt_lock_and_call@V<lambda_082c17da81b0962e08c0587ee0fac50c>@@@@YAPADW4__acrt_lock_id@@$$QAV<lambda_082c17da81b0962e08c0587ee0fac50c>@@@Z 10023f65 f i libucrt:setlocale.obj
 0001:00023194       _setlocale                 10024194 f   libucrt:setlocale.obj
 0001:000231bd       ___pctype_func             100241bd f   libucrt:ctype.obj
 0001:000231e3       __chvalidchk_l             100241e3 f i libucrt:_ctype.obj
 0001:0002320d       __ischartype_l             1002420d f i libucrt:_ctype.obj
 0001:00023240       __isdigit_l                10024240 f i libucrt:_ctype.obj
 0001:00023278       __islower_l                10024278 f i libucrt:_ctype.obj
 0001:000232b0       __isupper_l                100242b0 f i libucrt:_ctype.obj
 0001:000232e8       _isdigit                   100242e8 f i libucrt:_ctype.obj
 0001:00023315       _islower                   10024315 f i libucrt:_ctype.obj
 0001:00023342       _isupper                   10024342 f i libucrt:_ctype.obj
 0001:0002336f       __wcsdup                   1002436f f   libucrt:wcsdup.obj
 0001:000233d0       ____lc_codepage_func       100243d0 f   libucrt:initctype.obj
 0001:000233f7       ____lc_locale_name_func    100243f7 f   libucrt:initctype.obj
 0001:00023420       ____mb_cur_max_func        10024420 f   libucrt:initctype.obj
 0001:00023447       ___acrt_locale_initialize_ctype 10024447 f   libucrt:initctype.obj
 0001:000237e5       ___acrt_errno_from_os_error 100247e5 f   libucrt:errno.obj
 0001:00023828       ___acrt_errno_map_os_error 10024828 f   libucrt:errno.obj
 0001:0002384b       ___doserrno                1002484b f   libucrt:errno.obj
 0001:0002385e       __errno                    1002485e f   libucrt:errno.obj
 0001:00023871       ??$make_c_string_character_source@_W$$T@__crt_strtox@@YA?AV?$c_string_character_source@_W@0@QB_W$$T@Z 10024871 f i libucrt:atox.obj
 0001:00023871       ??$make_c_string_character_source@_WPAPA_W@__crt_strtox@@YA?AV?$c_string_character_source@_W@0@QB_WQAPA_W@Z 10024871 f i libucrt:strtod.obj
 0001:00023871       ??$make_c_string_character_source@DPAPAD@__crt_strtox@@YA?AV?$c_string_character_source@D@0@QBDQAPAD@Z 10024871 f i libucrt:strtod.obj
 0001:00023890       ?divide@__crt_strtox@@YA_KAAUbig_integer@1@ABU21@@Z 10024890 f i libucrt:strtod.obj
 0001:00023d3e       ?unget@?$c_string_character_source@D@__crt_strtox@@QAEXD@Z 10024d3e f i libucrt:strtod.obj
 0001:00023d66       ?unget@?$c_string_character_source@_W@__crt_strtox@@QAEX_W@Z 10024d66 f i libucrt:strtod.obj
 0001:00023da0       _pow                       10024da0 f   libucrt:pow.obj
 0001:00023de0       __CIpow                    10024de0 f   libucrt:pow.obj
 0001:00023e1b       __CIpow_default            10024e1b f   libucrt:pow.obj
 0001:00023e34       __pow_default              10024e34     libucrt:pow.obj
 0001:00024029       ___strncnt                 10025029 f   libucrt:strncnt.obj
 0001:000241ac       __tolower_l                100251ac f   libucrt:tolower_toupper.obj
 0001:000241c6       _tolower                   100251c6 f   libucrt:tolower_toupper.obj
 0001:000241f6       _wcscpy_s                  100251f6 f   libucrt:wcscpy_s.obj
 0001:0002425a       _strnlen                   1002525a f   libucrt:strnlen.obj
 0001:00024381       _wcsnlen                   10025381 f   libucrt:strnlen.obj
 0001:00024538       ?initialize@?$dual_state_global@P6AHI@Z@__crt_state_management@@QAEXQ6AHI@Z@Z 10025538 f i libucrt:new_handler.obj
 0001:00024538       ?initialize@?$dual_state_global@PAPAD@__crt_state_management@@QAEXQAPAD@Z 10025538 f i libucrt:environment_initialization.obj
 0001:00024538       ?initialize@?$dual_state_global@PAU__crt_locale_data@@@__crt_state_management@@QAEXQAU__crt_locale_data@@@Z 10025538 f i libucrt:initialization.obj
 0001:00024538       ?initialize@?$dual_state_global@P6AHPAU_exception@@@Z@__crt_state_management@@QAEXQ6AHPAU_exception@@@Z@Z 10025538 f i libucrt:matherr.obj
 0001:00024538       ?initialize@?$dual_state_global@PAU__crt_multibyte_data@@@__crt_state_management@@QAEXQAU__crt_multibyte_data@@@Z 10025538 f i libucrt:mbctype.obj
 0001:00024538       ?initialize@?$dual_state_global@J@__crt_state_management@@QAEXJ@Z 10025538 f i libucrt:timeset.obj
 0001:00024538       ?initialize@?$dual_state_global@P6AXH@Z@__crt_state_management@@QAEXQ6AXH@Z@Z 10025538 f i libucrt:signal.obj
 0001:00024538       ?initialize@?$dual_state_global@H@__crt_state_management@@QAEXH@Z 10025538 f i libucrt:timeset.obj
 0001:00024569       ___acrt_initialize_new_handler 10025569 f   libucrt:new_handler.obj
 0001:0002457d       __callnewh                 1002557d f   libucrt:new_handler.obj
 0001:000245c1       __query_new_handler        100255c1 f   libucrt:new_handler.obj
 0001:00024613       __seh_filter_dll           10025613 f   libucrt:exception_filter.obj
 0001:00024633       __seh_filter_exe           10025633 f   libucrt:exception_filter.obj
 0001:000247a6       ??$?RV<lambda_03b1d95aef87969028cfba75ccab2455>@@AAV<lambda_6e4b09c48022b2350581041d5f6b0c4c>@@V<lambda_22bdf7517842c4b3e53723af5aa32b9e>@@@?$__crt_seh_guarded_call@X@@QAEX$$QAV<lambda_03b1d95aef87969028cfba75ccab2455>@@AAV<lambda_6e4b09c48022b2350581041d5f6b0c4c>@@$$QAV<lambda_22bdf7517842c4b3e53723af5aa32b9e>@@@Z 100257a6 f i libucrt:exit.obj
 0001:000247e9       ??$__acrt_lock_and_call@V<lambda_6e4b09c48022b2350581041d5f6b0c4c>@@@@YAXW4__acrt_lock_id@@$$QAV<lambda_6e4b09c48022b2350581041d5f6b0c4c>@@@Z 100257e9 f i libucrt:exit.obj
 0001:00024a46       ___acrt_initialize_thread_local_exit_callback 10025a46 f   libucrt:exit.obj
 0001:00024a55       __cexit                    10025a55 f   libucrt:exit.obj
 0001:00024a64       __exit                     10025a64 f   libucrt:exit.obj
 0001:00024a7a       __is_c_termination_complete 10025a7a f   libucrt:exit.obj
 0001:00024d2b       ___acrt_allocate_buffer_for_argv 10025d2b f   libucrt:argv_parsing.obj
 0001:00024d80       __configure_narrow_argv    10025d80 f   libucrt:argv_parsing.obj
 0001:00024ee4       ??$uninitialize@A6AXAAPAPA_W@Z@?$dual_state_global@PAPA_W@__crt_state_management@@QAEXA6AXAAPAPA_W@Z@Z 10025ee4 f i libucrt:environment_initialization.obj
 0001:00024ee4       ??$uninitialize@A6AXAAPAPAD@Z@?$dual_state_global@PAPAD@__crt_state_management@@QAEXA6AXAAPAPAD@Z@Z 10025ee4 f i libucrt:environment_initialization.obj
 0001:00024f5a       ___dcrt_uninitialize_environments_nolock 10025f5a f   libucrt:environment_initialization.obj
 0001:00024f91       __initialize_narrow_environment 10025f91 f   libucrt:environment_initialization.obj
 0001:00024f96       ??$?RV<lambda_69a2805e680e0e292e8ba93315fe43a8>@@AAV<lambda_f03950bc5685219e0bcd2087efbe011e>@@V<lambda_03fcd07e894ec930e3f35da366ca99d6>@@@?$__crt_seh_guarded_call@H@@QAEH$$QAV<lambda_69a2805e680e0e292e8ba93315fe43a8>@@AAV<lambda_f03950bc5685219e0bcd2087efbe011e>@@$$QAV<lambda_03fcd07e894ec930e3f35da366ca99d6>@@@Z 10025f96 f i libucrt:onexit.obj
 0001:00024fe7       ??$?RV<lambda_8e746cf0007f6ed984d6f78af1fec997>@@AAV<lambda_22ebabd17bc4fa466a2aca6d8deb888d>@@V<lambda_18ed0c0b38a6dc0daf1e7ac6d6adf05e>@@@?$__crt_seh_guarded_call@H@@QAEH$$QAV<lambda_8e746cf0007f6ed984d6f78af1fec997>@@AAV<lambda_22ebabd17bc4fa466a2aca6d8deb888d>@@$$QAV<lambda_18ed0c0b38a6dc0daf1e7ac6d6adf05e>@@@Z 10025fe7 f i libucrt:onexit.obj
 0001:00025038       ??$__acrt_lock_and_call@V<lambda_22ebabd17bc4fa466a2aca6d8deb888d>@@@@YAHW4__acrt_lock_id@@$$QAV<lambda_22ebabd17bc4fa466a2aca6d8deb888d>@@@Z 10026038 f i libucrt:onexit.obj
 0001:00025060       ??$__acrt_lock_and_call@V<lambda_f03950bc5685219e0bcd2087efbe011e>@@@@YAHW4__acrt_lock_id@@$$QAV<lambda_f03950bc5685219e0bcd2087efbe011e>@@@Z 10026060 f i libucrt:onexit.obj
 0001:00025088       ??$__crt_fast_encode_pointer@P6GHPA_WKJ@Z@@YAP6GHPA_WKJ@ZQ6GH0KJ@Z@Z 10026088 f i libucrt:winapi_thunks.obj
 0001:00025088       ??$__crt_fast_encode_pointer@P6AHXZ@@YAP6AHXZQ6AHXZ@Z 10026088 f i libucrt:onexit.obj
 0001:00025306       __crt_atexit               10026306 f   libucrt:onexit.obj
 0001:0002531c       __execute_onexit_table     1002631c f   libucrt:onexit.obj
 0001:00025339       __initialize_onexit_table  10026339 f   libucrt:onexit.obj
 0001:00025376       __register_onexit_function 10026376 f   libucrt:onexit.obj
 0001:000253c6       ___acrt_uninitialize_command_line 100263c6 f   libucrt:argv_data.obj
 0001:000254a9       ___acrt_initialize         100264a9 f   libucrt:initialization.obj
 0001:000254bb       ___acrt_thread_attach      100264bb f   libucrt:initialization.obj
 0001:000254c6       ___acrt_thread_detach      100264c6 f   libucrt:initialization.obj
 0001:000254ce       ___acrt_uninitialize       100264ce f   libucrt:initialization.obj
 0001:000254e0       ___acrt_uninitialize_critical 100264e0 f   libucrt:initialization.obj
 0001:000254f2       __initterm                 100264f2 f   libucrt:initterm.obj
 0001:0002554e       __initterm_e               1002654e f   libucrt:initterm.obj
 0001:00025593       _strdup                    10026593 f   libucrt:strdup.obj
 0001:00025593       __strdup                   10026593 f   libucrt:strdup.obj
 0001:000255e9       _strcpy_s                  100265e9 f   libucrt:strcpy_s.obj
 0001:00025643       _wcsncmp                   10026643 f   libucrt:wcsncmp.obj
 0001:0002567d       ??$is_overflow_condition@K@__crt_strtox@@YA_NIK@Z 1002667d f i libucrt:atox.obj
 0001:000256b0       ??$parse_integer@KV?$c_string_character_source@D@__crt_strtox@@@__crt_strtox@@YAKQAU__crt_locale_pointers@@V?$c_string_character_source@D@0@H_N@Z 100266b0 f i libucrt:atox.obj
 0001:000258d8       ??$parse_integer@KV?$c_string_character_source@_W@__crt_strtox@@@__crt_strtox@@YAKQAU__crt_locale_pointers@@V?$c_string_character_source@_W@0@H_N@Z 100268d8 f i libucrt:atox.obj
 0001:00025fbd       __wtol                     10026fbd f   libucrt:atox.obj
 0001:00025ff0       _strncmp                   10026ff0 f   libucrt:strncmp.obj
 0001:00026068       ??$?RV<lambda_cbab9ec6f41b0180b23cc171c22676b0>@@AAV<lambda_44731a7d0e6d81c3e6aa82d741081786>@@V<lambda_4b292cb8dd18144e164572427af410ab>@@@?$__crt_seh_guarded_call@P6AXH@Z@@QAEP6AXH@Z$$QAV<lambda_cbab9ec6f41b0180b23cc171c22676b0>@@AAV<lambda_44731a7d0e6d81c3e6aa82d741081786>@@$$QAV<lambda_4b292cb8dd18144e164572427af410ab>@@@Z 10027068 f i libucrt:signal.obj
 0001:000260c2       ??$__acrt_lock_and_call@V<lambda_44731a7d0e6d81c3e6aa82d741081786>@@@@YAP6AXH@ZW4__acrt_lock_id@@$$QAV<lambda_44731a7d0e6d81c3e6aa82d741081786>@@@Z 100270c2 f i libucrt:signal.obj
 0001:00026154       ___acrt_get_sigabrt_handler 10027154 f   libucrt:signal.obj
 0001:0002616b       ___acrt_initialize_signal_handlers 1002716b f   libucrt:signal.obj
 0001:000261a6       ___fpecode                 100271a6 f   libucrt:signal.obj
 0001:000261af       _raise                     100271af f   libucrt:signal.obj
 0001:000263b7       __calloc_base              100273b7 f   libucrt:calloc_base.obj
 0001:00026414       __free_base                10027414 f   libucrt:free_base.obj
 0001:0002645b       ??$?RV<lambda_93797fb4802c957ba6a7f08e1250235b>@@AAV<lambda_1f3ce6bd48e0aa2e72a71c02eee379d3>@@V<lambda_56cae30c9364c9b6c15aeaac05d0418e>@@@?$__crt_seh_guarded_call@H@@QAEH$$QAV<lambda_93797fb4802c957ba6a7f08e1250235b>@@AAV<lambda_1f3ce6bd48e0aa2e72a71c02eee379d3>@@$$QAV<lambda_56cae30c9364c9b6c15aeaac05d0418e>@@@Z 1002745b f i libucrt:winapi_thunks.obj
 0001:000264df       ??$__acrt_lock_and_call@V<lambda_1f3ce6bd48e0aa2e72a71c02eee379d3>@@@@YAHW4__acrt_lock_id@@$$QAV<lambda_1f3ce6bd48e0aa2e72a71c02eee379d3>@@@Z 100274df f i libucrt:winapi_thunks.obj
 0001:000267e9       ___acrt_AppPolicyGetProcessTerminationMethodInternal@4 100277e9 f   libucrt:winapi_thunks.obj
 0001:00026840       ___acrt_AppPolicyGetShowDeveloperDiagnosticInternal@4 10027840 f   libucrt:winapi_thunks.obj
 0001:00026897       ___acrt_AppPolicyGetWindowingModelInternal@4 10027897 f   libucrt:winapi_thunks.obj
 0001:000268ee       ___acrt_EnumSystemLocalesEx@16 100278ee f   libucrt:winapi_thunks.obj
 0001:00026947       ___acrt_FlsAlloc@4         10027947 f   libucrt:winapi_thunks.obj
 0001:0002699d       ___acrt_FlsFree@4          1002799d f   libucrt:winapi_thunks.obj
 0001:000269f3       ___acrt_FlsGetValue@4      100279f3 f   libucrt:winapi_thunks.obj
 0001:00026a49       ___acrt_FlsSetValue@8      10027a49 f   libucrt:winapi_thunks.obj
 0001:00026aa2       ___acrt_GetLocaleInfoEx@16 10027aa2 f   libucrt:winapi_thunks.obj
 0001:00026af8       ___acrt_GetUserDefaultLocaleName@8 10027af8 f   libucrt:winapi_thunks.obj
 0001:00026b4b       ___acrt_InitializeCriticalSectionEx@12 10027b4b f   libucrt:winapi_thunks.obj
 0001:00026bad       ___acrt_IsValidLocaleName@4 10027bad f   libucrt:winapi_thunks.obj
 0001:00026bfc       ___acrt_LCIDToLocaleName@16 10027bfc f   libucrt:winapi_thunks.obj
 0001:00026c52       ___acrt_LCMapStringEx@36   10027c52 f   libucrt:winapi_thunks.obj
 0001:00026cc6       ___acrt_LocaleNameToLCID@8 10027cc6 f   libucrt:winapi_thunks.obj
 0001:00026d0e       ___acrt_MessageBoxW@16     10027d0e f   libucrt:winapi_thunks.obj
 0001:00026d57       ___acrt_can_show_message_box 10027d57 f   libucrt:winapi_thunks.obj
 0001:00026d7e       ___acrt_can_use_vista_locale_apis 10027d7e f   libucrt:winapi_thunks.obj
 0001:00026d8a       ___acrt_eagerly_load_locale_apis 10027d8a f   libucrt:winapi_thunks.obj
 0001:00026dc1       ___acrt_get_parent_window  10027dc1 f   libucrt:winapi_thunks.obj
 0001:00026e40       ___acrt_initialize_winapi_thunks 10027e40 f   libucrt:winapi_thunks.obj
 0001:00026e66       ___acrt_is_interactive     10027e66 f   libucrt:winapi_thunks.obj
 0001:00026f0c       ___acrt_uninitialize_winapi_thunks 10027f0c f   libucrt:winapi_thunks.obj
 0001:00026f42       __fcloseall                10027f42 f   libucrt:closeall.obj
 0001:00026fe2       ??$?RV<lambda_2866be3712abc81a800a822484c830d8>@@AAV<lambda_39ca0ed439415581b5b15c265174cece>@@V<lambda_2b24c74d71094a6cd0cb82e44167d71b>@@@?$__crt_seh_guarded_call@X@@QAEX$$QAV<lambda_2866be3712abc81a800a822484c830d8>@@AAV<lambda_39ca0ed439415581b5b15c265174cece>@@$$QAV<lambda_2b24c74d71094a6cd0cb82e44167d71b>@@@Z 10027fe2 f i libucrt:fflush.obj
 0001:00027063       ??$?RV<lambda_2cc53f568c5a2bb6f192f930a45d44ea>@@AAV<lambda_ab61a845afdef5b7c387490eaf3616ee>@@V<lambda_c2ffc0b7726aa6be21d5f0026187e748>@@@?$__crt_seh_guarded_call@X@@QAEX$$QAV<lambda_2cc53f568c5a2bb6f192f930a45d44ea>@@AAV<lambda_ab61a845afdef5b7c387490eaf3616ee>@@$$QAV<lambda_c2ffc0b7726aa6be21d5f0026187e748>@@@Z 10028063 f i libucrt:fflush.obj
 0001:000270f6       ??$?RV<lambda_6d20deecaf4856105ebacbad442d1079>@@AAV<lambda_9a32fed5bf61b6b509b2d3f6003082a1>@@V<lambda_63ea2239ed67c638ddbae41947fdf875>@@@?$__crt_seh_guarded_call@H@@QAEH$$QAV<lambda_6d20deecaf4856105ebacbad442d1079>@@AAV<lambda_9a32fed5bf61b6b509b2d3f6003082a1>@@$$QAV<lambda_63ea2239ed67c638ddbae41947fdf875>@@@Z 100280f6 f i libucrt:fflush.obj
 0001:0002714c       ??$__acrt_lock_and_call@V<lambda_ab61a845afdef5b7c387490eaf3616ee>@@@@YAXW4__acrt_lock_id@@$$QAV<lambda_ab61a845afdef5b7c387490eaf3616ee>@@@Z 1002814c f i libucrt:fflush.obj
 0001:00027174       ??$__acrt_lock_stream_and_call@V<lambda_39ca0ed439415581b5b15c265174cece>@@@@YAXQAU_iobuf@@$$QAV<lambda_39ca0ed439415581b5b15c265174cece>@@@Z 10028174 f i libucrt:fflush.obj
 0001:0002719c       ??$__acrt_lock_stream_and_call@V<lambda_9a32fed5bf61b6b509b2d3f6003082a1>@@@@YAHQAU_iobuf@@$$QAV<lambda_9a32fed5bf61b6b509b2d3f6003082a1>@@@Z 1002819c f i libucrt:fflush.obj
 0001:00027258       ___acrt_stdio_flush_nolock 10028258 f   libucrt:fflush.obj
 0001:000272bb       __fflush_nolock            100282bb f   libucrt:fflush.obj
 0001:00027302       __flushall                 10028302 f   libucrt:fflush.obj
 0001:0002730b       _fflush                    1002830b f   libucrt:fflush.obj
 0001:0002734e       ___acrt_stdio_free_buffer_nolock 1002834e f   libucrt:_freebuf.obj
 0001:000274f6       ___acrt_initialize_lowio   100284f6 f   libucrt:ioinit.obj
 0001:0002754c       ___acrt_uninitialize_lowio 1002854c f   libucrt:ioinit.obj
 0001:00027578       ??$?RV<lambda_15ade71b0218206bbe3333a0c9b79046>@@AAV<lambda_da44e0f8b0f19ba52fefafb335991732>@@V<lambda_207f2d024fc103971653565357d6cd41>@@@?$__crt_seh_guarded_call@X@@QAEX$$QAV<lambda_15ade71b0218206bbe3333a0c9b79046>@@AAV<lambda_da44e0f8b0f19ba52fefafb335991732>@@$$QAV<lambda_207f2d024fc103971653565357d6cd41>@@@Z 10028578 f i libucrt:per_thread_data.obj
 0001:000275c0       ??$?RV<lambda_38edbb1296d33220d7e4dd0ed76b244a>@@AAV<lambda_5ce1d447e08cb34b2473517608e21441>@@V<lambda_fb385d3da700c9147fc39e65dd577a8c>@@@?$__crt_seh_guarded_call@X@@QAEX$$QAV<lambda_38edbb1296d33220d7e4dd0ed76b244a>@@AAV<lambda_5ce1d447e08cb34b2473517608e21441>@@$$QAV<lambda_fb385d3da700c9147fc39e65dd577a8c>@@@Z 100285c0 f i libucrt:per_thread_data.obj
 0001:00027621       ??$?RV<lambda_6affb1475c98b40b75cdec977db92e3c>@@AAV<lambda_b8d4b9c228a6ecc3f80208dbb4b4a104>@@V<lambda_608742c3c92a14382c1684fc64f96c88>@@@?$__crt_seh_guarded_call@X@@QAEX$$QAV<lambda_6affb1475c98b40b75cdec977db92e3c>@@AAV<lambda_b8d4b9c228a6ecc3f80208dbb4b4a104>@@$$QAV<lambda_608742c3c92a14382c1684fc64f96c88>@@@Z 10028621 f i libucrt:per_thread_data.obj
 0001:0002766c       ??$?RV<lambda_a7e850c220f1c8d1e6efeecdedd162c6>@@AAV<lambda_46720907175c18b6c9d2717bc0d2d362>@@V<lambda_9048902d66e8d99359bc9897bbb930a8>@@@?$__crt_seh_guarded_call@X@@QAEX$$QAV<lambda_a7e850c220f1c8d1e6efeecdedd162c6>@@AAV<lambda_46720907175c18b6c9d2717bc0d2d362>@@$$QAV<lambda_9048902d66e8d99359bc9897bbb930a8>@@@Z 1002866c f i libucrt:per_thread_data.obj
 0001:000276bc       ??$__acrt_lock_and_call@V<lambda_46720907175c18b6c9d2717bc0d2d362>@@@@YAXW4__acrt_lock_id@@$$QAV<lambda_46720907175c18b6c9d2717bc0d2d362>@@@Z 100286bc f i libucrt:per_thread_data.obj
 0001:000276e4       ??$__acrt_lock_and_call@V<lambda_5ce1d447e08cb34b2473517608e21441>@@@@YAXW4__acrt_lock_id@@$$QAV<lambda_5ce1d447e08cb34b2473517608e21441>@@@Z 100286e4 f i libucrt:per_thread_data.obj
 0001:0002770c       ??$__acrt_lock_and_call@V<lambda_b8d4b9c228a6ecc3f80208dbb4b4a104>@@@@YAXW4__acrt_lock_id@@$$QAV<lambda_b8d4b9c228a6ecc3f80208dbb4b4a104>@@@Z 1002870c f i libucrt:per_thread_data.obj
 0001:00027734       ??$__acrt_lock_and_call@V<lambda_da44e0f8b0f19ba52fefafb335991732>@@@@YAXW4__acrt_lock_id@@$$QAV<lambda_da44e0f8b0f19ba52fefafb335991732>@@@Z 10028734 f i libucrt:per_thread_data.obj
 0001:000278ea       ___acrt_freeptd            100288ea f   libucrt:per_thread_data.obj
 0001:00027916       ___acrt_getptd             10028916 f   libucrt:per_thread_data.obj
 0001:000279ca       ___acrt_getptd_head        100289ca f   libucrt:per_thread_data.obj
 0001:00027a64       ___acrt_getptd_noexit      10028a64 f   libucrt:per_thread_data.obj
 0001:00027b17       ___acrt_initialize_ptd     10028b17 f   libucrt:per_thread_data.obj
 0001:00027b43       ___acrt_uninitialize_ptd   10028b43 f   libucrt:per_thread_data.obj
 0001:00027b5d       __malloc_base              10028b5d f   libucrt:malloc_base.obj
 0001:00027bab       _strtol                    10028bab f   libucrt:strtox.obj
 0001:00027bd7       _wcstol                    10028bd7 f   libucrt:strtox.obj
 0001:00027c03       __mbtowc_l                 10028c03 f   libucrt:mbtowc.obj
 0001:00027cfd       _mbtowc                    10028cfd f   libucrt:mbtowc.obj
 0001:00027d17       __wctomb_s_l               10028d17 f   libucrt:wctomb.obj
 0001:00027e38       _wctomb_s                  10028e38 f   libucrt:wctomb.obj
 0001:00027e55       ___acrt_update_locale_info 10028e55 f   libucrt:locale_update.obj
 0001:00027e82       ___acrt_update_multibyte_info 10028e82 f   libucrt:locale_update.obj
 0001:00027eaf       ?__acrt_fp_classify@@YA?AW4__acrt_fp_class@@ABN@Z 10028eaf f i libucrt:cvt.obj
 0001:00027f17       ?__acrt_fp_is_negative@@YA_NABN@Z 10028f17 f i libucrt:cvt.obj
 0001:00028787       ___acrt_fp_format          10029787 f   libucrt:cvt.obj
 0001:00028903       __fputwc_nolock            10029903 f   libucrt:fputwc.obj
 0001:00028a2d       __fileno                   10029a2d f   libucrt:fileno.obj
 0001:00028a53       __fputc_nolock             10029a53 f   libucrt:fputc.obj
 0001:00028a7c       __get_printf_count_output  10029a7c f   libucrt:printf_count_output.obj
 0001:00028a91       ___acrt_stdio_begin_temporary_buffering_nolock 10029a91 f   libucrt:_sftbuf.obj
 0001:00028b46       ___acrt_stdio_end_temporary_buffering_nolock 10029b46 f   libucrt:_sftbuf.obj
 0001:00028b7f       ??$?RV<lambda_303d0ad9bde654cb3f803a73716ce7a4>@@AAV<lambda_92fe181106aff629c9a2e25713a64969>@@V<lambda_184325e10b6cff6f771390cbceab281b>@@@?$__crt_seh_guarded_call@X@@QAEX$$QAV<lambda_303d0ad9bde654cb3f803a73716ce7a4>@@AAV<lambda_92fe181106aff629c9a2e25713a64969>@@$$QAV<lambda_184325e10b6cff6f771390cbceab281b>@@@Z 10029b7f f i libucrt:wsetlocale.obj
 0001:00028bc2       ??$?RV<lambda_38c1253c7a74f5d2d430989951395d98>@@AAV<lambda_b163b37eafe0a13f2c371fafeb0365c9>@@AAV<lambda_8dff2cf36a5417162780cd64fa2883ef>@@@?$__crt_seh_guarded_call@X@@QAEX$$QAV<lambda_38c1253c7a74f5d2d430989951395d98>@@AAV<lambda_b163b37eafe0a13f2c371fafeb0365c9>@@AAV<lambda_8dff2cf36a5417162780cd64fa2883ef>@@@Z 10029bc2 f i libucrt:wsetlocale.obj
 0001:00028bfd       ??$?RV<lambda_e5124f882df8998aaf41531e079ba474>@@AAV<lambda_3e16ef9562a7dcce91392c22ab16ea36>@@V<lambda_e25ca0880e6ef98be67edffd8c599615>@@@?$__crt_seh_guarded_call@X@@QAEX$$QAV<lambda_e5124f882df8998aaf41531e079ba474>@@AAV<lambda_3e16ef9562a7dcce91392c22ab16ea36>@@$$QAV<lambda_e25ca0880e6ef98be67edffd8c599615>@@@Z 10029bfd f i libucrt:wsetlocale.obj
 0001:00028c46       ??$__acrt_lock_and_call@V<lambda_3e16ef9562a7dcce91392c22ab16ea36>@@@@YAXW4__acrt_lock_id@@$$QAV<lambda_3e16ef9562a7dcce91392c22ab16ea36>@@@Z 10029c46 f i libucrt:wsetlocale.obj
 0001:00028c6e       ??$__acrt_lock_and_call@V<lambda_92fe181106aff629c9a2e25713a64969>@@@@YAXW4__acrt_lock_id@@$$QAV<lambda_92fe181106aff629c9a2e25713a64969>@@@Z 10029c6e f i libucrt:wsetlocale.obj
 0001:00028c96       ??$uninitialize@V<lambda_88ce03f932007f29bf8b8056cbaba4f3>@@@?$dual_state_global@PAU__crt_locale_data@@@__crt_state_management@@QAEX$$QAV<lambda_88ce03f932007f29bf8b8056cbaba4f3>@@@Z 10029c96 f i libucrt:wsetlocale.obj
 0001:00028e1f       ___acrt_copy_locale_name   10029e1f f   libucrt:wsetlocale.obj
 0001:00028e85       ___acrt_set_locale_changed 10029e85 f   libucrt:wsetlocale.obj
 0001:00028e90       ___acrt_uninitialize_locale 10029e90 f   libucrt:wsetlocale.obj
 0001:00028ea7       ___lc_lctowcs              10029ea7 f   libucrt:wsetlocale.obj
 0001:00028f17       ___lc_wcstolc              10029f17 f   libucrt:wsetlocale.obj
 0001:00029075       __expandlocale             1002a075 f   libucrt:wsetlocale.obj
 0001:000293ec       __wcscats                  1002a3ec f   libucrt:wsetlocale.obj
 0001:0002942d       __wsetlocale               1002a42d f   libucrt:wsetlocale.obj
 0001:00029cfc       __dsign                    1002acfc f   libucrt:nan.obj
 0001:00029d0c       __errcode                  1002ad0c f   libucrt:fpexcept.obj
 0001:00029d40       __except1                  1002ad40 f   libucrt:fpexcept.obj
 0001:00029e0e       __handle_exc               1002ae0e f   libucrt:fpexcept.obj
 0001:00029fee       __raise_exc                1002afee f   libucrt:fpexcept.obj
 0001:0002a011       __raise_exc_ex             1002b011 f   libucrt:fpexcept.obj
 0001:0002a302       __set_errno_from_matherr   1002b302 f   libucrt:fpexcept.obj
 0001:0002a331       __umatherr                 1002b331 f   libucrt:fpexcept.obj
 0001:0002a3d3       __decomp                   1002b3d3 f   libucrt:util.obj
 0001:0002a4a7       __set_exp                  1002b4a7 f   libucrt:util.obj
 0001:0002a4d6       __sptype                   1002b4d6 f   libucrt:util.obj
 0001:0002a534       __clrfp                    1002b534 f   libucrt:fpctrl.obj
 0001:0002a547       __ctrlfp                   1002b547 f   libucrt:fpctrl.obj
 0001:0002a573       __set_statfp               1002b573 f   libucrt:fpctrl.obj
 0001:0002a5ce       __statfp                   1002b5ce f   libucrt:fpctrl.obj
 0001:0002a5e0       __query_app_type           1002b5e0 f   libucrt:report_runtime_error.obj
 0001:0002a6d3       __itow_s                   1002b6d3 f   libucrt:xtoa.obj
 0001:0002a708       __set_error_mode           1002b708 f   libucrt:set_error_mode.obj
 0001:0002a747       _wcscat_s                  1002b747 f   libucrt:wcscat_s.obj
 0001:0002a8a5       _wcsncat_s                 1002b8a5 f   libucrt:wcsncat_s.obj
 0001:0002a934       ___acrt_show_wide_message_box 1002b934 f   libucrt:crtmbox.obj
 0001:0002a93f       ??$?RV<lambda_70c0770dcc4f6ec6272bb01dc82d3c91>@@AAV<lambda_ca71763b3c0644891230e4f79ea54fa6>@@V<lambda_ca266f0f09348b8765c113e3a39a2bc1>@@@?$__crt_seh_guarded_call@H@@QAEH$$QAV<lambda_70c0770dcc4f6ec6272bb01dc82d3c91>@@AAV<lambda_ca71763b3c0644891230e4f79ea54fa6>@@$$QAV<lambda_ca266f0f09348b8765c113e3a39a2bc1>@@@Z 1002b93f f i libucrt:setvbuf.obj
 0001:0002a990       ??$__acrt_lock_stream_and_call@V<lambda_ca71763b3c0644891230e4f79ea54fa6>@@@@YAHQAU_iobuf@@$$QAV<lambda_ca71763b3c0644891230e4f79ea54fa6>@@@Z 1002b990 f i libucrt:setvbuf.obj
 0001:0002aa85       _setvbuf                   1002ba85 f   libucrt:setvbuf.obj
 0001:0002ac74       __mbstowcs_s_l             1002bc74 f   libucrt:mbstowcs.obj
 0001:0002ad57       _mbstowcs_s                1002bd57 f   libucrt:mbstowcs.obj
 0001:0002aff8       __wcstombs_s_l             1002bff8 f   libucrt:wcstombs.obj
 0001:0002b0c5       __isctype_l                1002c0c5 f   libucrt:isctype.obj
 0001:0002b292       ___acrt_GetLocaleInfoA     1002c292 f   libucrt:getlocaleinfoa.obj
 0001:0002b444       ___acrt_GetStringTypeA     1002c444 f   libucrt:getstringtypea.obj
 0001:0002b77e       ___acrt_LCMapStringA       1002c77e f   libucrt:lcmapstringa.obj
 0001:0002b7c9       __realloc_base             1002c7c9 f   libucrt:realloc_base.obj
 0001:0002b832       _iswctype                  1002c832 f   libucrt:iswctype.obj
 0001:0002b891       __fpclass                  1002c891 f   libucrt:ieeemisc.obj
 0001:0002b935       ___acrt_initialize_sse2    1002c935 f   libucrt:mathfcns.obj
 0001:0002b950       __CIpow_pentium4           1002c950 f   libucrt:pow_pentium4.obj
 0001:0002b969       __pow_pentium4             1002c969     libucrt:pow_pentium4.obj
 0001:0002c481       __fFEXP                    1002d481     libucrt:87tran.obj
 0001:0002c4d8       __rtinfpopse               1002d4d8     libucrt:87tran.obj
 0001:0002c4da       __rtinfnpopse              1002d4da     libucrt:87tran.obj
 0001:0002c4ea       __fFLN                     1002d4ea     libucrt:87tran.obj
 0001:0002c59f       __rtinfpop                 1002d59f     libucrt:87tran.obj
 0001:0002c5a1       __rtinfnpop                1002d5a1     libucrt:87tran.obj
 0001:0002c5be       __ffexpm1                  1002d5be     libucrt:87tran.obj
 0001:0002c670       __trandisp1                1002d670 f   libucrt:87disp.obj
 0001:0002c6d7       __trandisp2                1002d6d7 f   libucrt:87disp.obj
 0001:0002c763       __rttospopde               1002d763     libucrt:87disp.obj
 0001:0002c768       __rttospop                 1002d768     libucrt:87disp.obj
 0001:0002c76a       __rtnospop                 1002d76a     libucrt:87disp.obj
 0001:0002c76c       __rttosnpop                1002d76c     libucrt:87disp.obj
 0001:0002c76d       __rtnospopde               1002d76d     libucrt:87disp.obj
 0001:0002c774       __rtzeropop                1002d774     libucrt:87disp.obj
 0001:0002c776       __rtzeronpop               1002d776     libucrt:87disp.obj
 0001:0002c77b       __rtzerospop               1002d77b     libucrt:87disp.obj
 0001:0002c788       __rtonepop                 1002d788     libucrt:87disp.obj
 0001:0002c78a       __rtonenpop                1002d78a     libucrt:87disp.obj
 0001:0002c78f       __tosnan1                  1002d78f     libucrt:87disp.obj
 0001:0002c7ba       __nosnan2                  1002d7ba     libucrt:87disp.obj
 0001:0002c7bc       __tosnan2                  1002d7bc     libucrt:87disp.obj
 0001:0002c7e4       __nan2                     1002d7e4     libucrt:87disp.obj
 0001:0002c823       __rtindfpop                1002d823     libucrt:87disp.obj
 0001:0002c825       __rtindfnpop               1002d825     libucrt:87disp.obj
 0001:0002c836       __rttosnpopde              1002d836     libucrt:87disp.obj
 0001:0002c840       __rtatan2inf               1002d840     libucrt:87disp.obj
 0001:0002c85d       __rtchsifneg               1002d85d     libucrt:87disp.obj
 0001:0002c870       __startTwoArgErrorHandling 1002d870 f   libucrt:genexcep.obj
 0001:0002c887       __startOneArgErrorHandling 1002d887 f   libucrt:genexcep.obj
 0001:0002c8d0       __twoToTOS                 1002d8d0 f   libucrt:common.obj
 0001:0002c8e5       __load_CW                  1002d8e5 f   libucrt:common.obj
 0001:0002c8fc       __convertTOStoQNaN         1002d8fc f   libucrt:common.obj
 0001:0002c915       __fload_withFB             1002d915 f   libucrt:common.obj
 0001:0002c958       __checkTOS_withFB          1002d958 f   libucrt:common.obj
 0001:0002c96e       __fast_exit                1002d96e f   libucrt:common.obj
 0001:0002c97b       __math_exit                1002d97b f   libucrt:common.obj
 0001:0002c9a5       __check_overflow_exit      1002d9a5 f   libucrt:common.obj
 0001:0002c9b9       __check_range_exit         1002d9b9 f   libucrt:common.obj
 0001:0002ca5c       __d_inttype                1002da5c f   libucrt:powhlp.obj
 0001:0002cac6       __powhlp                   1002dac6 f   libucrt:powhlp.obj
 0001:0002cbf1       __wcsicmp                  1002dbf1 f   libucrt:wcsicmp.obj
 0001:0002cc86       __wcsicmp_l                1002dc86 f   libucrt:wcsicmp.obj
 0001:0002cd66       ___acrt_initialize_timeset 1002dd66 f   libucrt:timeset.obj
 0001:0002cd9d       __isleadbyte_l             1002dd9d f i libucrt:_wctype.obj
 0001:0002cdd6       ___acrt_get_developer_information_policy 1002ddd6 f   libucrt:win_policies.obj
 0001:0002ce08       ___acrt_get_process_end_policy 1002de08 f   libucrt:win_policies.obj
 0001:0002ce28       ___acrt_get_windowing_model_policy 1002de28 f   libucrt:win_policies.obj
 0001:0002d32d       ___acrt_expand_narrow_argv_wildcards 1002e32d f   libucrt:argv_wildcards.obj
 0001:0002d338       ??$?RV<lambda_ceb1ee4838e85a9d631eb091e2fbe199>@@AAV<lambda_ae742caa10f662c28703da3d2ea5e57e>@@V<lambda_cd08b5d6af4937fe54fc07d0c9bf6b37>@@@?$__crt_seh_guarded_call@X@@QAEX$$QAV<lambda_ceb1ee4838e85a9d631eb091e2fbe199>@@AAV<lambda_ae742caa10f662c28703da3d2ea5e57e>@@$$QAV<lambda_cd08b5d6af4937fe54fc07d0c9bf6b37>@@@Z 1002e338 f i libucrt:mbctype.obj
 0001:0002d37b       ??$__acrt_lock_and_call@V<lambda_ae742caa10f662c28703da3d2ea5e57e>@@@@YAXW4__acrt_lock_id@@$$QAV<lambda_ae742caa10f662c28703da3d2ea5e57e>@@@Z 1002e37b f i libucrt:mbctype.obj
 0001:0002d870       ___acrt_initialize_multibyte 1002e870 f   libucrt:mbctype.obj
 0001:0002d8bd       ___acrt_update_thread_multibyte_data 1002e8bd f   libucrt:mbctype.obj
 0001:0002d8d1       __setmbcp_nolock           1002e8d1 f   libucrt:mbctype.obj
 0001:0002db1b       __ismbblead                1002eb1b f   libucrt:ismbbyte.obj
 0001:0002db33       ___acrt_initialize_command_line 1002eb33 f   libucrt:argv_data.obj
 0001:0002db83       ___dcrt_get_narrow_environment_from_os 1002eb83 f   libucrt:get_environment_from_os.obj
 0001:0002dc06       __recalloc_base            1002ec06 f   libucrt:recalloc.obj
 0001:0002dc73       ___acrt_initialize_heap    1002ec73 f   libucrt:heap_handle.obj
 0001:0002dc84       ___acrt_uninitialize_heap  1002ec84 f   libucrt:heap_handle.obj
 0001:0002dc8e       ___acrt_execute_initializers 1002ec8e f   libucrt:shared_initialization.obj
 0001:0002dd11       ___acrt_execute_uninitializers 1002ed11 f   libucrt:shared_initialization.obj
 0001:0002dd5e       ___acrt_has_user_matherr   1002ed5e f   libucrt:matherr.obj
 0001:0002dd77       ___acrt_initialize_user_matherr 1002ed77 f   libucrt:matherr.obj
 0001:0002dd8b       ___acrt_invoke_user_matherr 1002ed8b f   libucrt:matherr.obj
 0001:0002ddd4       __query_new_mode           1002edd4 f   libucrt:new_mode.obj
 0001:0002de96       ___acrt_DownlevelLCIDToLocaleName 1002ee96 f   libucrt:lcidtoname_downlevel.obj
 0001:0002df40       ___acrt_DownlevelLocaleNameToLCID 1002ef40 f   libucrt:lcidtoname_downlevel.obj
 0001:0002df6c       __fclose_nolock            1002ef6c f   libucrt:fclose.obj
 0001:0002dfe2       _fclose                    1002efe2 f   libucrt:fclose.obj
 0001:0002e062       ??$?RV<lambda_9e9de3de5fa147e2223d7db92bc10aa6>@@AAV<lambda_38ce7e780aa69e748d6df282ebc68efe>@@V<lambda_8ca6da459f0f6780f1cff60fdc3d00e5>@@@?$__crt_seh_guarded_call@H@@QAEH$$QAV<lambda_9e9de3de5fa147e2223d7db92bc10aa6>@@AAV<lambda_38ce7e780aa69e748d6df282ebc68efe>@@$$QAV<lambda_8ca6da459f0f6780f1cff60fdc3d00e5>@@@Z 1002f062 f i libucrt:commit.obj
 0001:0002e0fa       ??$__acrt_lowio_lock_fh_and_call@V<lambda_38ce7e780aa69e748d6df282ebc68efe>@@@@YAHH$$QAV<lambda_38ce7e780aa69e748d6df282ebc68efe>@@@Z 1002f0fa f i libucrt:commit.obj
 0001:0002e122       __commit                   1002f122 f   libucrt:commit.obj
 0001:0002e733       __write                    1002f733 f   libucrt:write.obj
 0001:0002e81e       __write_nolock             1002f81e f   libucrt:write.obj
 0001:0002ea37       ___acrt_lowio_create_handle_array 1002fa37 f   libucrt:osfinfo.obj
 0001:0002eab1       ___acrt_lowio_destroy_handle_array 1002fab1 f   libucrt:osfinfo.obj
 0001:0002eae6       ___acrt_lowio_ensure_fh_exists 1002fae6 f   libucrt:osfinfo.obj
 0001:0002eb7e       ___acrt_lowio_lock_fh      1002fb7e f   libucrt:osfinfo.obj
 0001:0002eba1       ___acrt_lowio_unlock_fh    1002fba1 f   libucrt:osfinfo.obj
 0001:0002ebc4       __free_osfhnd              1002fbc4 f   libucrt:osfinfo.obj
 0001:0002ec55       __get_osfhandle            1002fc55 f   libucrt:osfinfo.obj
 0001:0002ecbf       ___acrt_add_locale_ref     1002fcbf f   libucrt:locale_refcounting.obj
 0001:0002ed3c       ___acrt_free_locale        1002fd3c f   libucrt:locale_refcounting.obj
 0001:0002ee86       ___acrt_locale_add_lc_time_reference 1002fe86 f   libucrt:locale_refcounting.obj
 0001:0002eeaf       ___acrt_locale_free_lc_time_if_unreferenced 1002feaf f   libucrt:locale_refcounting.obj
 0001:0002eedf       ___acrt_locale_release_lc_time_reference 1002fedf f   libucrt:locale_refcounting.obj
 0001:0002ef08       ___acrt_release_locale_ref 1002ff08 f   libucrt:locale_refcounting.obj
 0001:0002ef89       ___acrt_update_thread_locale_data 1002ff89 f   libucrt:locale_refcounting.obj
 0001:0002f000       __updatetlocinfoEx_nolock  10030000 f   libucrt:locale_refcounting.obj
 0001:0002f050       ___acrt_fp_strflt_to_string 10030050 f   libucrt:_fptostr.obj
 0001:0002f10c       ___acrt_fltout             1003010c f   libucrt:cfout.obj
 0001:000308c6       ___acrt_stdio_flush_and_write_narrow_nolock 100318c6 f   libucrt:_flsbuf.obj
 0001:000308d1       ___acrt_stdio_flush_and_write_wide_nolock 100318d1 f   libucrt:_flsbuf.obj
 0001:000308dc       __isatty                   100318dc f   libucrt:isatty.obj
 0001:00030932       ___acrt_locale_free_monetary 10031932 f   libucrt:initmon.obj
 0001:00030a30       ___acrt_locale_initialize_monetary 10031a30 f   libucrt:initmon.obj
 0001:00030dec       ___acrt_locale_free_numeric 10031dec f   libucrt:initnum.obj
 0001:00030e55       ___acrt_locale_initialize_numeric 10031e55 f   libucrt:initnum.obj
 0001:0003132a       ___acrt_locale_free_time   1003232a f   libucrt:inittime.obj
 0001:0003140e       ___acrt_locale_initialize_time 1003240e f   libucrt:inittime.obj
 0001:0003155a       _wcsncpy_s                 1003255a f   libucrt:wcsncpy_s.obj
 0001:00031565       _wcscspn                   10032565 f   libucrt:wcscspn.obj
 0001:000315b5       _wcspbrk                   100325b5 f   libucrt:wcspbrk.obj
 0001:00031cf8       ___acrt_get_qualified_locale 10032cf8 f   libucrt:get_qualified_locale.obj
 0001:00032630       ___acrt_get_qualified_locale_downlevel 10033630 f   libucrt:getqloc_downlevel.obj
 0001:000328e8       _strncpy_s                 100338e8 f   libucrt:strncpy_s.obj
 0001:00032b96       __getfpcontrolword         10033b96 f   libucrt:_fenvutils.obj
 0001:00032bd9       __getfpstatusword          10033bd9 f   libucrt:_fenvutils.obj
 0001:00032c81       __setfpcontrolword         10033c81 f   libucrt:_fenvutils.obj
 0001:00032d01       __setfpstatusword          10033d01 f   libucrt:_fenvutils.obj
 0001:00032d81       ___libm_error_support      10033d81 f   libucrt:libm_error.obj
 0001:00032f99       __87except                 10033f99 f   libucrt:87except.obj
 0001:000330a4       __frnd                     100340a4 f   libucrt:frnd.obj
 0001:000330ba       __towlower_l               100340ba f   libucrt:towlower.obj
 0001:00033270       _qsort                     10034270 f   libucrt:qsort.obj
 0001:00033610       _strpbrk                   10034610 f   libucrt:strpbrk.obj
 0001:00033650       __mbsdec                   10034650 f   libucrt:mbsdec.obj
 0001:00033667       __mbsdec_l                 10034667 f   libucrt:mbsdec.obj
 0001:00033703       __msize                    10034703 f   libucrt:msize.obj
 0001:0003370e       __msize_base               1003470e f   libucrt:msize.obj
 0001:00033741       ??$?RV<lambda_218ce3db14220d0be481dae8ef3383b6>@@AAV<lambda_628dfdc04ba53c8bfc02c9951375f3f5>@@V<lambda_57dc472bd5c9d5f3b2cbca59b8a843ae>@@@?$__crt_seh_guarded_call@H@@QAEH$$QAV<lambda_218ce3db14220d0be481dae8ef3383b6>@@AAV<lambda_628dfdc04ba53c8bfc02c9951375f3f5>@@$$QAV<lambda_57dc472bd5c9d5f3b2cbca59b8a843ae>@@@Z 10034741 f i libucrt:close.obj
 0001:000337c3       ??$__acrt_lowio_lock_fh_and_call@V<lambda_628dfdc04ba53c8bfc02c9951375f3f5>@@@@YAHH$$QAV<lambda_628dfdc04ba53c8bfc02c9951375f3f5>@@@Z 100347c3 f i libucrt:close.obj
 0001:000337eb       __close                    100347eb f   libucrt:close.obj
 0001:0003386a       __close_nolock             1003486a f   libucrt:close.obj
 0001:00033906       ?__acrt_stdio_free_stream@@YAXV__crt_stdio_stream@@@Z 10034906 f   libucrt:stream.obj
 0001:00033ac4       __lseeki64                 10034ac4 f   libucrt:lseek.obj
 0001:00033adf       __lseeki64_nolock          10034adf f   libucrt:lseek.obj
 0001:00033afa       __putwch_nolock            10034afa f   libucrt:putwch.obj
 0001:00033b3f       _fegetenv                  10034b3f f   libucrt:fegetenv.obj
 0001:00033b5c       _fesetenv                  10034b5c f   libucrt:fesetenv.obj
 0001:00033ba5       _feholdexcept              10034ba5 f   libucrt:feholdexcept.obj
 0001:00033c00       _log10                     10034c00 f   libucrt:log10.obj
 0001:00033c40       __CIlog10                  10034c40 f   libucrt:log10.obj
 0001:00033c7b       __CIlog10_default          10034c7b f   libucrt:log10.obj
 0001:00033c8f       __log10_default            10034c8f     libucrt:log10.obj
 0001:00033d50       _ceil                      10034d50 f   libucrt:ceil_pentium4.obj
 0001:00033d90       __ceil_pentium4            10034d90 f   libucrt:ceil_pentium4.obj
 0001:00033e6d       ___acrt_stdio_allocate_buffer_nolock 10034e6d f   libucrt:_getbuf.obj
 0001:00033eca       __wcsnicmp                 10034eca f   libucrt:wcsnicmp.obj
 0001:00033f84       __wcsnicmp_l               10034f84 f   libucrt:wcsnicmp.obj
 0001:00034085       ___acrt_LCMapStringW       10035085 f   libucrt:lcmapstringw.obj
 0001:000340c3       ___dcrt_lowio_initialize_console_output 100350c3 f   libucrt:initcon.obj
 0001:000340e2       ___dcrt_terminate_console_output 100350e2 f   libucrt:initcon.obj
 0001:000340f9       __clearfp                  100350f9 f   libucrt:ieee87.obj
 0001:000341e0       __CIlog10_pentium4         100351e0 f   libucrt:log10_pentium4.obj
 0001:000341f8       __log10_pentium4           100351f8     libucrt:log10_pentium4.obj
 0001:00034470       __ceil_default             10035470 f   libucrt:ceil.obj
 0001:00034530       ___ascii_strnicmp          10035530 f   libucrt:_strnicm.obj
 0001:00034591       _IsProcessorFeaturePresent@4 10035591 f   kernel32:KERNEL32.dll
 0001:000345a0       __FindPESection            100355a0 f   LIBCMT:pesect.obj
 0001:000345f0       __IsNonwritableInCurrentImage 100355f0 f   LIBCMT:pesect.obj
 0001:000346b0       __ValidateImageBase        100356b0 f   LIBCMT:pesect.obj
 0001:000346f0       __aulldvrm                 100356f0 f   LIBCMT:ulldvrm.obj
 0001:00034790       __SEH_prolog4_GS           10035790 f   LIBCMT:_sehprolg4gs_.obj
 0001:000347d9       __SEH_epilog4_GS           100357d9 f   LIBCMT:_sehprolg4gs_.obj
 0001:000347f0       __allshl                   100357f0 f   LIBCMT:llshl.obj
 0001:00034810       __aullshr                  10035810 f   LIBCMT:ullshr.obj
 0001:00034830       __alldvrm                  10035830 f   LIBCMT:lldvrm.obj
 0001:00034910       __ftol2_sse                10035910 f   LIBCMT:_ftol2_.obj
 0001:00034919       __ftol2_pentium4           10035919 f   LIBCMT:_ftol2_.obj
 0001:0003492c       __ftol2_sse_excpt          1003592c f   LIBCMT:_ftol2_.obj
 0001:00034950       __ftol2                    10035950 f   LIBCMT:_ftol2_.obj
 0001:000349d0       _strrchr                   100359d0 f   libvcruntime:strrchr.obj
 0001:00034b10       _strchr                    10035b10 f   libvcruntime:strchr.obj
 0001:00034b7e       ___from_strstr_to_strchr   10035b7e     libvcruntime:strchr.obj
 0001:00034c3b       _wcschr                    10035c3b f   libvcruntime:wcschr.obj
 0001:00034d10       __ftoui3                   10035d10 f   LIBCMT:_ftol3_.obj
 0001:00034d1f       __ftoul3                   10035d1f f   LIBCMT:_ftol3_.obj
 0001:00034d2e       __ftol3                    10035d2e f   LIBCMT:_ftol3_.obj
 0001:00034d3b       __ftol3_NaN                10035d3b f   LIBCMT:_ftol3_.obj
 0001:00034d53       __ftol3_work               10035d53 f   LIBCMT:_ftol3_.obj
 0001:00034dd9       __ftol3_common             10035dd9 f   LIBCMT:_ftol3_.obj
 0001:00034e9b       __ftol3_arg_error          10035e9b f   LIBCMT:_ftol3_.obj
 0001:00034ead       __ftol3_except             10035ead f   LIBCMT:_ftol3_.obj
 0001:00034ef1       __dtoui3                   10035ef1 f   LIBCMT:_ftol3_.obj
 0001:00034f00       __dtoul3                   10035f00 f   LIBCMT:_ftol3_.obj
 0001:00034f0f       __dtol3                    10035f0f f   LIBCMT:_ftol3_.obj
 0001:00034f1c       __dtol3_NaN                10035f1c f   LIBCMT:_ftol3_.obj
 0001:00034f39       __dtol3_work               10035f39 f   LIBCMT:_ftol3_.obj
 0001:00035020       __ultod3                   10036020 f   LIBCMT:_ftol3_.obj
 0001:00035060       __ltod3                    10036060 f   LIBCMT:_ftol3_.obj
 0002:00000000       __imp__GetCurrentThreadId@0 10037000     kernel32:KERNEL32.dll
 0002:00000004       __imp__Sleep@4             10037004     kernel32:KERNEL32.dll
 0002:00000008       __imp__GetProcAddress@8    10037008     kernel32:KERNEL32.dll
 0002:0000000c       __imp__SetFilePointerEx@20 1003700c     kernel32:KERNEL32.dll
 0002:00000010       __imp__CloseHandle@4       10037010     kernel32:KERNEL32.dll
 0002:00000014       __imp__HeapSize@12         10037014     kernel32:KERNEL32.dll
 0002:00000018       __imp__SetStdHandle@8      10037018     kernel32:KERNEL32.dll
 0002:0000001c       __imp__GetConsoleMode@8    1003701c     kernel32:KERNEL32.dll
 0002:00000020       __imp__GetConsoleCP@0      10037020     kernel32:KERNEL32.dll
 0002:00000024       __imp__FlushFileBuffers@4  10037024     kernel32:KERNEL32.dll
 0002:00000028       __imp__GetProcessHeap@0    10037028     kernel32:KERNEL32.dll
 0002:0000002c       __imp__FreeEnvironmentStringsW@4 1003702c     kernel32:KERNEL32.dll
 0002:00000030       __imp__GetEnvironmentStringsW@0 10037030     kernel32:KERNEL32.dll
 0002:00000034       __imp__GetCommandLineW@0   10037034     kernel32:KERNEL32.dll
 0002:00000038       __imp__GetCommandLineA@0   10037038     kernel32:KERNEL32.dll
 0002:0000003c       __imp__GetOEMCP@0          1003703c     kernel32:KERNEL32.dll
 0002:00000040       __imp__IsValidCodePage@4   10037040     kernel32:KERNEL32.dll
 0002:00000044       __imp__FindNextFileA@8     10037044     kernel32:KERNEL32.dll
 0002:00000048       __imp__FindFirstFileExA@24 10037048     kernel32:KERNEL32.dll
 0002:0000004c       __imp__FindClose@4         1003704c     kernel32:KERNEL32.dll
 0002:00000050       __imp__HeapReAlloc@16      10037050     kernel32:KERNEL32.dll
 0002:00000054       __imp__OutputDebugStringW@4 10037054     kernel32:KERNEL32.dll
 0002:00000058       __imp__WriteFile@20        10037058     kernel32:KERNEL32.dll
 0002:0000005c       __imp__GetACP@0            1003705c     kernel32:KERNEL32.dll
 0002:00000060       __imp__EnumSystemLocalesW@8 10037060     kernel32:KERNEL32.dll
 0002:00000064       __imp__GetUserDefaultLCID@0 10037064     kernel32:KERNEL32.dll
 0002:00000068       __imp__IsValidLocale@8     10037068     kernel32:KERNEL32.dll
 0002:0000006c       __imp__HeapFree@12         1003706c     kernel32:KERNEL32.dll
 0002:00000070       __imp__HeapAlloc@12        10037070     kernel32:KERNEL32.dll
 0002:00000074       __imp__ExitProcess@4       10037074     kernel32:KERNEL32.dll
 0002:00000078       __imp__WriteConsoleW@20    10037078     kernel32:KERNEL32.dll
 0002:0000007c       __imp__GetModuleHandleExW@12 1003707c     kernel32:KERNEL32.dll
 0002:00000080       __imp__GetModuleFileNameW@12 10037080     kernel32:KERNEL32.dll
 0002:00000084       __imp__GetModuleFileNameA@12 10037084     kernel32:KERNEL32.dll
 0002:00000088       __imp__GetFileType@4       10037088     kernel32:KERNEL32.dll
 0002:0000008c       __imp__GetStdHandle@4      1003708c     kernel32:KERNEL32.dll
 0002:00000090       __imp__LoadLibraryExW@12   10037090     kernel32:KERNEL32.dll
 0002:00000094       __imp__FreeLibrary@4       10037094     kernel32:KERNEL32.dll
 0002:00000098       __imp__InterlockedFlushSList@4 10037098     kernel32:KERNEL32.dll
 0002:0000009c       __imp__RtlUnwind@16        1003709c     kernel32:KERNEL32.dll
 0002:000000a0       __imp__RaiseException@16   100370a0     kernel32:KERNEL32.dll
 0002:000000a4       __imp__InitializeSListHead@4 100370a4     kernel32:KERNEL32.dll
 0002:000000a8       __imp__GetCurrentProcessId@0 100370a8     kernel32:KERNEL32.dll
 0002:000000ac       __imp__QueryPerformanceCounter@4 100370ac     kernel32:KERNEL32.dll
 0002:000000b0       __imp__GetStartupInfoW@4   100370b0     kernel32:KERNEL32.dll
 0002:000000b4       __imp__IsDebuggerPresent@0 100370b4     kernel32:KERNEL32.dll
 0002:000000b8       __imp__IsProcessorFeaturePresent@4 100370b8     kernel32:KERNEL32.dll
 0002:000000bc       __imp__TerminateProcess@8  100370bc     kernel32:KERNEL32.dll
 0002:000000c0       __imp__GetCurrentProcess@0 100370c0     kernel32:KERNEL32.dll
 0002:000000c4       __imp__SetUnhandledExceptionFilter@4 100370c4     kernel32:KERNEL32.dll
 0002:000000c8       __imp__UnhandledExceptionFilter@4 100370c8     kernel32:KERNEL32.dll
 0002:000000cc       __imp__GetCPInfo@8         100370cc     kernel32:KERNEL32.dll
 0002:000000d0       __imp__GetStringTypeW@16   100370d0     kernel32:KERNEL32.dll
 0002:000000d4       __imp__GetLocaleInfoW@16   100370d4     kernel32:KERNEL32.dll
 0002:000000d8       __imp__LCMapStringW@24     100370d8     kernel32:KERNEL32.dll
 0002:000000dc       __imp__MultiByteToWideChar@24 100370dc     kernel32:KERNEL32.dll
 0002:000000e0       __imp__DecodePointer@4     100370e0     kernel32:KERNEL32.dll
 0002:000000e4       __imp__EncodePointer@4     100370e4     kernel32:KERNEL32.dll
 0002:000000e8       __imp__GetModuleHandleW@4  100370e8     kernel32:KERNEL32.dll
 0002:000000ec       __imp__GetSystemTimeAsFileTime@4 100370ec     kernel32:KERNEL32.dll
 0002:000000f0       __imp__TlsFree@4           100370f0     kernel32:KERNEL32.dll
 0002:000000f4       __imp__TlsSetValue@8       100370f4     kernel32:KERNEL32.dll
 0002:000000f8       __imp__TlsGetValue@4       100370f8     kernel32:KERNEL32.dll
 0002:000000fc       __imp__TlsAlloc@0          100370fc     kernel32:KERNEL32.dll
 0002:00000100       __imp__SwitchToThread@0    10037100     kernel32:KERNEL32.dll
 0002:00000104       __imp__InitializeCriticalSectionAndSpinCount@8 10037104     kernel32:KERNEL32.dll
 0002:00000108       __imp__SetLastError@4      10037108     kernel32:KERNEL32.dll
 0002:0000010c       __imp__DeleteCriticalSection@4 1003710c     kernel32:KERNEL32.dll
 0002:00000110       __imp__LeaveCriticalSection@4 10037110     kernel32:KERNEL32.dll
 0002:00000114       __imp__EnterCriticalSection@4 10037114     kernel32:KERNEL32.dll
 0002:00000118       __imp__WideCharToMultiByte@32 10037118     kernel32:KERNEL32.dll
 0002:0000011c       __imp__GetLastError@0      1003711c     kernel32:KERNEL32.dll
 0002:00000120       __imp__CreateFileW@28      10037120     kernel32:KERNEL32.dll
 0002:00000124       \177KERNEL32_NULL_THUNK_DATA 10037124     kernel32:KERNEL32.dll
 0002:00000128       __imp__JNI_CreateJavaVM@12 10037128     jvm:jvm.dll
 0002:0000012c       \177jvm_NULL_THUNK_DATA    1003712c     jvm:jvm.dll
 0002:00000130       __imp_?EmitAsyncInit@node@@YA?AUasync_context@1@PAVIsolate@v8@@V?$Local@VObject@v8@@@4@V?$Local@VString@v8@@@4@N@Z 10037130     node:node.dll
 0002:00000134       __imp_?MakeCallback@node@@YA?AV?$MaybeLocal@VValue@v8@@@v8@@PAVIsolate@3@V?$Local@VObject@v8@@@3@V?$Local@VFunction@v8@@@3@HPAV?$Local@VValue@v8@@@3@Uasync_context@1@@Z 10037134     node:node.dll
 0002:00000138       __imp_?EmitAsyncDestroy@node@@YAXPAVIsolate@v8@@Uasync_context@1@@Z 10037138     node:node.dll
 0002:0000013c       __imp__uv_default_loop     1003713c     node:node.dll
 0002:00000140       __imp__uv_queue_work       10037140     node:node.dll
 0002:00000144       __imp__node_module_register 10037144     node:node.dll
 0002:00000148       \177node_NULL_THUNK_DATA   10037148     node:node.dll
 0002:0000014c       __imp_?IsUint32@Value@v8@@QBE_NXZ 1003714c     nw:nw.dll
 0002:00000150       __imp_?IsInt32@Value@v8@@QBE_NXZ 10037150     nw:nw.dll
 0002:00000154       __imp_?IsBoolean@Value@v8@@QBE_NXZ 10037154     nw:nw.dll
 0002:00000158       __imp_?New@Float64Array@v8@@SA?AV?$Local@VFloat64Array@v8@@@2@V?$Local@VArrayBuffer@v8@@@2@II@Z 10037158     nw:nw.dll
 0002:0000015c       __imp_?New@Uint16Array@v8@@SA?AV?$Local@VUint16Array@v8@@@2@V?$Local@VArrayBuffer@v8@@@2@II@Z 1003715c     nw:nw.dll
 0002:00000160       __imp_??1Value@String@v8@@QAE@XZ 10037160     nw:nw.dll
 0002:00000164       __imp_??0Value@String@v8@@QAE@V?$Local@VValue@v8@@@2@@Z 10037164     nw:nw.dll
 0002:00000168       __imp_?New@Int32Array@v8@@SA?AV?$Local@VInt32Array@v8@@@2@V?$Local@VArrayBuffer@v8@@@2@II@Z 10037168     nw:nw.dll
 0002:0000016c       __imp_?ToInteger@Value@v8@@QBE?AV?$MaybeLocal@VInteger@v8@@@2@V?$Local@VContext@v8@@@2@@Z 1003716c     nw:nw.dll
 0002:00000170       __imp_?GetPrivate@Object@v8@@QAE?AV?$MaybeLocal@VValue@v8@@@2@V?$Local@VContext@v8@@@2@V?$Local@VPrivate@v8@@@2@@Z 10037170     nw:nw.dll
 0002:00000174       __imp_?SetPrivate@Object@v8@@QAE?AV?$Maybe@_N@2@V?$Local@VContext@v8@@@2@V?$Local@VPrivate@v8@@@2@V?$Local@VValue@v8@@@2@@Z 10037174     nw:nw.dll
 0002:00000178       __imp_?HasPrivate@Object@v8@@QAE?AV?$Maybe@_N@2@V?$Local@VContext@v8@@@2@V?$Local@VPrivate@v8@@@2@@Z 10037178     nw:nw.dll
 0002:0000017c       __imp_?Set@Object@v8@@QAE_NIV?$Local@VValue@v8@@@2@@Z 1003717c     nw:nw.dll
 0002:00000180       __imp_?New@Int16Array@v8@@SA?AV?$Local@VInt16Array@v8@@@2@V?$Local@VArrayBuffer@v8@@@2@II@Z 10037180     nw:nw.dll
 0002:00000184       __imp_?New@Uint8Array@v8@@SA?AV?$Local@VUint8Array@v8@@@2@V?$Local@VArrayBuffer@v8@@@2@II@Z 10037184     nw:nw.dll
 0002:00000188       __imp_?BooleanValue@Value@v8@@QBE?AV?$Maybe@_N@2@V?$Local@VContext@v8@@@2@@Z 10037188     nw:nw.dll
 0002:0000018c       __imp_?New@ArrayBuffer@v8@@SA?AV?$Local@VArrayBuffer@v8@@@2@PAVIsolate@2@I@Z 1003718c     nw:nw.dll
 0002:00000190       __imp_?GetContents@ArrayBuffer@v8@@QAE?AVContents@12@XZ 10037190     nw:nw.dll
 0002:00000194       __imp_?New@Float32Array@v8@@SA?AV?$Local@VFloat32Array@v8@@@2@V?$Local@VArrayBuffer@v8@@@2@II@Z 10037194     nw:nw.dll
 0002:00000198       __imp_?New@NumberObject@v8@@SA?AV?$Local@VValue@v8@@@2@PAVIsolate@2@N@Z 10037198     nw:nw.dll
 0002:0000019c       __imp_?ForApi@Private@v8@@SA?AV?$Local@VPrivate@v8@@@2@PAVIsolate@2@V?$Local@VString@v8@@@2@@Z 1003719c     nw:nw.dll
 0002:000001a0       __imp_?New@Int8Array@v8@@SA?AV?$Local@VInt8Array@v8@@@2@V?$Local@VArrayBuffer@v8@@@2@II@Z 100371a0     nw:nw.dll
 0002:000001a4       __imp_?New@Number@v8@@SA?AV?$Local@VNumber@v8@@@2@PAVIsolate@2@N@Z 100371a4     nw:nw.dll
 0002:000001a8       __imp_?NewInstance@Function@v8@@QBE?AV?$MaybeLocal@VObject@v8@@@2@V?$Local@VContext@v8@@@2@@Z 100371a8     nw:nw.dll
 0002:000001ac       __imp_?SetAccessor@ObjectTemplate@v8@@QAEXV?$Local@VName@v8@@@2@P6AX0ABV?$PropertyCallbackInfo@VValue@v8@@@2@@ZP6AX0V?$Local@VValue@v8@@@2@ABV?$PropertyCallbackInfo@X@2@@Z3W4AccessControl@2@W4PropertyAttribute@2@V?$Local@VAccessorSignature@v8@@@2@@Z 100371ac     nw:nw.dll
 0002:000001b0       __imp_?SetHandler@ObjectTemplate@v8@@QAEXABUIndexedPropertyHandlerConfiguration@2@@Z 100371b0     nw:nw.dll
 0002:000001b4       __imp_?GetFunction@FunctionTemplate@v8@@QAE?AV?$MaybeLocal@VFunction@v8@@@2@V?$Local@VContext@v8@@@2@@Z 100371b4     nw:nw.dll
 0002:000001b8       __imp_?New@Integer@v8@@SA?AV?$Local@VInteger@v8@@@2@PAVIsolate@2@H@Z 100371b8     nw:nw.dll
 0002:000001bc       __imp_?ToString@Value@v8@@QBE?AV?$Local@VString@v8@@@2@XZ 100371bc     nw:nw.dll
 0002:000001c0       __imp_?New@ObjectTemplate@v8@@SA?AV?$Local@VObjectTemplate@v8@@@2@PAVIsolate@2@V?$Local@VFunctionTemplate@v8@@@2@@Z 100371c0     nw:nw.dll
 0002:000001c4       __imp_?NewInstance@ObjectTemplate@v8@@QAE?AV?$MaybeLocal@VObject@v8@@@2@V?$Local@VContext@v8@@@2@@Z 100371c4     nw:nw.dll
 0002:000001c8       __imp_?SetInternalFieldCount@ObjectTemplate@v8@@QAEXH@Z 100371c8     nw:nw.dll
 0002:000001cc       __imp_?Call@Function@v8@@QAE?AV?$Local@VValue@v8@@@2@V32@HQAV32@@Z 100371cc     nw:nw.dll
 0002:000001d0       __imp_?Set@Object@v8@@QAE_NV?$Local@VValue@v8@@@2@0@Z 100371d0     nw:nw.dll
 0002:000001d4       __imp_?Get@Object@v8@@QAE?AV?$Local@VValue@v8@@@2@I@Z 100371d4     nw:nw.dll
 0002:000001d8       __imp_?Get@Object@v8@@QAE?AV?$Local@VValue@v8@@@2@V32@@Z 100371d8     nw:nw.dll
 0002:000001dc       __imp_?SetAccessor@Object@v8@@QAE?AV?$Maybe@_N@2@V?$Local@VContext@v8@@@2@V?$Local@VName@v8@@@2@P6AX1ABV?$PropertyCallbackInfo@VValue@v8@@@2@@ZP6AX1V?$Local@VValue@v8@@@2@ABV?$PropertyCallbackInfo@X@2@@ZV?$MaybeLocal@VValue@v8@@@2@W4AccessControl@2@W4PropertyAttribute@2@W4SideEffectType@2@@Z 100371dc     nw:nw.dll
 0002:000001e0       __imp_?InternalFieldCount@Object@v8@@QAEHXZ 100371e0     nw:nw.dll
 0002:000001e4       __imp_?SetInternalField@Object@v8@@QAEXHV?$Local@VValue@v8@@@2@@Z 100371e4     nw:nw.dll
 0002:000001e8       __imp_?SetAlignedPointerInInternalField@Object@v8@@QAEXHPAX@Z 100371e8     nw:nw.dll
 0002:000001ec       __imp_?New@Object@v8@@SA?AV?$Local@VObject@v8@@@2@PAVIsolate@2@@Z 100371ec     nw:nw.dll
 0002:000001f0       __imp_?SlowGetInternalField@Object@v8@@AAE?AV?$Local@VValue@v8@@@2@H@Z 100371f0     nw:nw.dll
 0002:000001f4       __imp_?SlowGetAlignedPointerFromInternalField@Object@v8@@AAEPAXH@Z 100371f4     nw:nw.dll
 0002:000001f8       __imp_?Length@String@v8@@QBEHXZ 100371f8     nw:nw.dll
 0002:000001fc       __imp_?NewFromUtf8@String@v8@@SA?AV?$MaybeLocal@VString@v8@@@2@PAVIsolate@2@PBDW4NewStringType@2@H@Z 100371fc     nw:nw.dll
 0002:00000200       __imp_??0Utf8Value@String@v8@@QAE@V?$Local@VValue@v8@@@2@@Z 10037200     nw:nw.dll
 0002:00000204       __imp_??1Utf8Value@String@v8@@QAE@XZ 10037204     nw:nw.dll
 0002:00000208       __imp_??0EscapableHandleScope@v8@@QAE@PAVIsolate@1@@Z 10037208     nw:nw.dll
 0002:0000020c       __imp_?Escape@EscapableHandleScope@v8@@AAEPAPAVObject@internal@2@PAPAV342@@Z 1003720c     nw:nw.dll
 0002:00000210       __imp_??0TryCatch@v8@@QAE@PAVIsolate@1@@Z 10037210     nw:nw.dll
 0002:00000214       __imp_??1TryCatch@v8@@QAE@XZ 10037214     nw:nw.dll
 0002:00000218       __imp_?HasCaught@TryCatch@v8@@QBE_NXZ 10037218     nw:nw.dll
 0002:0000021c       __imp_?Message@TryCatch@v8@@QBE?AV?$Local@VMessage@v8@@@2@XZ 1003721c     nw:nw.dll
 0002:00000220       __imp_?Reset@TryCatch@v8@@QAEXXZ 10037220     nw:nw.dll
 0002:00000224       __imp_?SetCaptureMessage@TryCatch@v8@@QAEX_N@Z 10037224     nw:nw.dll
 0002:00000228       __imp_?Get@Message@v8@@QBE?AV?$Local@VString@v8@@@2@XZ 10037228     nw:nw.dll
 0002:0000022c       __imp_?IsFunction@Value@v8@@QBE_NXZ 1003722c     nw:nw.dll
 0002:00000230       __imp_?IsArray@Value@v8@@QBE_NXZ 10037230     nw:nw.dll
 0002:00000234       __imp_?IsObject@Value@v8@@QBE_NXZ 10037234     nw:nw.dll
 0002:00000238       __imp_?IsNumber@Value@v8@@QBE_NXZ 10037238     nw:nw.dll
 0002:0000023c       __imp_?IsNativeError@Value@v8@@QBE_NXZ 1003723c     nw:nw.dll
 0002:00000240       __imp_?NumberValue@Value@v8@@QBE?AV?$Maybe@N@2@V?$Local@VContext@v8@@@2@@Z 10037240     nw:nw.dll
 0002:00000244       __imp_?IntegerValue@Value@v8@@QBE?AV?$Maybe@_J@2@V?$Local@VContext@v8@@@2@@Z 10037244     nw:nw.dll
 0002:00000248       __imp_?Int32Value@Value@v8@@QBE?AV?$Maybe@H@2@V?$Local@VContext@v8@@@2@@Z 10037248     nw:nw.dll
 0002:0000024c       __imp_?GlobalizeReference@V8@v8@@CAPAPAVObject@internal@2@PAVIsolate@42@PAPAV342@@Z 1003724c     nw:nw.dll
 0002:00000250       __imp_?DisposeGlobal@V8@v8@@CAXPAPAVObject@internal@2@@Z 10037250     nw:nw.dll
 0002:00000254       __imp_?MakeWeak@V8@v8@@CAXPAPAVObject@internal@2@PAXP6AXABV?$WeakCallbackInfo@X@2@@ZW4WeakCallbackType@2@@Z 10037254     nw:nw.dll
 0002:00000258       __imp_?ClearWeak@V8@v8@@CAPAXPAPAVObject@internal@2@@Z 10037258     nw:nw.dll
 0002:0000025c       __imp_?FromJustIsNothing@V8@v8@@CAXXZ 1003725c     nw:nw.dll
 0002:00000260       __imp_?ToLocalEmpty@V8@v8@@CAXXZ 10037260     nw:nw.dll
 0002:00000264       __imp_?New@FunctionTemplate@v8@@SA?AV?$Local@VFunctionTemplate@v8@@@2@PAVIsolate@2@P6AXABV?$FunctionCallbackInfo@VValue@v8@@@2@@ZV?$Local@VValue@v8@@@2@V?$Local@VSignature@v8@@@2@HW4ConstructorBehavior@2@W4SideEffectType@2@@Z 10037264     nw:nw.dll
 0002:00000268       __imp_?GetFunction@FunctionTemplate@v8@@QAE?AV?$Local@VFunction@v8@@@2@XZ 10037268     nw:nw.dll
 0002:0000026c       __imp_?InstanceTemplate@FunctionTemplate@v8@@QAE?AV?$Local@VObjectTemplate@v8@@@2@XZ 1003726c     nw:nw.dll
 0002:00000270       __imp_?PrototypeTemplate@FunctionTemplate@v8@@QAE?AV?$Local@VObjectTemplate@v8@@@2@XZ 10037270     nw:nw.dll
 0002:00000274       __imp_?SetClassName@FunctionTemplate@v8@@QAEXV?$Local@VString@v8@@@2@@Z 10037274     nw:nw.dll
 0002:00000278       __imp_?Length@Array@v8@@QBEIXZ 10037278     nw:nw.dll
 0002:0000027c       __imp_?New@Array@v8@@SA?AV?$Local@VArray@v8@@@2@PAVIsolate@2@H@Z 1003727c     nw:nw.dll
 0002:00000280       __imp_?TypeError@Exception@v8@@SA?AV?$Local@VValue@v8@@@2@V?$Local@VString@v8@@@2@@Z 10037280     nw:nw.dll
 0002:00000284       __imp_?Error@Exception@v8@@SA?AV?$Local@VValue@v8@@@2@V?$Local@VString@v8@@@2@@Z 10037284     nw:nw.dll
 0002:00000288       __imp_?Set@Template@v8@@QAEXV?$Local@VName@v8@@@2@V?$Local@VData@v8@@@2@W4PropertyAttribute@2@@Z 10037288     nw:nw.dll
 0002:0000028c       __imp_??0HandleScope@v8@@QAE@PAVIsolate@1@@Z 1003728c     nw:nw.dll
 0002:00000290       __imp_??1HandleScope@v8@@QAE@XZ 10037290     nw:nw.dll
 0002:00000294       __imp_?CreateHandle@HandleScope@v8@@CAPAPAVObject@internal@2@PAVHeapObject@42@PAV342@@Z 10037294     nw:nw.dll
 0002:00000298       __imp_?CreateHandle@HandleScope@v8@@KAPAPAVObject@internal@2@PAVIsolate@42@PAV342@@Z 10037298     nw:nw.dll
 0002:0000029c       __imp_?GetCurrent@Isolate@v8@@SAPAV12@XZ 1003729c     nw:nw.dll
 0002:000002a0       __imp_?GetCurrentContext@Isolate@v8@@QAE?AV?$Local@VContext@v8@@@2@XZ 100372a0     nw:nw.dll
 0002:000002a4       __imp_?ThrowException@Isolate@v8@@QAE?AV?$Local@VValue@v8@@@2@V32@@Z 100372a4     nw:nw.dll
 0002:000002a8       __imp_?New@Signature@v8@@SA?AV?$Local@VSignature@v8@@@2@PAVIsolate@2@V?$Local@VFunctionTemplate@v8@@@2@@Z 100372a8     nw:nw.dll
 0002:000002ac       __imp_?New@External@v8@@SA?AV?$Local@VExternal@v8@@@2@PAVIsolate@2@PAX@Z 100372ac     nw:nw.dll
 0002:000002b0       __imp_?Value@External@v8@@QBEPAXXZ 100372b0     nw:nw.dll
 0002:000002b4       __imp_?Global@Context@v8@@QAE?AV?$Local@VObject@v8@@@2@XZ 100372b4     nw:nw.dll
 0002:000002b8       __imp_?NewFromTwoByte@String@v8@@SA?AV?$MaybeLocal@VString@v8@@@2@PAVIsolate@2@PBGW4NewStringType@2@H@Z 100372b8     nw:nw.dll
 0002:000002bc       \177nw_NULL_THUNK_DATA     100372bc     nw:nw.dll
 0002:000002c0       ___guard_check_icall_fptr  100372c0     LIBCMT:guard_support.obj
 0002:000002c4       ___xc_a                    100372c4     LIBCMT:initializers.obj
 0002:00000308       __register_nodejavabridge_bindings_ 10037308     nodeJavaBridge.obj
 0002:0000030c       ___xc_z                    1003730c     LIBCMT:initializers.obj
 0002:00000310       ___xi_a                    10037310     LIBCMT:initializers.obj
 0002:00000318       ___acrt_stdio_initializer  10037318     libucrt:stdio_initializer.obj
 0002:0000031c       ___acrt_tran_sse2_initializer 1003731c     libucrt:sse2_initializer.obj
 0002:00000320       ___acrt_timeset_initializer 10037320     libucrt:timeset_initializer.obj
 0002:00000324       ___acrt_multibyte_initializer 10037324     libucrt:multibyte_initializer.obj
 0002:00000328       ___xi_z                    10037328     LIBCMT:initializers.obj
 0002:0000032c       ___xp_a                    1003732c     LIBCMT:initializers.obj
 0002:00000330       ___acrt_locale_terminator  10037330     libucrt:locale_initializer.obj
 0002:00000334       ___dcrt_console_output_terminator 10037334     libucrt:console_output_initializer.obj
 0002:00000338       ___acrt_stdio_terminator   10037338     libucrt:stdio_initializer.obj
 0002:0000033c       ___xp_z                    1003733c     LIBCMT:initializers.obj
 0002:00000340       ___xt_a                    10037340     LIBCMT:initializers.obj
 0002:00000344       ___xt_z                    10037344     LIBCMT:initializers.obj
 0002:00000354       ??_7exception@std@@6B@     10037354     libcpmt:xonce.obj
 0002:0000035c       ??_C@_0BC@EOODALEL@Unknown?5exception@ 1003735c     libcpmt:xonce.obj
 0002:00000374       ??_7runtime_error@std@@6B@ 10037374     libcpmt:xonce.obj
 0002:00000380       ??_7_System_error@std@@6B@ 10037380     libcpmt:xonce.obj
 0002:00000388       ??_C@_0O@BFJCFAAK@unknown?5error@ 10037388     libcpmt:xonce.obj
 0002:0000039c       ??_7_Facet_base@std@@6B@   1003739c     libcpmt:locale0.obj
 0002:000003ac       ??_7_Locimp@locale@std@@6B@ 100373ac     libcpmt:locale0.obj
 0002:000003b8       ??_C@_01NBENCBCI@?$CK@     100373b8     libcpmt:locale0.obj
 0002:000003bc       ??_C@_01GFHCPBMG@C@        100373bc     libcpmt:locale0.obj
 0002:000003c4       ??_7bad_alloc@std@@6B@     100373c4     libcpmt:xthrow.obj
 0002:000003cc       ??_C@_0P@GHFPNOJB@bad?5allocation@ 100373cc     libcpmt:xthrow.obj
 0002:000003e0       ??_7logic_error@std@@6B@   100373e0     libcpmt:xthrow.obj
 0002:000003ec       ??_7length_error@std@@6B@  100373ec     libcpmt:xthrow.obj
 0002:000003f8       ??_7out_of_range@std@@6B@  100373f8     libcpmt:xthrow.obj
 0002:00000400       ?_BADOFF@std@@3_JB         10037400     libcpmt:ios.obj
 0002:000008e0       ??_C@_0BN@LKKBCCDB@address?5family?5not?5supported@ 100378e0     libcpmt:syserror.obj
 0002:00000900       ??_C@_0P@LDMLAFHI@address?5in?5use@ 10037900     libcpmt:syserror.obj
 0002:00000910       ??_C@_0BG@DHPCNBJB@address?5not?5available@ 10037910     libcpmt:syserror.obj
 0002:00000928       ??_C@_0BC@DFIBIBIL@already?5connected@ 10037928     libcpmt:syserror.obj
 0002:0000093c       ??_C@_0BH@CAKOHOMI@argument?5list?5too?5long@ 1003793c     libcpmt:syserror.obj
 0002:00000954       ??_C@_0BH@CGIMPKIM@argument?5out?5of?5domain@ 10037954     libcpmt:syserror.obj
 0002:0000096c       ??_C@_0M@KGHGGJGL@bad?5address@ 1003796c     libcpmt:syserror.obj
 0002:00000978       ??_C@_0BE@MPJPGCEO@bad?5file?5descriptor@ 10037978     libcpmt:syserror.obj
 0002:0000098c       ??_C@_0M@PMMIEFCP@bad?5message@ 1003798c     libcpmt:syserror.obj
 0002:00000998       ??_C@_0M@KPHOFDBE@broken?5pipe@ 10037998     libcpmt:syserror.obj
 0002:000009a4       ??_C@_0BD@MGNDDEGM@connection?5aborted@ 100379a4     libcpmt:syserror.obj
 0002:000009b8       ??_C@_0BP@KAIHPOGN@connection?5already?5in?5progress@ 100379b8     libcpmt:syserror.obj
 0002:000009d8       ??_C@_0BD@PJLIIJEL@connection?5refused@ 100379d8     libcpmt:syserror.obj
 0002:000009ec       ??_C@_0BB@IECNJNOI@connection?5reset@ 100379ec     libcpmt:syserror.obj
 0002:00000a00       ??_C@_0BC@PPHBOELF@cross?5device?5link@ 10037a00     libcpmt:syserror.obj
 0002:00000a14       ??_C@_0BN@KDMIFEIP@destination?5address?5required@ 10037a14     libcpmt:syserror.obj
 0002:00000a34       ??_C@_0BI@NGCEHDD@device?5or?5resource?5busy@ 10037a34     libcpmt:syserror.obj
 0002:00000a4c       ??_C@_0BE@JIDOCPHM@directory?5not?5empty@ 10037a4c     libcpmt:syserror.obj
 0002:00000a60       ??_C@_0BI@BNCLIGPB@executable?5format?5error@ 10037a60     libcpmt:syserror.obj
 0002:00000a78       ??_C@_0M@MIDIAGJP@file?5exists@ 10037a78     libcpmt:syserror.obj
 0002:00000a84       ??_C@_0P@DNAJLBJK@file?5too?5large@ 10037a84     libcpmt:syserror.obj
 0002:00000a94       ??_C@_0BC@EJHOMAAK@filename?5too?5long@ 10037a94     libcpmt:syserror.obj
 0002:00000aa8       ??_C@_0BH@KEFGLDAF@function?5not?5supported@ 10037aa8     libcpmt:syserror.obj
 0002:00000ac0       ??_C@_0BB@DHFDFGDM@host?5unreachable@ 10037ac0     libcpmt:syserror.obj
 0002:00000ad4       ??_C@_0BD@JPHBMONG@identifier?5removed@ 10037ad4     libcpmt:syserror.obj
 0002:00000ae8       ??_C@_0BG@CDNPAGJK@illegal?5byte?5sequence@ 10037ae8     libcpmt:syserror.obj
 0002:00000b00       ??_C@_0CD@BNPLBMNA@inappropriate?5io?5control?5operat@ 10037b00     libcpmt:syserror.obj
 0002:00000b24       ??_C@_0M@EGEKIIMP@interrupted@ 10037b24     libcpmt:syserror.obj
 0002:00000b30       ??_C@_0BB@FCMFBGOM@invalid?5argument@ 10037b30     libcpmt:syserror.obj
 0002:00000b44       ??_C@_0N@OHAFKDEK@invalid?5seek@ 10037b44     libcpmt:syserror.obj
 0002:00000b54       ??_C@_08GLNPIFBN@io?5error@ 10037b54     libcpmt:syserror.obj
 0002:00000b60       ??_C@_0P@FLLDBIDK@is?5a?5directory@ 10037b60     libcpmt:syserror.obj
 0002:00000b70       ??_C@_0N@IFLPBIOP@message?5size@ 10037b70     libcpmt:syserror.obj
 0002:00000b80       ??_C@_0N@KIIEAAIO@network?5down@ 10037b80     libcpmt:syserror.obj
 0002:00000b90       ??_C@_0O@FNPDBHEE@network?5reset@ 10037b90     libcpmt:syserror.obj
 0002:00000ba0       ??_C@_0BE@IFNCKGE@network?5unreachable@ 10037ba0     libcpmt:syserror.obj
 0002:00000bb4       ??_C@_0BA@PFFCAOFK@no?5buffer?5space@ 10037bb4     libcpmt:syserror.obj
 0002:00000bc4       ??_C@_0BB@IEPBLJHK@no?5child?5process@ 10037bc4     libcpmt:syserror.obj
 0002:00000bd8       ??_C@_07PLECNNKG@no?5link@ 10037bd8     libcpmt:syserror.obj
 0002:00000be0       ??_C@_0BC@NJECKMKE@no?5lock?5available@ 10037be0     libcpmt:syserror.obj
 0002:00000bf4       ??_C@_0BF@PBGGPKKE@no?5message?5available@ 10037bf4     libcpmt:syserror.obj
 0002:00000c0c       ??_C@_0L@EDOLMPAK@no?5message@ 10037c0c     libcpmt:syserror.obj
 0002:00000c18       ??_C@_0BD@EAMBFIDF@no?5protocol?5option@ 10037c18     libcpmt:syserror.obj
 0002:00000c2c       ??_C@_0BD@IJDJKDEA@no?5space?5on?5device@ 10037c2c     libcpmt:syserror.obj
 0002:00000c40       ??_C@_0BE@MKFDAFMP@no?5stream?5resources@ 10037c40     libcpmt:syserror.obj
 0002:00000c54       ??_C@_0BK@IMCPHCBI@no?5such?5device?5or?5address@ 10037c54     libcpmt:syserror.obj
 0002:00000c70       ??_C@_0P@FDINDDOK@no?5such?5device@ 10037c70     libcpmt:syserror.obj
 0002:00000c80       ??_C@_0BK@NDOCBPGE@no?5such?5file?5or?5directory@ 10037c80     libcpmt:syserror.obj
 0002:00000c9c       ??_C@_0BA@ENLPPKBN@no?5such?5process@ 10037c9c     libcpmt:syserror.obj
 0002:00000cac       ??_C@_0BA@DOCPFFJG@not?5a?5directory@ 10037cac     libcpmt:syserror.obj
 0002:00000cbc       ??_C@_0N@POEIPGGF@not?5a?5socket@ 10037cbc     libcpmt:syserror.obj
 0002:00000ccc       ??_C@_0N@LGAPMMPI@not?5a?5stream@ 10037ccc     libcpmt:syserror.obj
 0002:00000cdc       ??_C@_0O@GLMIBBEG@not?5connected@ 10037cdc     libcpmt:syserror.obj
 0002:00000cec       ??_C@_0BC@ENOOLCNF@not?5enough?5memory@ 10037cec     libcpmt:syserror.obj
 0002:00000d00       ??_C@_0O@NHEDABJP@not?5supported@ 10037d00     libcpmt:syserror.obj
 0002:00000d10       ??_C@_0BD@MOLBPMEA@operation?5canceled@ 10037d10     libcpmt:syserror.obj
 0002:00000d24       ??_C@_0BG@KDKHOPCO@operation?5in?5progress@ 10037d24     libcpmt:syserror.obj
 0002:00000d3c       ??_C@_0BI@OHIEJAAB@operation?5not?5permitted@ 10037d3c     libcpmt:syserror.obj
 0002:00000d54       ??_C@_0BI@LNEGIFLN@operation?5not?5supported@ 10037d54     libcpmt:syserror.obj
 0002:00000d6c       ??_C@_0BG@OEMDKMEE@operation?5would?5block@ 10037d6c     libcpmt:syserror.obj
 0002:00000d84       ??_C@_0L@BLPOFLNJ@owner?5dead@ 10037d84     libcpmt:syserror.obj
 0002:00000d90       ??_C@_0BC@CIJDGCDI@permission?5denied@ 10037d90     libcpmt:syserror.obj
 0002:00000da4       ??_C@_0P@FNPOCJBE@protocol?5error@ 10037da4     libcpmt:syserror.obj
 0002:00000db4       ??_C@_0BH@JPPPLHJB@protocol?5not?5supported@ 10037db4     libcpmt:syserror.obj
 0002:00000dcc       ??_C@_0BG@EICBIHDP@read?5only?5file?5system@ 10037dcc     libcpmt:syserror.obj
 0002:00000de4       ??_C@_0BO@BJBOMOEJ@resource?5deadlock?5would?5occur@ 10037de4     libcpmt:syserror.obj
 0002:00000e04       ??_C@_0BP@LKNGHENJ@resource?5unavailable?5try?5again@ 10037e04     libcpmt:syserror.obj
 0002:00000e24       ??_C@_0BE@GOIPJJHG@result?5out?5of?5range@ 10037e24     libcpmt:syserror.obj
 0002:00000e38       ??_C@_0BG@MPLKFPAE@state?5not?5recoverable@ 10037e38     libcpmt:syserror.obj
 0002:00000e50       ??_C@_0P@DIIFGFCG@stream?5timeout@ 10037e50     libcpmt:syserror.obj
 0002:00000e60       ??_C@_0P@IPFDMIFL@text?5file?5busy@ 10037e60     libcpmt:syserror.obj
 0002:00000e70       ??_C@_09KJPPMAOI@timed?5out@ 10037e70     libcpmt:syserror.obj
 0002:00000e7c       ??_C@_0BO@HACHBEKI@too?5many?5files?5open?5in?5system@ 10037e7c     libcpmt:syserror.obj
 0002:00000e9c       ??_C@_0BE@GHAFMPAH@too?5many?5files?5open@ 10037e9c     libcpmt:syserror.obj
 0002:00000eb0       ??_C@_0P@HCOMKFCC@too?5many?5links@ 10037eb0     libcpmt:syserror.obj
 0002:00000ec0       ??_C@_0BO@EFGOJEF@too?5many?5symbolic?5link?5levels@ 10037ec0     libcpmt:syserror.obj
 0002:00000ee0       ??_C@_0BA@KGKGOOJA@value?5too?5large@ 10037ee0     libcpmt:syserror.obj
 0002:00000ef0       ??_C@_0BE@MIEJDDNH@wrong?5protocol?5type@ 10037ef0     libcpmt:syserror.obj
 0002:00000f04       ??_C@_1BK@MGMFAEKH@?$AAk?$AAe?$AAr?$AAn?$AAe?$AAl?$AA3?$AA2?$AA?4?$AAd?$AAl?$AAl@ 10037f04     libcpmt:winapisupp.obj
 0002:00000f20       ??_C@_08KNHFBNJ@FlsAlloc@  10037f20     libcpmt:winapisupp.obj
 0002:00000f2c       ??_C@_07PEJMOBNF@FlsFree@  10037f2c     libcpmt:winapisupp.obj
 0002:00000f34       ??_C@_0M@GDNOONDI@FlsGetValue@ 10037f34     libcpmt:winapisupp.obj
 0002:00000f40       ??_C@_0M@JCPCPOEF@FlsSetValue@ 10037f40     libcpmt:winapisupp.obj
 0002:00000f4c       ??_C@_0BM@HCFOFFN@InitializeCriticalSectionEx@ 10037f4c     libcpmt:winapisupp.obj
 0002:00000f68       ??_C@_0BE@GPLMMCMH@InitOnceExecuteOnce@ 10037f68     libcpmt:winapisupp.obj
 0002:00000f7c       ??_C@_0P@DLHPPCNH@CreateEventExW@ 10037f7c     libcpmt:winapisupp.obj
 0002:00000f8c       ??_C@_0BB@MEFPJLHN@CreateSemaphoreW@ 10037f8c     libcpmt:winapisupp.obj
 0002:00000fa0       ??_C@_0BD@KIEEOEEH@CreateSemaphoreExW@ 10037fa0     libcpmt:winapisupp.obj
 0002:00000fb4       ??_C@_0BG@OGFAJCKC@CreateThreadpoolTimer@ 10037fb4     libcpmt:winapisupp.obj
 0002:00000fcc       ??_C@_0BD@LPLEMMDI@SetThreadpoolTimer@ 10037fcc     libcpmt:winapisupp.obj
 0002:00000fe0       ??_C@_0CA@FMNJENH@WaitForThreadpoolTimerCallbacks@ 10037fe0     libcpmt:winapisupp.obj
 0002:00001000       ??_C@_0BF@DCFCCNOC@CloseThreadpoolTimer@ 10038000     libcpmt:winapisupp.obj
 0002:00001018       ??_C@_0BF@FLABGKKM@CreateThreadpoolWait@ 10038018     libcpmt:winapisupp.obj
 0002:00001030       ??_C@_0BC@MGCOHNA@SetThreadpoolWait@ 10038030     libcpmt:winapisupp.obj
 0002:00001044       ??_C@_0BE@OCIOMIMP@CloseThreadpoolWait@ 10038044     libcpmt:winapisupp.obj
 0002:00001058       ??_C@_0BJ@LKGHFHBO@FlushProcessWriteBuffers@ 10038058     libcpmt:winapisupp.obj
 0002:00001074       ??_C@_0BP@KALKKPMO@FreeLibraryWhenCallbackReturns@ 10038074     libcpmt:winapisupp.obj
 0002:00001094       ??_C@_0BK@DFNBACLA@GetCurrentProcessorNumber@ 10038094     libcpmt:winapisupp.obj
 0002:000010b0       ??_C@_0BE@FKKLLFLM@CreateSymbolicLinkW@ 100380b0     libcpmt:winapisupp.obj
 0002:000010c4       ??_C@_0BE@JOGNEJCI@GetCurrentPackageId@ 100380c4     libcpmt:winapisupp.obj
 0002:000010d8       ??_C@_0P@CDHHOHKP@GetTickCount64@ 100380d8     libcpmt:winapisupp.obj
 0002:000010e8       ??_C@_0BN@NEEHBBPO@GetFileInformationByHandleEx@ 100380e8     libcpmt:winapisupp.obj
 0002:00001108       ??_C@_0BL@KBBHGKCM@SetFileInformationByHandle@ 10038108     libcpmt:winapisupp.obj
 0002:00001124       ??_C@_0BP@FPNJPEJC@GetSystemTimePreciseAsFileTime@ 10038124     libcpmt:winapisupp.obj
 0002:00001144       ??_C@_0BM@HLJJNPAH@InitializeConditionVariable@ 10038144     libcpmt:winapisupp.obj
 0002:00001160       ??_C@_0BG@BFNILBLN@WakeConditionVariable@ 10038160     libcpmt:winapisupp.obj
 0002:00001178       ??_C@_0BJ@PGPPEPCC@WakeAllConditionVariable@ 10038178     libcpmt:winapisupp.obj
 0002:00001194       ??_C@_0BJ@JEBJOJFJ@SleepConditionVariableCS@ 10038194     libcpmt:winapisupp.obj
 0002:000011b0       ??_C@_0BC@MMLHEBPB@InitializeSRWLock@ 100381b0     libcpmt:winapisupp.obj
 0002:000011c4       ??_C@_0BI@OMNLIJDB@AcquireSRWLockExclusive@ 100381c4     libcpmt:winapisupp.obj
 0002:000011dc       ??_C@_0BL@OGHFEMNA@TryAcquireSRWLockExclusive@ 100381dc     libcpmt:winapisupp.obj
 0002:000011f8       ??_C@_0BI@HMIEPCNJ@ReleaseSRWLockExclusive@ 100381f8     libcpmt:winapisupp.obj
 0002:00001210       ??_C@_0BK@LGACAGIC@SleepConditionVariableSRW@ 10038210     libcpmt:winapisupp.obj
 0002:0000122c       ??_C@_0BF@GGPHFPJA@CreateThreadpoolWork@ 1003822c     libcpmt:winapisupp.obj
 0002:00001244       ??_C@_0BF@NHDAIMMO@SubmitThreadpoolWork@ 10038244     libcpmt:winapisupp.obj
 0002:0000125c       ??_C@_0BE@NPHIPNPD@CloseThreadpoolWork@ 1003825c     libcpmt:winapisupp.obj
 0002:00001270       ??_C@_0BA@IHGNDAEB@CompareStringEx@ 10038270     libcpmt:winapisupp.obj
 0002:00001280       ??_C@_0BA@ONOKGCMP@GetLocaleInfoEx@ 10038280     libcpmt:winapisupp.obj
 0002:00001290       ??_C@_0O@KKBNKAPF@LCMapStringEx@ 10038290     libcpmt:winapisupp.obj
 0002:000012a4       ??_7?$ctype@D@std@@6B@     100382a4     libcpmt:locale.obj
 0002:000012d4       ??_7?$num_put@DV?$ostreambuf_iterator@DU?$char_traits@D@std@@@std@@@std@@6B@ 100382d4     libcpmt:locale.obj
 0002:00001304       ??_7?$numpunct@D@std@@6B@  10038304     libcpmt:locale.obj
 0002:00001324       ??_C@_11LOCGONAA@@         10038324     libcpmt:wlocale.obj
 0002:00001328       ??_C@_01JOAMLHOP@?9@       10038328     libcpmt:wlocale.obj
 0002:00002210       ??_C@_15EMKDOKLE@?$AAa?$AAr@ 10039210     libcpmt:winapinls.obj
 0002:00002218       ??_C@_15KNPADPLH@?$AAb?$AAg@ 10039218     libcpmt:winapinls.obj
 0002:00002220       ??_C@_15EDMHLDMO@?$AAc?$AAa@ 10039220     libcpmt:winapinls.obj
 0002:00002228       ??_C@_1O@BPEAJADD@?$AAz?$AAh?$AA?9?$AAC?$AAH?$AAS@ 10039228     libcpmt:winapinls.obj
 0002:00002238       ??_C@_15LJNHCMNK@?$AAc?$AAs@ 10039238     libcpmt:winapinls.obj
 0002:00002240       ??_C@_15FOMCIDHG@?$AAd?$AAa@ 10039240     libcpmt:winapinls.obj
 0002:00002248       ??_C@_15NBKABECB@?$AAd?$AAe@ 10039248     libcpmt:winapinls.obj
 0002:00002250       ??_C@_15GHPEIIAO@?$AAe?$AAl@ 10039250     libcpmt:winapinls.obj
 0002:00002258       ??_C@_15MNPNEAIF@?$AAe?$AAn@ 10039258     libcpmt:winapinls.obj
 0002:00002260       ??_C@_15GPIOMPMH@?$AAe?$AAs@ 10039260     libcpmt:winapinls.obj
 0002:00002268       ??_C@_15NGLOAKJC@?$AAf?$AAi@ 10039268     libcpmt:winapinls.obj
 0002:00002270       ??_C@_15FBKGNKAM@?$AAf?$AAr@ 10039270     libcpmt:winapinls.obj
 0002:00002278       ??_C@_15KGGCNEFK@?$AAh?$AAe@ 10039278     libcpmt:winapinls.obj
 0002:00002280       ??_C@_15PGHLIDMF@?$AAh?$AAu@ 10039280     libcpmt:winapinls.obj
 0002:00002288       ??_C@_15BIEMAPLM@?$AAi?$AAs@ 10039288     libcpmt:winapinls.obj
 0002:00002290       ??_C@_15IFJLDHAF@?$AAi?$AAt@ 10039290     libcpmt:winapinls.obj
 0002:00002298       ??_C@_15GEMIOCAG@?$AAj?$AAa@ 10039298     libcpmt:winapinls.obj
 0002:000022a0       ??_C@_15EPELEGJA@?$AAk?$AAo@ 100392a0     libcpmt:winapinls.obj
 0002:000022a8       ??_C@_15NDDHIMN@?$AAn?$AAl@ 100392a8     libcpmt:winapinls.obj
 0002:000022b0       ??_C@_15BPIGNHCD@?$AAn?$AAo@ 100392b0     libcpmt:winapinls.obj
 0002:000022b8       ??_C@_15DEOPBLCG@?$AAp?$AAl@ 100392b8     libcpmt:winapinls.obj
 0002:000022c0       ??_C@_15KBECGEFG@?$AAp?$AAt@ 100392c0     libcpmt:winapinls.obj
 0002:000022c8       ??_C@_15GLJCBFMD@?$AAr?$AAo@ 100392c8     libcpmt:winapinls.obj
 0002:000022d0       ??_C@_15FEDGKCDI@?$AAr?$AAu@ 100392d0     libcpmt:winapinls.obj
 0002:000022d8       ??_C@_15GLKMLLHM@?$AAh?$AAr@ 100392d8     libcpmt:winapinls.obj
 0002:000022e0       ??_C@_15CPKMFBDB@?$AAs?$AAk@ 100392e0     libcpmt:winapinls.obj
 0002:000022e8       ??_C@_15BAAIOGMK@?$AAs?$AAq@ 100392e8     libcpmt:winapinls.obj
 0002:000022f0       ??_C@_15INNPNOHD@?$AAs?$AAv@ 100392f0     libcpmt:winapinls.obj
 0002:000022f8       ??_C@_15CABMMOGH@?$AAt?$AAh@ 100392f8     libcpmt:winapinls.obj
 0002:00002300       ??_C@_15BPLIHJJM@?$AAt?$AAr@ 10039300     libcpmt:winapinls.obj
 0002:00002308       ??_C@_15NEOEKKDJ@?$AAu?$AAr@ 10039308     libcpmt:winapinls.obj
 0002:00002310       ??_C@_15NFICGAJK@?$AAi?$AAd@ 10039310     libcpmt:winapinls.obj
 0002:00002318       ??_C@_15PJPFLCCM@?$AAu?$AAk@ 10039318     libcpmt:winapinls.obj
 0002:00002320       ??_C@_15HPJPHDM@?$AAb?$AAe@ 10039320     libcpmt:winapinls.obj
 0002:00002328       ??_C@_15LCHLGJII@?$AAs?$AAl@ 10039328     libcpmt:winapinls.obj
 0002:00002330       ??_C@_15PCFJPHHO@?$AAe?$AAt@ 10039330     libcpmt:winapinls.obj
 0002:00002338       ??_C@_15HPFPGODN@?$AAl?$AAv@ 10039338     libcpmt:winapinls.obj
 0002:00002340       ??_C@_15NFFGKGLG@?$AAl?$AAt@ 10039340     libcpmt:winapinls.obj
 0002:00002348       ??_C@_15BDAKCCHN@?$AAf?$AAa@ 10039348     libcpmt:winapinls.obj
 0002:00002350       ??_C@_15NFGIAIAJ@?$AAv?$AAi@ 10039350     libcpmt:winapinls.obj
 0002:00002358       ??_C@_15LMKNDMHN@?$AAh?$AAy@ 10039358     libcpmt:winapinls.obj
 0002:00002360       ??_C@_15IJBHMCFL@?$AAa?$AAz@ 10039360     libcpmt:winapinls.obj
 0002:00002368       ??_C@_15EKOFJABL@?$AAe?$AAu@ 10039368     libcpmt:winapinls.obj
 0002:00002370       ??_C@_15BGHADCNK@?$AAm?$AAk@ 10039370     libcpmt:winapinls.obj
 0002:00002378       ??_C@_15JDNICKHM@?$AAa?$AAf@ 10039378     libcpmt:winapinls.obj
 0002:00002380       ??_C@_15KPJEDBKD@?$AAk?$AAa@ 10039380     libcpmt:winapinls.obj
 0002:00002388       ??_C@_15PDNFFFEO@?$AAf?$AAo@ 10039388     libcpmt:winapinls.obj
 0002:00002390       ??_C@_15OMLEGLOC@?$AAh?$AAi@ 10039390     libcpmt:winapinls.obj
 0002:00002398       ??_C@_15IDNNENKK@?$AAm?$AAs@ 10039398     libcpmt:winapinls.obj
 0002:000023a0       ??_C@_15MACJNBMH@?$AAk?$AAk@ 100393a0     libcpmt:winapinls.obj
 0002:000023a8       ??_C@_15DKDJEOND@?$AAk?$AAy@ 100393a8     libcpmt:winapinls.obj
 0002:000023b0       ??_C@_15DFGDLJBG@?$AAs?$AAw@ 100393b0     libcpmt:winapinls.obj
 0002:000023b8       ??_C@_15BBFAICNG@?$AAu?$AAz@ 100393b8     libcpmt:winapinls.obj
 0002:000023c0       ??_C@_15DKNDCGEA@?$AAt?$AAt@ 100393c0     libcpmt:winapinls.obj
 0002:000023c8       ??_C@_15MGIFMDPL@?$AAp?$AAa@ 100393c8     libcpmt:winapinls.obj
 0002:000023d0       ??_C@_15HCNDBBA@?$AAg?$AAu@ 100393d0     libcpmt:winapinls.obj
 0002:000023d8       ??_C@_15FNBEIBON@?$AAt?$AAa@ 100393d8     libcpmt:winapinls.obj
 0002:000023e0       ??_C@_15NCHGBGLK@?$AAt?$AAe@ 100393e0     libcpmt:winapinls.obj
 0002:000023e8       ??_C@_15PHPHCBPF@?$AAk?$AAn@ 100393e8     libcpmt:winapinls.obj
 0002:000023f0       ??_C@_15DLGBCKMP@?$AAm?$AAr@ 100393f0     libcpmt:winapinls.obj
 0002:000023f8       ??_C@_15EABBLBFF@?$AAs?$AAa@ 100393f8     libcpmt:winapinls.obj
 0002:00002400       ??_C@_15CBKOMCOI@?$AAm?$AAn@ 10039400     libcpmt:winapinls.obj
 0002:00002408       ??_C@_15CKDMCJAF@?$AAg?$AAl@ 10039408     libcpmt:winapinls.obj
 0002:00002410       ??_C@_17CNJFBPG@?$AAk?$AAo?$AAk@ 10039410     libcpmt:winapinls.obj
 0002:00002418       ??_C@_17FFBJICPL@?$AAs?$AAy?$AAr@ 10039418     libcpmt:winapinls.obj
 0002:00002420       ??_C@_17KPNDCPAF@?$AAd?$AAi?$AAv@ 10039420     libcpmt:winapinls.obj
 0002:00002428       ??_C@_1M@OKAHONE@?$AAa?$AAr?$AA?9?$AAS?$AAA@ 10039428     libcpmt:winapinls.obj
 0002:00002434       ??_C@_1M@FFFIGIGK@?$AAb?$AAg?$AA?9?$AAB?$AAG@ 10039434     libcpmt:winapinls.obj
 0002:00002440       ??_C@_1M@BJNKEDC@?$AAc?$AAa?$AA?9?$AAE?$AAS@ 10039440     libcpmt:winapinls.obj
 0002:0000244c       ??_C@_1M@CLNBBOPM@?$AAz?$AAh?$AA?9?$AAT?$AAW@ 1003944c     libcpmt:winapinls.obj
 0002:00002458       ??_C@_1M@IJJHFJHA@?$AAc?$AAs?$AA?9?$AAC?$AAZ@ 10039458     libcpmt:winapinls.obj
 0002:00002464       ??_C@_1M@CLPEOBGI@?$AAd?$AAa?$AA?9?$AAD?$AAK@ 10039464     libcpmt:winapinls.obj
 0002:00002470       ??_C@_1M@MCMADGCB@?$AAd?$AAe?$AA?9?$AAD?$AAE@ 10039470     libcpmt:winapinls.obj
 0002:0000247c       ??_C@_1M@OOCKEMAM@?$AAe?$AAl?$AA?9?$AAG?$AAR@ 1003947c     libcpmt:winapinls.obj
 0002:00002488       ??_C@_1M@BMHNFIME@?$AAe?$AAn?$AA?9?$AAU?$AAS@ 10039488     libcpmt:winapinls.obj
 0002:00002494       ??_C@_1M@DDNJFGID@?$AAf?$AAi?$AA?9?$AAF?$AAI@ 10039494     libcpmt:winapinls.obj
 0002:000024a0       ??_C@_1M@GLIPPMAC@?$AAf?$AAr?$AA?9?$AAF?$AAR@ 100394a0     libcpmt:winapinls.obj
 0002:000024ac       ??_C@_1M@GFMCHPE@?$AAh?$AAe?$AA?9?$AAI?$AAL@ 100394ac     libcpmt:winapinls.obj
 0002:000024b8       ??_C@_1M@MHLPGNKM@?$AAh?$AAu?$AA?9?$AAH?$AAU@ 100394b8     libcpmt:winapinls.obj
 0002:000024c4       ??_C@_1M@LPDDNNPN@?$AAi?$AAs?$AA?9?$AAI?$AAS@ 100394c4     libcpmt:winapinls.obj
 0002:000024d0       ??_C@_1M@MADIPODN@?$AAi?$AAt?$AA?9?$AAI?$AAT@ 100394d0     libcpmt:winapinls.obj
 0002:000024dc       ??_C@_1M@HPNHIDJI@?$AAj?$AAa?$AA?9?$AAJ?$AAP@ 100394dc     libcpmt:winapinls.obj
 0002:000024e8       ??_C@_1M@JLOOOEGK@?$AAk?$AAo?$AA?9?$AAK?$AAR@ 100394e8     libcpmt:winapinls.obj
 0002:000024f4       ??_C@_1M@IHBJJGG@?$AAn?$AAl?$AA?9?$AAN?$AAL@ 100394f4     libcpmt:winapinls.obj
 0002:00002500       ??_C@_1M@EANAGDL@?$AAn?$AAb?$AA?9?$AAN?$AAO@ 10039500     libcpmt:winapinls.obj
 0002:0000250c       ??_C@_1M@NEIEMEGP@?$AAp?$AAl?$AA?9?$AAP?$AAL@ 1003950c     libcpmt:winapinls.obj
 0002:00002518       ??_C@_1M@BOCFIGEP@?$AAp?$AAt?$AA?9?$AAB?$AAR@ 10039518     libcpmt:winapinls.obj
 0002:00002524       ??_C@_1M@IMPFOPBG@?$AAr?$AAo?$AA?9?$AAR?$AAO@ 10039524     libcpmt:winapinls.obj
 0002:00002530       ??_C@_1M@IDNNEJMM@?$AAr?$AAu?$AA?9?$AAR?$AAU@ 10039530     libcpmt:winapinls.obj
 0002:0000253c       ??_C@_1M@LILEEOGM@?$AAh?$AAr?$AA?9?$AAH?$AAR@ 1003953c     libcpmt:winapinls.obj
 0002:00002548       ??_C@_1M@FKIFEHPB@?$AAs?$AAk?$AA?9?$AAS?$AAK@ 10039548     libcpmt:winapinls.obj
 0002:00002554       ??_C@_1M@LJMAMNPJ@?$AAs?$AAq?$AA?9?$AAA?$AAL@ 10039554     libcpmt:winapinls.obj
 0002:00002560       ??_C@_1M@GIAKDKJK@?$AAs?$AAv?$AA?9?$AAS?$AAE@ 10039560     libcpmt:winapinls.obj
 0002:0000256c       ??_C@_1M@MKJKIKCL@?$AAt?$AAh?$AA?9?$AAT?$AAH@ 1003956c     libcpmt:winapinls.obj
 0002:00002578       ??_C@_1M@MFLCCMPB@?$AAt?$AAr?$AA?9?$AAT?$AAR@ 10039578     libcpmt:winapinls.obj
 0002:00002584       ??_C@_1M@OIJHDKJN@?$AAu?$AAr?$AA?9?$AAP?$AAK@ 10039584     libcpmt:winapinls.obj
 0002:00002590       ??_C@_1M@LHIPCIEK@?$AAi?$AAd?$AA?9?$AAI?$AAD@ 10039590     libcpmt:winapinls.obj
 0002:0000259c       ??_C@_1M@MFMOBGI@?$AAu?$AAk?$AA?9?$AAU?$AAA@ 1003959c     libcpmt:winapinls.obj
 0002:000025a8       ??_C@_1M@OBGLJIPL@?$AAb?$AAe?$AA?9?$AAB?$AAY@ 100395a8     libcpmt:winapinls.obj
 0002:000025b4       ??_C@_1M@BCFAJEAD@?$AAs?$AAl?$AA?9?$AAS?$AAI@ 100395b4     libcpmt:winapinls.obj
 0002:000025c0       ??_C@_1M@FKFFEDDN@?$AAe?$AAt?$AA?9?$AAE?$AAE@ 100395c0     libcpmt:winapinls.obj
 0002:000025cc       ??_C@_1M@KGKKAACI@?$AAl?$AAv?$AA?9?$AAL?$AAV@ 100395cc     libcpmt:winapinls.obj
 0002:000025d8       ??_C@_1M@IFGBIJO@?$AAl?$AAt?$AA?9?$AAL?$AAT@ 100395d8     libcpmt:winapinls.obj
 0002:000025e4       ??_C@_1M@FGEAHEDM@?$AAf?$AAa?$AA?9?$AAI?$AAR@ 100395e4     libcpmt:winapinls.obj
 0002:000025f0       ??_C@_1M@KBMAIBFN@?$AAv?$AAi?$AA?9?$AAV?$AAN@ 100395f0     libcpmt:winapinls.obj
 0002:000025fc       ??_C@_1M@GPCBKDJK@?$AAh?$AAy?$AA?9?$AAA?$AAM@ 100395fc     libcpmt:winapinls.obj
 0002:00002608       ??_C@_1BG@BECMDDJB@?$AAa?$AAz?$AA?9?$AAA?$AAZ?$AA?9?$AAL?$AAa?$AAt?$AAn@ 10039608     libcpmt:winapinls.obj
 0002:00002620       ??_C@_1M@MAOFCAEA@?$AAe?$AAu?$AA?9?$AAE?$AAS@ 10039620     libcpmt:winapinls.obj
 0002:0000262c       ??_C@_1M@IGHABKPI@?$AAm?$AAk?$AA?9?$AAM?$AAK@ 1003962c     libcpmt:winapinls.obj
 0002:00002638       ??_C@_1M@IAIGNEJG@?$AAt?$AAn?$AA?9?$AAZ?$AAA@ 10039638     libcpmt:winapinls.obj
 0002:00002644       ??_C@_1M@IIJCOJFA@?$AAx?$AAh?$AA?9?$AAZ?$AAA@ 10039644     libcpmt:winapinls.obj
 0002:00002650       ??_C@_1M@LGPJHNJH@?$AAz?$AAu?$AA?9?$AAZ?$AAA@ 10039650     libcpmt:winapinls.obj
 0002:0000265c       ??_C@_1M@HOKAOIO@?$AAa?$AAf?$AA?9?$AAZ?$AAA@ 1003965c     libcpmt:winapinls.obj
 0002:00002668       ??_C@_1M@DPCLHLIE@?$AAk?$AAa?$AA?9?$AAG?$AAE@ 10039668     libcpmt:winapinls.obj
 0002:00002674       ??_C@_1M@BLKMHJBI@?$AAf?$AAo?$AA?9?$AAF?$AAO@ 10039674     libcpmt:winapinls.obj
 0002:00002680       ??_C@_1M@LGGJAPPB@?$AAh?$AAi?$AA?9?$AAI?$AAN@ 10039680     libcpmt:winapinls.obj
 0002:0000268c       ??_C@_1M@FIKPIHFE@?$AAm?$AAt?$AA?9?$AAM?$AAT@ 1003968c     libcpmt:winapinls.obj
 0002:00002698       ??_C@_1M@HEGGPBFA@?$AAs?$AAe?$AA?9?$AAN?$AAO@ 10039698     libcpmt:winapinls.obj
 0002:000026a4       ??_C@_1M@EIBJEEPA@?$AAm?$AAs?$AA?9?$AAM?$AAY@ 100396a4     libcpmt:winapinls.obj
 0002:000026b0       ??_C@_1M@FHLBGMPP@?$AAk?$AAk?$AA?9?$AAK?$AAZ@ 100396b0     libcpmt:winapinls.obj
 0002:000026bc       ??_C@_1M@NGJJLCGI@?$AAk?$AAy?$AA?9?$AAK?$AAG@ 100396bc     libcpmt:winapinls.obj
 0002:000026c8       ??_C@_1M@GIENNBFC@?$AAs?$AAw?$AA?9?$AAK?$AAE@ 100396c8     libcpmt:winapinls.obj
 0002:000026d4       ??_C@_1BG@NDGMJIMJ@?$AAu?$AAz?$AA?9?$AAU?$AAZ?$AA?9?$AAL?$AAa?$AAt?$AAn@ 100396d4     libcpmt:winapinls.obj
 0002:000026ec       ??_C@_1M@IDCCIHBC@?$AAt?$AAt?$AA?9?$AAR?$AAU@ 100396ec     libcpmt:winapinls.obj
 0002:000026f8       ??_C@_1M@LOICPMOJ@?$AAb?$AAn?$AA?9?$AAI?$AAN@ 100396f8     libcpmt:winapinls.obj
 0002:00002704       ??_C@_1M@KPKKNEAH@?$AAp?$AAa?$AA?9?$AAI?$AAN@ 10039704     libcpmt:winapinls.obj
 0002:00002710       ??_C@_1M@PJGPPBOG@?$AAg?$AAu?$AA?9?$AAI?$AAN@ 10039710     libcpmt:winapinls.obj
 0002:0000271c       ??_C@_1M@KMKMOPHI@?$AAt?$AAa?$AA?9?$AAI?$AAN@ 1003971c     libcpmt:winapinls.obj
 0002:00002728       ??_C@_1M@KFEHEPAC@?$AAt?$AAe?$AA?9?$AAI?$AAN@ 10039728     libcpmt:winapinls.obj
 0002:00002734       ??_C@_1M@CDCLMGHI@?$AAk?$AAn?$AA?9?$AAI?$AAN@ 10039734     libcpmt:winapinls.obj
 0002:00002740       ??_C@_1M@MIODLDKF@?$AAm?$AAl?$AA?9?$AAI?$AAN@ 10039740     libcpmt:winapinls.obj
 0002:0000274c       ??_C@_1M@PBIEACPO@?$AAm?$AAr?$AA?9?$AAI?$AAN@ 1003974c     libcpmt:winapinls.obj
 0002:00002758       ??_C@_1M@NIDEAGPH@?$AAs?$AAa?$AA?9?$AAI?$AAN@ 10039758     libcpmt:winapinls.obj
 0002:00002764       ??_C@_1M@FHIHCBIO@?$AAm?$AAn?$AA?9?$AAM?$AAN@ 10039764     libcpmt:winapinls.obj
 0002:00002770       ??_C@_1M@JAIJPENP@?$AAc?$AAy?$AA?9?$AAG?$AAB@ 10039770     libcpmt:winapinls.obj
 0002:0000277c       ??_C@_1M@PHGFBEPN@?$AAg?$AAl?$AA?9?$AAE?$AAS@ 1003977c     libcpmt:winapinls.obj
 0002:00002788       ??_C@_1O@KPIPDNCP@?$AAk?$AAo?$AAk?$AA?9?$AAI?$AAN@ 10039788     libcpmt:winapinls.obj
 0002:00002798       ??_C@_1O@KNHJLDJA@?$AAs?$AAy?$AAr?$AA?9?$AAS?$AAY@ 10039798     libcpmt:winapinls.obj
 0002:000027a8       ??_C@_1O@MKEKBLAH@?$AAd?$AAi?$AAv?$AA?9?$AAM?$AAV@ 100397a8     libcpmt:winapinls.obj
 0002:000027b8       ??_C@_1O@OHDCKDDF@?$AAq?$AAu?$AAz?$AA?9?$AAB?$AAO@ 100397b8     libcpmt:winapinls.obj
 0002:000027c8       ??_C@_1M@LEPJNLFD@?$AAn?$AAs?$AA?9?$AAZ?$AAA@ 100397c8     libcpmt:winapinls.obj
 0002:000027d4       ??_C@_1M@OMLEIIJB@?$AAm?$AAi?$AA?9?$AAN?$AAZ@ 100397d4     libcpmt:winapinls.obj
 0002:000027e0       ??_C@_1M@PMPEAILG@?$AAa?$AAr?$AA?9?$AAI?$AAQ@ 100397e0     libcpmt:winapinls.obj
 0002:000027ec       ??_C@_1M@BIBDDEMK@?$AAz?$AAh?$AA?9?$AAC?$AAN@ 100397ec     libcpmt:winapinls.obj
 0002:000027f8       ??_C@_1M@CNKPNOEE@?$AAd?$AAe?$AA?9?$AAC?$AAH@ 100397f8     libcpmt:winapinls.obj
 0002:00002804       ??_C@_1M@LKMGMLKO@?$AAe?$AAn?$AA?9?$AAG?$AAB@ 10039804     libcpmt:winapinls.obj
 0002:00002810       ??_C@_1M@PGKJFFGL@?$AAe?$AAs?$AA?9?$AAM?$AAX@ 10039810     libcpmt:winapinls.obj
 0002:0000281c       ??_C@_1M@DNNANBDC@?$AAf?$AAr?$AA?9?$AAB?$AAE@ 1003981c     libcpmt:winapinls.obj
 0002:00002828       ??_C@_1M@HLGMDFHM@?$AAi?$AAt?$AA?9?$AAC?$AAH@ 10039828     libcpmt:winapinls.obj
 0002:00002834       ??_C@_1M@CLLBGJH@?$AAn?$AAl?$AA?9?$AAB?$AAE@ 10039834     libcpmt:winapinls.obj
 0002:00002840       ??_C@_1M@BODBOGLF@?$AAn?$AAn?$AA?9?$AAN?$AAO@ 10039840     libcpmt:winapinls.obj
 0002:0000284c       ??_C@_1M@HFFAHKAD@?$AAp?$AAt?$AA?9?$AAP?$AAT@ 1003984c     libcpmt:winapinls.obj
 0002:00002858       ??_C@_1BG@LNOAKHIE@?$AAs?$AAr?$AA?9?$AAS?$AAP?$AA?9?$AAL?$AAa?$AAt?$AAn@ 10039858     libcpmt:winapinls.obj
 0002:00002870       ??_C@_1M@HBMHBGAK@?$AAs?$AAv?$AA?9?$AAF?$AAI@ 10039870     libcpmt:winapinls.obj
 0002:0000287c       ??_C@_1BG@DGCJGJBE@?$AAa?$AAz?$AA?9?$AAA?$AAZ?$AA?9?$AAC?$AAy?$AAr?$AAl@ 1003987c     libcpmt:winapinls.obj
 0002:00002894       ??_C@_1M@KEJDAAHB@?$AAs?$AAe?$AA?9?$AAS?$AAE@ 10039894     libcpmt:winapinls.obj
 0002:000028a0       ??_C@_1M@HEIBJJAD@?$AAm?$AAs?$AA?9?$AAB?$AAN@ 100398a0     libcpmt:winapinls.obj
 0002:000028ac       ??_C@_1BG@PBGJMCEM@?$AAu?$AAz?$AA?9?$AAU?$AAZ?$AA?9?$AAC?$AAy?$AAr?$AAl@ 100398ac     libcpmt:winapinls.obj
 0002:000028c4       ??_C@_1O@LAOBCMDF@?$AAq?$AAu?$AAz?$AA?9?$AAE?$AAC@ 100398c4     libcpmt:winapinls.obj
 0002:000028d4       ??_C@_1M@POEEMAIO@?$AAa?$AAr?$AA?9?$AAE?$AAG@ 100398d4     libcpmt:winapinls.obj
 0002:000028e0       ??_C@_1M@EFAKDEDL@?$AAz?$AAh?$AA?9?$AAH?$AAK@ 100398e0     libcpmt:winapinls.obj
 0002:000028ec       ??_C@_1M@HKKIJHGI@?$AAd?$AAe?$AA?9?$AAA?$AAT@ 100398ec     libcpmt:winapinls.obj
 0002:000028f8       ??_C@_1M@KBFBEHJF@?$AAe?$AAn?$AA?9?$AAA?$AAU@ 100398f8     libcpmt:winapinls.obj
 0002:00002904       ??_C@_1M@MNPLFAAH@?$AAe?$AAs?$AA?9?$AAE?$AAS@ 10039904     libcpmt:winapinls.obj
 0002:00002910       ??_C@_1M@HJOOJFMA@?$AAf?$AAr?$AA?9?$AAC?$AAA@ 10039910     libcpmt:winapinls.obj
 0002:0000291c       ??_C@_1BG@JPOFPNAB@?$AAs?$AAr?$AA?9?$AAS?$AAP?$AA?9?$AAC?$AAy?$AAr?$AAl@ 1003991c     libcpmt:winapinls.obj
 0002:00002934       ??_C@_1M@LNFOCMOB@?$AAs?$AAe?$AA?9?$AAF?$AAI@ 10039934     libcpmt:winapinls.obj
 0002:00002940       ??_C@_1O@MGJBOAMB@?$AAq?$AAu?$AAz?$AA?9?$AAP?$AAE@ 10039940     libcpmt:winapinls.obj
 0002:00002950       ??_C@_1M@GJINLBOK@?$AAa?$AAr?$AA?9?$AAL?$AAY@ 10039950     libcpmt:winapinls.obj
 0002:0000295c       ??_C@_1M@GGMNHJNL@?$AAz?$AAh?$AA?9?$AAS?$AAG@ 1003995c     libcpmt:winapinls.obj
 0002:00002968       ??_C@_1M@HOIKODND@?$AAd?$AAe?$AA?9?$AAL?$AAU@ 10039968     libcpmt:winapinls.obj
 0002:00002974       ??_C@_1M@DDOCCGFG@?$AAe?$AAn?$AA?9?$AAC?$AAA@ 10039974     libcpmt:winapinls.obj
 0002:00002980       ??_C@_1M@BNOEMJLF@?$AAe?$AAs?$AA?9?$AAG?$AAT@ 10039980     libcpmt:winapinls.obj
 0002:0000298c       ??_C@_1M@EOGNKEK@?$AAf?$AAr?$AA?9?$AAC?$AAH@ 1003998c     libcpmt:winapinls.obj
 0002:00002998       ??_C@_1M@FLIDJFHL@?$AAh?$AAr?$AA?9?$AAB?$AAA@ 10039998     libcpmt:winapinls.obj
 0002:000029a4       ??_C@_1O@FMCELNAJ@?$AAs?$AAm?$AAj?$AA?9?$AAN?$AAO@ 100399a4     libcpmt:winapinls.obj
 0002:000029b4       ??_C@_1M@JHGLJMGJ@?$AAa?$AAr?$AA?9?$AAD?$AAZ@ 100399b4     libcpmt:winapinls.obj
 0002:000029c0       ??_C@_1M@JKKFDCNP@?$AAz?$AAh?$AA?9?$AAM?$AAO@ 100399c0     libcpmt:winapinls.obj
 0002:000029cc       ??_C@_1M@GEEFALPE@?$AAd?$AAe?$AA?9?$AAL?$AAI@ 100399cc     libcpmt:winapinls.obj
 0002:000029d8       ??_C@_1M@IGEOFBG@?$AAe?$AAn?$AA?9?$AAN?$AAZ@ 100399d8     libcpmt:winapinls.obj
 0002:000029e4       ??_C@_1M@KDBONEHP@?$AAe?$AAs?$AA?9?$AAC?$AAR@ 100399e4     libcpmt:winapinls.obj
 0002:000029f0       ??_C@_1M@FHMDOHNN@?$AAf?$AAr?$AA?9?$AAL?$AAU@ 100399f0     libcpmt:winapinls.obj
 0002:000029fc       ??_C@_1BG@NFKKMAFG@?$AAb?$AAs?$AA?9?$AAB?$AAA?$AA?9?$AAL?$AAa?$AAt?$AAn@ 100399fc     libcpmt:winapinls.obj
 0002:00002a14       ??_C@_1O@IMNBEMCI@?$AAs?$AAm?$AAj?$AA?9?$AAS?$AAE@ 10039a14     libcpmt:winapinls.obj
 0002:00002a24       ??_C@_1M@DHHMBNDP@?$AAa?$AAr?$AA?9?$AAM?$AAA@ 10039a24     libcpmt:winapinls.obj
 0002:00002a30       ??_C@_1M@BNBLJCGH@?$AAe?$AAn?$AA?9?$AAI?$AAE@ 10039a30     libcpmt:winapinls.obj
 0002:00002a3c       ??_C@_1M@GEPAFMDL@?$AAe?$AAs?$AA?9?$AAP?$AAA@ 10039a3c     libcpmt:winapinls.obj
 0002:00002a48       ??_C@_1M@OJONDMDL@?$AAf?$AAr?$AA?9?$AAM?$AAC@ 10039a48     libcpmt:winapinls.obj
 0002:00002a54       ??_C@_1BG@OBCNFJB@?$AAs?$AAr?$AA?9?$AAB?$AAA?$AA?9?$AAL?$AAa?$AAt?$AAn@ 10039a54     libcpmt:winapinls.obj
 0002:00002a6c       ??_C@_1O@KEMEEGPO@?$AAs?$AAm?$AAa?$AA?9?$AAN?$AAO@ 10039a6c     libcpmt:winapinls.obj
 0002:00002a7c       ??_C@_1M@ELMGFODK@?$AAa?$AAr?$AA?9?$AAT?$AAN@ 10039a7c     libcpmt:winapinls.obj
 0002:00002a88       ??_C@_1M@BHDLHFAF@?$AAe?$AAn?$AA?9?$AAZ?$AAA@ 10039a88     libcpmt:winapinls.obj
 0002:00002a94       ??_C@_1M@BMGIGLIF@?$AAe?$AAs?$AA?9?$AAD?$AAO@ 10039a94     libcpmt:winapinls.obj
 0002:00002aa0       ??_C@_1BG@CMBHIPBE@?$AAs?$AAr?$AA?9?$AAB?$AAA?$AA?9?$AAC?$AAy?$AAr?$AAl@ 10039aa0     libcpmt:winapinls.obj
 0002:00002ab8       ??_C@_1O@HEDBLHNP@?$AAs?$AAm?$AAa?$AA?9?$AAS?$AAE@ 10039ab8     libcpmt:winapinls.obj
 0002:00002ac8       ??_C@_1M@DAGCADIM@?$AAa?$AAr?$AA?9?$AAO?$AAM@ 10039ac8     libcpmt:winapinls.obj
 0002:00002ad4       ??_C@_1M@FODLMICG@?$AAe?$AAn?$AA?9?$AAJ?$AAM@ 10039ad4     libcpmt:winapinls.obj
 0002:00002ae0       ??_C@_1M@DNMLCIHB@?$AAe?$AAs?$AA?9?$AAV?$AAE@ 10039ae0     libcpmt:winapinls.obj
 0002:00002aec       ??_C@_1O@EOKHMKJK@?$AAs?$AAm?$AAs?$AA?9?$AAF?$AAI@ 10039aec     libcpmt:winapinls.obj
 0002:00002afc       ??_C@_1M@CAFJMKOF@?$AAa?$AAr?$AA?9?$AAY?$AAE@ 10039afc     libcpmt:winapinls.obj
 0002:00002b08       ??_C@_1M@CBFHIJLI@?$AAe?$AAn?$AA?9?$AAC?$AAB@ 10039b08     libcpmt:winapinls.obj
 0002:00002b14       ??_C@_1M@BGNFLDN@?$AAe?$AAs?$AA?9?$AAC?$AAO@ 10039b14     libcpmt:winapinls.obj
 0002:00002b20       ??_C@_1O@JMPHMAMC@?$AAs?$AAm?$AAn?$AA?9?$AAF?$AAI@ 10039b20     libcpmt:winapinls.obj
 0002:00002b30       ??_C@_1M@JLANABKE@?$AAa?$AAr?$AA?9?$AAS?$AAY@ 10039b30     libcpmt:winapinls.obj
 0002:00002b3c       ??_C@_1M@HPKGCFGN@?$AAe?$AAn?$AA?9?$AAB?$AAZ@ 10039b3c     libcpmt:winapinls.obj
 0002:00002b48       ??_C@_1M@OLJCMLGM@?$AAe?$AAs?$AA?9?$AAP?$AAE@ 10039b48     libcpmt:winapinls.obj
 0002:00002b54       ??_C@_1M@MKKGFKLE@?$AAa?$AAr?$AA?9?$AAJ?$AAO@ 10039b54     libcpmt:winapinls.obj
 0002:00002b60       ??_C@_1M@EKPGLDNI@?$AAe?$AAn?$AA?9?$AAT?$AAT@ 10039b60     libcpmt:winapinls.obj
 0002:00002b6c       ??_C@_1M@OONGHFHE@?$AAe?$AAs?$AA?9?$AAA?$AAR@ 10039b6c     libcpmt:winapinls.obj
 0002:00002b78       ??_C@_1M@OOJFGBHE@?$AAa?$AAr?$AA?9?$AAL?$AAB@ 10039b78     libcpmt:winapinls.obj
 0002:00002b84       ??_C@_1M@GCEJHNEG@?$AAe?$AAn?$AA?9?$AAZ?$AAW@ 10039b84     libcpmt:winapinls.obj
 0002:00002b90       ??_C@_1M@JNOCAHJI@?$AAe?$AAs?$AA?9?$AAE?$AAC@ 10039b90     libcpmt:winapinls.obj
 0002:00002b9c       ??_C@_1M@JEFHPGGB@?$AAa?$AAr?$AA?9?$AAK?$AAW@ 10039b9c     libcpmt:winapinls.obj
 0002:00002ba8       ??_C@_1M@MLKIBJOJ@?$AAe?$AAn?$AA?9?$AAP?$AAH@ 10039ba8     libcpmt:winapinls.obj
 0002:00002bb4       ??_C@_1M@BDNIPEND@?$AAe?$AAs?$AA?9?$AAC?$AAL@ 10039bb4     libcpmt:winapinls.obj
 0002:00002bc0       ??_C@_1M@MPNMEKBD@?$AAa?$AAr?$AA?9?$AAA?$AAE@ 10039bc0     libcpmt:winapinls.obj
 0002:00002bcc       ??_C@_1M@KBJALCPI@?$AAe?$AAs?$AA?9?$AAU?$AAY@ 10039bcc     libcpmt:winapinls.obj
 0002:00002bd8       ??_C@_1M@LLCCOAGA@?$AAa?$AAr?$AA?9?$AAB?$AAH@ 10039bd8     libcpmt:winapinls.obj
 0002:00002be4       ??_C@_1M@PBFNCDEL@?$AAe?$AAs?$AA?9?$AAP?$AAY@ 10039be4     libcpmt:winapinls.obj
 0002:00002bf0       ??_C@_1M@EDGINPNP@?$AAa?$AAr?$AA?9?$AAQ?$AAA@ 10039bf0     libcpmt:winapinls.obj
 0002:00002bfc       ??_C@_1M@MKDBIIJI@?$AAe?$AAs?$AA?9?$AAB?$AAO@ 10039bfc     libcpmt:winapinls.obj
 0002:00002c08       ??_C@_1M@CPKKEBLD@?$AAe?$AAs?$AA?9?$AAS?$AAV@ 10039c08     libcpmt:winapinls.obj
 0002:00002c14       ??_C@_1M@NDBGMMJL@?$AAe?$AAs?$AA?9?$AAH?$AAN@ 10039c14     libcpmt:winapinls.obj
 0002:00002c20       ??_C@_1M@JIJIBHDP@?$AAe?$AAs?$AA?9?$AAN?$AAI@ 10039c20     libcpmt:winapinls.obj
 0002:00002c2c       ??_C@_1M@CGFMKEEK@?$AAe?$AAs?$AA?9?$AAP?$AAR@ 10039c2c     libcpmt:winapinls.obj
 0002:00002c38       ??_C@_1O@ICJHKIIK@?$AAz?$AAh?$AA?9?$AAC?$AAH?$AAT@ 10039c38     libcpmt:winapinls.obj
 0002:00002c48       ??_C@_15CLNEJCE@?$AAs?$AAr@ 10039c48     libcpmt:winapinls.obj
 0002:00002c50       ??_C@_1M@KAHEKEIG@?$AAa?$AAf?$AA?9?$AAz?$AAa@ 10039c50     libcpmt:winapinls.obj
 0002:00002c5c       ??_C@_1M@GIECOABL@?$AAa?$AAr?$AA?9?$AAa?$AAe@ 10039c5c     libcpmt:winapinls.obj
 0002:00002c68       ??_C@_1M@BMLMEKGI@?$AAa?$AAr?$AA?9?$AAb?$AAh@ 10039c68     libcpmt:winapinls.obj
 0002:00002c74       ??_C@_1M@DAPFDGGB@?$AAa?$AAr?$AA?9?$AAd?$AAz@ 10039c74     libcpmt:winapinls.obj
 0002:00002c80       ??_C@_1M@FJNKGKIG@?$AAa?$AAr?$AA?9?$AAe?$AAg@ 10039c80     libcpmt:winapinls.obj
 0002:00002c8c       ??_C@_1M@FLGKKCLO@?$AAa?$AAr?$AA?9?$AAi?$AAq@ 10039c8c     libcpmt:winapinls.obj
 0002:00002c98       ??_C@_1M@GNDIPALM@?$AAa?$AAr?$AA?9?$AAj?$AAo@ 10039c98     libcpmt:winapinls.obj
 0002:00002ca4       ??_C@_1M@DDMJFMGJ@?$AAa?$AAr?$AA?9?$AAk?$AAw@ 10039ca4     libcpmt:winapinls.obj
 0002:00002cb0       ??_C@_1M@EJALMLHM@?$AAa?$AAr?$AA?9?$AAl?$AAb@ 10039cb0     libcpmt:winapinls.obj
 0002:00002cbc       ??_C@_1M@MOBDBLOC@?$AAa?$AAr?$AA?9?$AAl?$AAy@ 10039cbc     libcpmt:winapinls.obj
 0002:00002cc8       ??_C@_1M@JAOCLHDH@?$AAa?$AAr?$AA?9?$AAm?$AAa@ 10039cc8     libcpmt:winapinls.obj
 0002:00002cd4       ??_C@_1M@JHPMKJIE@?$AAa?$AAr?$AA?9?$AAo?$AAm@ 10039cd4     libcpmt:winapinls.obj
 0002:00002ce0       ??_C@_1M@OEPGHFNH@?$AAa?$AAr?$AA?9?$AAq?$AAa@ 10039ce0     libcpmt:winapinls.obj
 0002:00002cec       ??_C@_1M@KJDONENM@?$AAa?$AAr?$AA?9?$AAs?$AAa@ 10039cec     libcpmt:winapinls.obj
 0002:00002cf8       ??_C@_1M@DMJDKLKM@?$AAa?$AAr?$AA?9?$AAs?$AAy@ 10039cf8     libcpmt:winapinls.obj
 0002:00002d04       ??_C@_1M@OMFIPEDC@?$AAa?$AAr?$AA?9?$AAt?$AAn@ 10039d04     libcpmt:winapinls.obj
 0002:00002d10       ??_C@_1M@IHMHGAON@?$AAa?$AAr?$AA?9?$AAy?$AAe@ 10039d10     libcpmt:winapinls.obj
 0002:00002d1c       ??_C@_1BG@KDCPGJGB@?$AAa?$AAz?$AA?9?$AAa?$AAz?$AA?9?$AAc?$AAy?$AAr?$AAl@ 10039d1c     libcpmt:winapinls.obj
 0002:00002d34       ??_C@_1BG@IBCKDDOE@?$AAa?$AAz?$AA?9?$AAa?$AAz?$AA?9?$AAl?$AAa?$AAt?$AAn@ 10039d34     libcpmt:winapinls.obj
 0002:00002d4c       ??_C@_1M@EGPFDCPD@?$AAb?$AAe?$AA?9?$AAb?$AAy@ 10039d4c     libcpmt:winapinls.obj
 0002:00002d58       ??_C@_1M@PCMGMCGC@?$AAb?$AAg?$AA?9?$AAb?$AAg@ 10039d58     libcpmt:winapinls.obj
 0002:00002d64       ??_C@_1M@BJBMFGOB@?$AAb?$AAn?$AA?9?$AAi?$AAn@ 10039d64     libcpmt:winapinls.obj
 0002:00002d70       ??_C@_1BG@EAKMMACD@?$AAb?$AAs?$AA?9?$AAb?$AAa?$AA?9?$AAl?$AAa?$AAt?$AAn@ 10039d70     libcpmt:winapinls.obj
 0002:00002d88       ??_C@_1M@KGADAODK@?$AAc?$AAa?$AA?9?$AAe?$AAs@ 10039d88     libcpmt:winapinls.obj
 0002:00002d94       ??_C@_1M@COAJPDHI@?$AAc?$AAs?$AA?9?$AAc?$AAz@ 10039d94     libcpmt:winapinls.obj
 0002:00002da0       ??_C@_1M@DHBHFONH@?$AAc?$AAy?$AA?9?$AAg?$AAb@ 10039da0     libcpmt:winapinls.obj
 0002:00002dac       ??_C@_1M@IMGKELGA@?$AAd?$AAa?$AA?9?$AAd?$AAk@ 10039dac     libcpmt:winapinls.obj
 0002:00002db8       ??_C@_1M@NNDGDNGA@?$AAd?$AAe?$AA?9?$AAa?$AAt@ 10039db8     libcpmt:winapinls.obj
 0002:00002dc4       ??_C@_1M@IKDBHEEM@?$AAd?$AAe?$AA?9?$AAc?$AAh@ 10039dc4     libcpmt:winapinls.obj
 0002:00002dd0       ??_C@_1M@GFFOJMCJ@?$AAd?$AAe?$AA?9?$AAd?$AAe@ 10039dd0     libcpmt:winapinls.obj
 0002:00002ddc       ??_C@_1M@MDNLKBPM@?$AAd?$AAe?$AA?9?$AAl?$AAi@ 10039ddc     libcpmt:winapinls.obj
 0002:00002de8       ??_C@_1M@NJBEEJNL@?$AAd?$AAe?$AA?9?$AAl?$AAu@ 10039de8     libcpmt:winapinls.obj
 0002:00002df4       ??_C@_1O@GNNELBAP@?$AAd?$AAi?$AAv?$AA?9?$AAm?$AAv@ 10039df4     libcpmt:winapinls.obj
 0002:00002e04       ??_C@_1M@EJLEOGAE@?$AAe?$AAl?$AA?9?$AAg?$AAr@ 10039e04     libcpmt:winapinls.obj
 0002:00002e10       ??_C@_1M@GMPONJN@?$AAe?$AAn?$AA?9?$AAa?$AAu@ 10039e10     libcpmt:winapinls.obj
 0002:00002e1c       ??_C@_1M@NIDIIPGF@?$AAe?$AAn?$AA?9?$AAb?$AAz@ 10039e1c     libcpmt:winapinls.obj
 0002:00002e28       ??_C@_1M@JEHMIMFO@?$AAe?$AAn?$AA?9?$AAc?$AAa@ 10039e28     libcpmt:winapinls.obj
 0002:00002e34       ??_C@_1M@IGMJCDLA@?$AAe?$AAn?$AA?9?$AAc?$AAb@ 10039e34     libcpmt:winapinls.obj
 0002:00002e40       ??_C@_1M@BNFIGBKG@?$AAe?$AAn?$AA?9?$AAg?$AAb@ 10039e40     libcpmt:winapinls.obj
 0002:00002e4c       ??_C@_1M@LKIFDIGP@?$AAe?$AAn?$AA?9?$AAi?$AAe@ 10039e4c     libcpmt:winapinls.obj
 0002:00002e58       ??_C@_1M@PJKFGCCO@?$AAe?$AAn?$AA?9?$AAj?$AAm@ 10039e58     libcpmt:winapinls.obj
 0002:00002e64       ??_C@_1M@KPPKEPBO@?$AAe?$AAn?$AA?9?$AAn?$AAz@ 10039e64     libcpmt:winapinls.obj
 0002:00002e70       ??_C@_1M@GMDGLDOB@?$AAe?$AAn?$AA?9?$AAp?$AAh@ 10039e70     libcpmt:winapinls.obj
 0002:00002e7c       ??_C@_1M@ONGIBJNA@?$AAe?$AAn?$AA?9?$AAt?$AAt@ 10039e7c     libcpmt:winapinls.obj
 0002:00002e88       ??_C@_1M@LLODPCMM@?$AAe?$AAn?$AA?9?$AAu?$AAs@ 10039e88     libcpmt:winapinls.obj
 0002:00002e94       ??_C@_1M@LAKFNPAN@?$AAe?$AAn?$AA?9?$AAz?$AAa@ 10039e94     libcpmt:winapinls.obj
 0002:00002ea0       ??_C@_1M@MFNHNHEO@?$AAe?$AAn?$AA?9?$AAz?$AAw@ 10039ea0     libcpmt:winapinls.obj
 0002:00002eac       ??_C@_1M@EJEINPHM@?$AAe?$AAs?$AA?9?$AAa?$AAr@ 10039eac     libcpmt:winapinls.obj
 0002:00002eb8       ??_C@_1M@GNKPCCJA@?$AAe?$AAs?$AA?9?$AAb?$AAo@ 10039eb8     libcpmt:winapinls.obj
 0002:00002ec4       ??_C@_1M@LEEGFONL@?$AAe?$AAs?$AA?9?$AAc?$AAl@ 10039ec4     libcpmt:winapinls.obj
 0002:00002ed0       ??_C@_1M@KGPDPBDF@?$AAe?$AAs?$AA?9?$AAc?$AAo@ 10039ed0     libcpmt:winapinls.obj
 0002:00002edc       ??_C@_1M@EIAHOHH@?$AAe?$AAs?$AA?9?$AAc?$AAr@ 10039edc     libcpmt:winapinls.obj
 0002:00002ee8       ??_C@_1M@LLPGMBIN@?$AAe?$AAs?$AA?9?$AAd?$AAo@ 10039ee8     libcpmt:winapinls.obj
 0002:00002ef4       ??_C@_1M@DKHMKNJA@?$AAe?$AAs?$AA?9?$AAe?$AAc@ 10039ef4     libcpmt:winapinls.obj
 0002:00002f00       ??_C@_1M@GKGFPKAP@?$AAe?$AAs?$AA?9?$AAe?$AAs@ 10039f00     libcpmt:winapinls.obj
 0002:00002f0c       ??_C@_1M@LKHKGDLN@?$AAe?$AAs?$AA?9?$AAg?$AAt@ 10039f0c     libcpmt:winapinls.obj
 0002:00002f18       ??_C@_1M@HEIIGGJD@?$AAe?$AAs?$AA?9?$AAh?$AAn@ 10039f18     libcpmt:winapinls.obj
 0002:00002f24       ??_C@_1M@FBDHPPGD@?$AAe?$AAs?$AA?9?$AAm?$AAx@ 10039f24     libcpmt:winapinls.obj
 0002:00002f30       ??_C@_1M@DPAGLNDH@?$AAe?$AAs?$AA?9?$AAn?$AAi@ 10039f30     libcpmt:winapinls.obj
 0002:00002f3c       ??_C@_1M@MDGOPGDD@?$AAe?$AAs?$AA?9?$AAp?$AAa@ 10039f3c     libcpmt:winapinls.obj
 0002:00002f48       ??_C@_1M@EMAMGBGE@?$AAe?$AAs?$AA?9?$AAp?$AAe@ 10039f48     libcpmt:winapinls.obj
 0002:00002f54       ??_C@_1M@IBMCAOEC@?$AAe?$AAs?$AA?9?$AAp?$AAr@ 10039f54     libcpmt:winapinls.obj
 0002:00002f60       ??_C@_1M@FGMDIJED@?$AAe?$AAs?$AA?9?$AAp?$AAy@ 10039f60     libcpmt:winapinls.obj
 0002:00002f6c       ??_C@_1M@IIDEOLLL@?$AAe?$AAs?$AA?9?$AAs?$AAv@ 10039f6c     libcpmt:winapinls.obj
 0002:00002f78       ??_C@_1M@GAOBIPA@?$AAe?$AAs?$AA?9?$AAu?$AAy@ 10039f78     libcpmt:winapinls.obj
 0002:00002f84       ??_C@_1M@JKFFICHJ@?$AAe?$AAs?$AA?9?$AAv?$AAe@ 10039f84     libcpmt:winapinls.obj
 0002:00002f90       ??_C@_1M@PNMLOJDF@?$AAe?$AAt?$AA?9?$AAe?$AAe@ 10039f90     libcpmt:winapinls.obj
 0002:00002f9c       ??_C@_1M@GHHLIKEI@?$AAe?$AAu?$AA?9?$AAe?$AAs@ 10039f9c     libcpmt:winapinls.obj
 0002:00002fa8       ??_C@_1M@PBNONODE@?$AAf?$AAa?$AA?9?$AAi?$AAr@ 10039fa8     libcpmt:winapinls.obj
 0002:00002fb4       ??_C@_1M@JEEHPMIL@?$AAf?$AAi?$AA?9?$AAf?$AAi@ 10039fb4     libcpmt:winapinls.obj
 0002:00002fc0       ??_C@_1M@LMDCNDBA@?$AAf?$AAo?$AA?9?$AAf?$AAo@ 10039fc0     libcpmt:winapinls.obj
 0002:00002fcc       ??_C@_1M@JKEOHLDK@?$AAf?$AAr?$AA?9?$AAb?$AAe@ 10039fcc     libcpmt:winapinls.obj
 0002:00002fd8       ??_C@_1M@NOHADPMI@?$AAf?$AAr?$AA?9?$AAc?$AAa@ 10039fd8     libcpmt:winapinls.obj
 0002:00002fe4       ??_C@_1M@KDHIHAEC@?$AAf?$AAr?$AA?9?$AAc?$AAh@ 10039fe4     libcpmt:winapinls.obj
 0002:00002ff0       ??_C@_1M@MMBBFGAK@?$AAf?$AAr?$AA?9?$AAf?$AAr@ 10039ff0     libcpmt:winapinls.obj
 0002:00002ffc       ??_C@_1M@PAFNENNF@?$AAf?$AAr?$AA?9?$AAl?$AAu@ 10039ffc     libcpmt:winapinls.obj
 0002:00003008       ??_C@_1M@EOHDJGDD@?$AAf?$AAr?$AA?9?$AAm?$AAc@ 1003a008     libcpmt:winapinls.obj
 0002:00003014       ??_C@_1M@FAPLLOPF@?$AAg?$AAl?$AA?9?$AAe?$AAs@ 1003a014     libcpmt:winapinls.obj
 0002:00003020       ??_C@_1M@FOPBFLOO@?$AAg?$AAu?$AA?9?$AAi?$AAn@ 1003a020     libcpmt:winapinls.obj
 0002:0000302c       ??_C@_1M@KBMCINPM@?$AAh?$AAe?$AA?9?$AAi?$AAl@ 1003a02c     libcpmt:winapinls.obj
 0002:00003038       ??_C@_1M@BBPHKFPJ@?$AAh?$AAi?$AA?9?$AAi?$AAn@ 1003a038     libcpmt:winapinls.obj
 0002:00003044       ??_C@_1M@PMBNDPHD@?$AAh?$AAr?$AA?9?$AAb?$AAa@ 1003a044     libcpmt:winapinls.obj
 0002:00003050       ??_C@_1M@BPCKOEGE@?$AAh?$AAr?$AA?9?$AAh?$AAr@ 1003a050     libcpmt:winapinls.obj
 0002:0000305c       ??_C@_1M@GACBMHKE@?$AAh?$AAu?$AA?9?$AAh?$AAu@ 1003a05c     libcpmt:winapinls.obj
 0002:00003068       ??_C@_1M@MILPAJJC@?$AAh?$AAy?$AA?9?$AAa?$AAm@ 1003a068     libcpmt:winapinls.obj
 0002:00003074       ??_C@_1M@BABBICEC@?$AAi?$AAd?$AA?9?$AAi?$AAd@ 1003a074     libcpmt:winapinls.obj
 0002:00003080       ??_C@_1M@BIKNHHPF@?$AAi?$AAs?$AA?9?$AAi?$AAs@ 1003a080     libcpmt:winapinls.obj
 0002:0000308c       ??_C@_1M@NMPCJPHE@?$AAi?$AAt?$AA?9?$AAc?$AAh@ 1003a08c     libcpmt:winapinls.obj
 0002:00003098       ??_C@_1M@GHKGFEDF@?$AAi?$AAt?$AA?9?$AAi?$AAt@ 1003a098     libcpmt:winapinls.obj
 0002:000030a4       ??_C@_1M@NIEJCJJA@?$AAj?$AAa?$AA?9?$AAj?$AAp@ 1003a0a4     libcpmt:winapinls.obj
 0002:000030b0       ??_C@_1M@JILFNBIM@?$AAk?$AAa?$AA?9?$AAg?$AAe@ 1003a0b0     libcpmt:winapinls.obj
 0002:000030bc       ??_C@_1M@PACPMGPH@?$AAk?$AAk?$AA?9?$AAk?$AAz@ 1003a0bc     libcpmt:winapinls.obj
 0002:000030c8       ??_C@_1M@IELFGMHA@?$AAk?$AAn?$AA?9?$AAi?$AAn@ 1003a0c8     libcpmt:winapinls.obj
 0002:000030d4       ??_C@_1M@DMHAEOGC@?$AAk?$AAo?$AA?9?$AAk?$AAr@ 1003a0d4     libcpmt:winapinls.obj
 0002:000030e0       ??_C@_1O@IBBJHCH@?$AAk?$AAo?$AAk?$AA?9?$AAi?$AAn@ 1003a0e0     libcpmt:winapinls.obj
 0002:000030f0       ??_C@_1M@HBAHBIGA@?$AAk?$AAy?$AA?9?$AAk?$AAg@ 1003a0f0     libcpmt:winapinls.obj
 0002:000030fc       ??_C@_1M@KPMILCJG@?$AAl?$AAt?$AA?9?$AAl?$AAt@ 1003a0fc     libcpmt:winapinls.obj
 0002:00003108       ??_C@_1M@BDEKKCA@?$AAl?$AAv?$AA?9?$AAl?$AAv@ 1003a108     libcpmt:winapinls.obj
 0002:00003114       ??_C@_1M@ELCKCCJJ@?$AAm?$AAi?$AA?9?$AAn?$AAz@ 1003a114     libcpmt:winapinls.obj
 0002:00003120       ??_C@_1M@CBOOLAPA@?$AAm?$AAk?$AA?9?$AAm?$AAk@ 1003a120     libcpmt:winapinls.obj
 0002:0000312c       ??_C@_1M@GPHNBJKN@?$AAm?$AAl?$AA?9?$AAi?$AAn@ 1003a12c     libcpmt:winapinls.obj
 0002:00003138       ??_C@_1M@PABJILIG@?$AAm?$AAn?$AA?9?$AAm?$AAn@ 1003a138     libcpmt:winapinls.obj
 0002:00003144       ??_C@_1M@FGBKKIPG@?$AAm?$AAr?$AA?9?$AAi?$AAn@ 1003a144     libcpmt:winapinls.obj
 0002:00003150       ??_C@_1M@NDBPDDAL@?$AAm?$AAs?$AA?9?$AAb?$AAn@ 1003a150     libcpmt:winapinls.obj
 0002:0000315c       ??_C@_1M@OPIHOOPI@?$AAm?$AAs?$AA?9?$AAm?$AAy@ 1003a15c     libcpmt:winapinls.obj
 0002:00003168       ??_C@_1M@PPDBCNFM@?$AAm?$AAt?$AA?9?$AAm?$AAt@ 1003a168     libcpmt:winapinls.obj
 0002:00003174       ??_C@_1M@KDJDKMDD@?$AAn?$AAb?$AA?9?$AAn?$AAo@ 1003a174     libcpmt:winapinls.obj
 0002:00003180       ??_C@_1M@KFCFLMJP@?$AAn?$AAl?$AA?9?$AAb?$AAe@ 1003a180     libcpmt:winapinls.obj
 0002:0000318c       ??_C@_1M@KPOPDDGO@?$AAn?$AAl?$AA?9?$AAn?$AAl@ 1003a18c     libcpmt:winapinls.obj
 0002:00003198       ??_C@_1M@LJKPEMLN@?$AAn?$AAn?$AA?9?$AAn?$AAo@ 1003a198     libcpmt:winapinls.obj
 0002:000031a4       ??_C@_1M@BDGHHBFL@?$AAn?$AAs?$AA?9?$AAz?$AAa@ 1003a1a4     libcpmt:winapinls.obj
 0002:000031b0       ??_C@_1M@IDEHOAP@?$AAp?$AAa?$AA?9?$AAi?$AAn@ 1003a1b0     libcpmt:winapinls.obj
 0002:000031bc       ??_C@_1M@HDBKGOGH@?$AAp?$AAl?$AA?9?$AAp?$AAl@ 1003a1bc     libcpmt:winapinls.obj
 0002:000031c8       ??_C@_1M@LJLLCMEH@?$AAp?$AAt?$AA?9?$AAb?$AAr@ 1003a1c8     libcpmt:winapinls.obj
 0002:000031d4       ??_C@_1M@NCMONAAL@?$AAp?$AAt?$AA?9?$AAp?$AAt@ 1003a1d4     libcpmt:winapinls.obj
 0002:000031e0       ??_C@_1O@EAKMAJDN@?$AAq?$AAu?$AAz?$AA?9?$AAb?$AAo@ 1003a1e0     libcpmt:winapinls.obj
 0002:000031f0       ??_C@_1O@BHHPIGDN@?$AAq?$AAu?$AAz?$AA?9?$AAe?$AAc@ 1003a1f0     libcpmt:winapinls.obj
 0002:00003200       ??_C@_1O@GBAPEKMJ@?$AAq?$AAu?$AAz?$AA?9?$AAp?$AAe@ 1003a200     libcpmt:winapinls.obj
 0002:00003210       ??_C@_1M@CLGLEFBO@?$AAr?$AAo?$AA?9?$AAr?$AAo@ 1003a210     libcpmt:winapinls.obj
 0002:0000321c       ??_C@_1M@CEEDODME@?$AAr?$AAu?$AA?9?$AAr?$AAu@ 1003a21c     libcpmt:winapinls.obj
 0002:00003228       ??_C@_1M@HPKKKMPP@?$AAs?$AAa?$AA?9?$AAi?$AAn@ 1003a228     libcpmt:winapinls.obj
 0002:00003234       ??_C@_1M@BKMAIGOJ@?$AAs?$AAe?$AA?9?$AAf?$AAi@ 1003a234     libcpmt:winapinls.obj
 0002:00003240       ??_C@_1M@NDPIFLFI@?$AAs?$AAe?$AA?9?$AAn?$AAo@ 1003a240     libcpmt:winapinls.obj
 0002:0000324c       ??_C@_1M@DANKKHJ@?$AAs?$AAe?$AA?9?$AAs?$AAe@ 1003a24c     libcpmt:winapinls.obj
 0002:00003258       ??_C@_1M@PNBLONPJ@?$AAs?$AAk?$AA?9?$AAs?$AAk@ 1003a258     libcpmt:winapinls.obj
 0002:00003264       ??_C@_1M@LFMODOAL@?$AAs?$AAl?$AA?9?$AAs?$AAi@ 1003a264     libcpmt:winapinls.obj
 0002:00003270       ??_C@_1O@DFKOMPG@?$AAs?$AAm?$AAa?$AA?9?$AAn?$AAo@ 1003a270     libcpmt:winapinls.obj
 0002:00003280       ??_C@_1O@NDKPBNNH@?$AAs?$AAm?$AAa?$AA?9?$AAs?$AAe@ 1003a280     libcpmt:winapinls.obj
 0002:00003290       ??_C@_1O@PLLKBHAB@?$AAs?$AAm?$AAj?$AA?9?$AAn?$AAo@ 1003a290     libcpmt:winapinls.obj
 0002:000032a0       ??_C@_1O@CLEPOGCA@?$AAs?$AAm?$AAj?$AA?9?$AAs?$AAe@ 1003a2a0     libcpmt:winapinls.obj
 0002:000032b0       ??_C@_1O@DLGJGKMK@?$AAs?$AAm?$AAn?$AA?9?$AAf?$AAi@ 1003a2b0     libcpmt:winapinls.obj
 0002:000032c0       ??_C@_1O@OJDJGAJC@?$AAs?$AAm?$AAs?$AA?9?$AAf?$AAi@ 1003a2c0     libcpmt:winapinls.obj
 0002:000032d0       ??_C@_1M@BOFOGHPB@?$AAs?$AAq?$AA?9?$AAa?$AAl@ 1003a2d0     libcpmt:winapinls.obj
 0002:000032dc       ??_C@_1BG@LJBBIPGB@?$AAs?$AAr?$AA?9?$AAb?$AAa?$AA?9?$AAc?$AAy?$AAr?$AAl@ 1003a2dc     libcpmt:winapinls.obj
 0002:000032f4       ??_C@_1BG@JLBENFOE@?$AAs?$AAr?$AA?9?$AAb?$AAa?$AA?9?$AAl?$AAa?$AAt?$AAn@ 1003a2f4     libcpmt:winapinls.obj
 0002:0000330c       ??_C@_1BG@KODPNHE@?$AAs?$AAr?$AA?9?$AAs?$AAp?$AA?9?$AAc?$AAy?$AAr?$AAl@ 1003a30c     libcpmt:winapinls.obj
 0002:00003324       ??_C@_1BG@CIOGKHPB@?$AAs?$AAr?$AA?9?$AAs?$AAp?$AA?9?$AAl?$AAa?$AAt?$AAn@ 1003a324     libcpmt:winapinls.obj
 0002:0000333c       ??_C@_1M@NGFJLMAC@?$AAs?$AAv?$AA?9?$AAf?$AAi@ 1003a33c     libcpmt:winapinls.obj
 0002:00003348       ??_C@_1M@MPJEJAJC@?$AAs?$AAv?$AA?9?$AAs?$AAe@ 1003a348     libcpmt:winapinls.obj
 0002:00003354       ??_C@_1M@MPNDHLFK@?$AAs?$AAw?$AA?9?$AAk?$AAe@ 1003a354     libcpmt:winapinls.obj
 0002:00003360       ??_C@_1O@KOHBJJI@?$AAs?$AAy?$AAr?$AA?9?$AAs?$AAy@ 1003a360     libcpmt:winapinls.obj
 0002:00003370       ??_C@_1M@LDCEFHA@?$AAt?$AAa?$AA?9?$AAi?$AAn@ 1003a370     libcpmt:winapinls.obj
 0002:0000337c       ??_C@_1M@CNJOFAK@?$AAt?$AAe?$AA?9?$AAi?$AAn@ 1003a37c     libcpmt:winapinls.obj
 0002:00003388       ??_C@_1M@GNAECACD@?$AAt?$AAh?$AA?9?$AAt?$AAh@ 1003a388     libcpmt:winapinls.obj
 0002:00003394       ??_C@_1M@CHBIHOJO@?$AAt?$AAn?$AA?9?$AAz?$AAa@ 1003a394     libcpmt:winapinls.obj
 0002:000033a0       ??_C@_1M@GCCMIGPJ@?$AAt?$AAr?$AA?9?$AAt?$AAr@ 1003a3a0     libcpmt:winapinls.obj
 0002:000033ac       ??_C@_1M@CELMCNBK@?$AAt?$AAt?$AA?9?$AAr?$AAu@ 1003a3ac     libcpmt:winapinls.obj
 0002:000033b8       ??_C@_1M@KLMCELGA@?$AAu?$AAk?$AA?9?$AAu?$AAa@ 1003a3b8     libcpmt:winapinls.obj
 0002:000033c4       ??_C@_1M@EPAJJAJF@?$AAu?$AAr?$AA?9?$AAp?$AAk@ 1003a3c4     libcpmt:winapinls.obj
 0002:000033d0       ??_C@_1BG@GEGPMCDJ@?$AAu?$AAz?$AA?9?$AAu?$AAz?$AA?9?$AAc?$AAy?$AAr?$AAl@ 1003a3d0     libcpmt:winapinls.obj
 0002:000033e8       ??_C@_1BG@EGGKJILM@?$AAu?$AAz?$AA?9?$AAu?$AAz?$AA?9?$AAl?$AAa?$AAt?$AAn@ 1003a3e8     libcpmt:winapinls.obj
 0002:00003400       ??_C@_1M@GFOCLFF@?$AAv?$AAi?$AA?9?$AAv?$AAn@ 1003a400     libcpmt:winapinls.obj
 0002:0000340c       ??_C@_1M@CPAMEDFI@?$AAx?$AAh?$AA?9?$AAz?$AAa@ 1003a40c     libcpmt:winapinls.obj
 0002:00003418       ??_C@_1O@EBKIFIGN@?$AAz?$AAh?$AA?9?$AAc?$AAh?$AAs@ 1003a418     libcpmt:winapinls.obj
 0002:00003428       ??_C@_1O@NMHPGANE@?$AAz?$AAh?$AA?9?$AAc?$AAh?$AAt@ 1003a428     libcpmt:winapinls.obj
 0002:00003438       ??_C@_1M@LPINJOMC@?$AAz?$AAh?$AA?9?$AAc?$AAn@ 1003a438     libcpmt:winapinls.obj
 0002:00003444       ??_C@_1M@OCJEJODD@?$AAz?$AAh?$AA?9?$AAh?$AAk@ 1003a444     libcpmt:winapinls.obj
 0002:00003450       ??_C@_1M@DNDLJINH@?$AAz?$AAh?$AA?9?$AAm?$AAo@ 1003a450     libcpmt:winapinls.obj
 0002:0000345c       ??_C@_1M@MBFDNDND@?$AAz?$AAh?$AA?9?$AAs?$AAg@ 1003a45c     libcpmt:winapinls.obj
 0002:00003468       ??_C@_1M@IMEPLEPE@?$AAz?$AAh?$AA?9?$AAt?$AAw@ 1003a468     libcpmt:winapinls.obj
 0002:00003474       ??_C@_1M@BBGHNHJP@?$AAz?$AAu?$AA?9?$AAz?$AAa@ 1003a474     libcpmt:winapinls.obj
 0002:00003480       __pRawDllMain              1003a480     LIBCMT:dll_dllmain.obj
 0002:00003480       __pDefaultRawDllMain       1003a480     LIBCMT:dll_dllmain.obj
 0002:00003488       ??_7type_info@@6B@         1003a488     LIBCMT:std_type_info_static.obj
 0002:00003498       ??_7bad_array_new_length@std@@6B@ 1003a498     LIBCMT:throw_bad_alloc.obj
 0002:000034a0       ??_C@_0BF@KINCDENJ@bad?5array?5new?5length@ 1003a4a0     LIBCMT:throw_bad_alloc.obj
 0002:000034d8       __pDestructExceptionObject 1003a4d8     libvcruntime:ehhelpers.obj
 0002:000034e0       ??_7bad_exception@std@@6B@ 1003a4e0     libvcruntime:frame.obj
 0002:000034e8       ??_C@_0O@DPKOEFFH@bad?5exception@ 1003a4e8     libvcruntime:frame.obj
 0002:00003504       ??_C@_1DM@KHCHBNEB@?$AAa?$AAp?$AAi?$AA?9?$AAm?$AAs?$AA?9?$AAw?$AAi?$AAn?$AA?9?$AAc?$AAo?$AAr?$AAe@ 1003a504     libvcruntime:winapi_downlevel.obj
 0002:00003540       ??_C@_1DK@LPPGFMPP@?$AAa?$AAp?$AAi?$AA?9?$AAm?$AAs?$AA?9?$AAw?$AAi?$AAn?$AA?9?$AAc?$AAo?$AAr?$AAe@ 1003a540     libvcruntime:winapi_downlevel.obj
 0002:0000357c       ??_C@_1BC@GDMECMAK@?$AAk?$AAe?$AAr?$AAn?$AAe?$AAl?$AA3?$AA2@ 1003a57c     libvcruntime:winapi_downlevel.obj
 0002:00003590       ??_C@_1BA@PFFKHIOG@?$AAa?$AAp?$AAi?$AA?9?$AAm?$AAs?$AA?9@ 1003a590     libvcruntime:winapi_downlevel.obj
 0002:000035a0       ??_C@_1BA@IAIFMGEF@?$AAe?$AAx?$AAt?$AA?9?$AAm?$AAs?$AA?9@ 1003a5a0     libvcruntime:winapi_downlevel.obj
 0002:00003774       ??_C@_08EHJDFFNH@__based?$CI@ 1003a774     libvcruntime:undname.obj
 0002:00003780       ??_C@_07KOLFKCDI@__cdecl@  1003a780     libvcruntime:undname.obj
 0002:00003788       ??_C@_08GHMPAG@__pascal@   1003a788     libvcruntime:undname.obj
 0002:00003794       ??_C@_09IFJBGAPI@__stdcall@ 1003a794     libvcruntime:undname.obj
 0002:000037a0       ??_C@_0L@NPHFGOKO@__thiscall@ 1003a7a0     libvcruntime:undname.obj
 0002:000037ac       ??_C@_0L@JMKHOMEK@__fastcall@ 1003a7ac     libvcruntime:undname.obj
 0002:000037b8       ??_C@_0N@BCKKPABJ@__vectorcall@ 1003a7b8     libvcruntime:undname.obj
 0002:000037c8       ??_C@_09HIJEGCPM@__clrcall@ 1003a7c8     libvcruntime:undname.obj
 0002:000037d4       ??_C@_06GHPCKEAG@__eabi@   1003a7d4     libvcruntime:undname.obj
 0002:000037dc       ??_C@_09IOPIDJLG@__swift_1@ 1003a7dc     libvcruntime:undname.obj
 0002:000037e8       ??_C@_09KFNFGKHF@__swift_2@ 1003a7e8     libvcruntime:undname.obj
 0002:000037f4       ??_C@_07JOMMBBKO@__ptr64@  1003a7f4     libvcruntime:undname.obj
 0002:000037fc       ??_C@_0L@PILCLIHE@__restrict@ 1003a7fc     libvcruntime:undname.obj
 0002:00003808       ??_C@_0M@GFIIJFMG@__unaligned@ 1003a808     libvcruntime:undname.obj
 0002:00003814       ??_C@_09DHDLOLLB@restrict?$CI@ 1003a814     libvcruntime:undname.obj
 0002:00003820       ??_C@_04NIHEBCM@?5new@     1003a820     libvcruntime:undname.obj
 0002:00003828       ??_C@_07FPCDHGMM@?5delete@ 1003a828     libvcruntime:undname.obj
 0002:00003830       ??_C@_01NEMOKFLO@?$DN@     1003a830     libvcruntime:undname.obj
 0002:00003834       ??_C@_02GPIOPFAK@?$DO?$DO@ 1003a834     libvcruntime:undname.obj
 0002:00003838       ??_C@_02FODMEDOG@?$DM?$DM@ 1003a838     libvcruntime:undname.obj
 0002:0000383c       ??_C@_01DCLJPIOD@?$CB@     1003a83c     libvcruntime:undname.obj
 0002:00003840       ??_C@_02EGOFBIJA@?$DN?$DN@ 1003a840     libvcruntime:undname.obj
 0002:00003844       ??_C@_02FDNJECIE@?$CB?$DN@ 1003a844     libvcruntime:undname.obj
 0002:00003848       ??_C@_02GPECMEKF@?$FL?$FN@ 1003a848     libvcruntime:undname.obj
 0002:0000384c       ??_C@_08LHJFAFGD@operator@ 1003a84c     libvcruntime:undname.obj
 0002:00003858       ??_C@_02HBOOOICD@?9?$DO@   1003a858     libvcruntime:undname.obj
 0002:0000385c       ??_C@_02ECNGHCIF@?$CL?$CL@ 1003a85c     libvcruntime:undname.obj
 0002:00003860       ??_C@_02BAABKJLB@?9?9@     1003a860     libvcruntime:undname.obj
 0002:00003864       ??_C@_01MIFGBAGJ@?$CL@     1003a864     libvcruntime:undname.obj
 0002:00003868       ??_C@_01HNPIGOCE@?$CG@     1003a868     libvcruntime:undname.obj
 0002:0000386c       ??_C@_03MNHNFDLC@?9?$DO?$CK@ 1003a86c     libvcruntime:undname.obj
 0002:00003870       ??_C@_01KMDKNFGN@?1@       1003a870     libvcruntime:undname.obj
 0002:00003874       ??_C@_01FGNFDNOH@?$CF@     1003a874     libvcruntime:undname.obj
 0002:00003878       ??_C@_01MNNFJEPP@?$DM@     1003a878     libvcruntime:undname.obj
 0002:0000387c       ??_C@_02EHCHHCKH@?$DM?$DN@ 1003a87c     libvcruntime:undname.obj
 0002:00003880       ??_C@_01PPODPGHN@?$DO@     1003a880     libvcruntime:undname.obj
 0002:00003884       ??_C@_02EEKDKGMJ@?$DO?$DN@ 1003a884     libvcruntime:undname.obj
 0002:00003888       ??_C@_01IHBHIGKO@?0@       1003a888     libvcruntime:undname.obj
 0002:0000388c       ??_C@_02HCKGKOFO@?$CI?$CJ@ 1003a88c     libvcruntime:undname.obj
 0002:00003890       ??_C@_01PJKLJHI@?$HO@      1003a890     libvcruntime:undname.obj
 0002:00003894       ??_C@_01JKBOJNNK@?$FO@     1003a894     libvcruntime:undname.obj
 0002:00003898       ??_C@_01DNKMNLPK@?$HM@     1003a898     libvcruntime:undname.obj
 0002:0000389c       ??_C@_02PPKAJPJL@?$CG?$CG@ 1003a89c     libvcruntime:undname.obj
 0002:000038a0       ??_C@_02NONPIBCD@?$HM?$HM@ 1003a8a0     libvcruntime:undname.obj
 0002:000038a4       ??_C@_02FPIMKNGF@?$CK?$DN@ 1003a8a4     libvcruntime:undname.obj
 0002:000038a8       ??_C@_02FOEOMHFC@?$CL?$DN@ 1003a8a8     libvcruntime:undname.obj
 0002:000038ac       ??_C@_02FKMDLLOA@?9?$DN@   1003a8ac     libvcruntime:undname.obj
 0002:000038b0       ??_C@_02FJEHGPIO@?1?$DN@   1003a8b0     libvcruntime:undname.obj
 0002:000038b4       ??_C@_02FENAOKFI@?$CF?$DN@ 1003a8b4     libvcruntime:undname.obj
 0002:000038b8       ??_C@_03IKFCCPFF@?$DO?$DO?$DN@ 1003a8b8     libvcruntime:undname.obj
 0002:000038bc       ??_C@_03CDNPDDLA@?$DM?$DM?$DN@ 1003a8bc     libvcruntime:undname.obj
 0002:000038c0       ??_C@_02FGJGFEAB@?$CG?$DN@ 1003a8c0     libvcruntime:undname.obj
 0002:000038c4       ??_C@_02DHLNPPGH@?$HM?$DN@ 1003a8c4     libvcruntime:undname.obj
 0002:000038c8       ??_C@_02MHEGNOJ@?$FO?$DN@  1003a8c8     libvcruntime:undname.obj
 0002:000038cc       ??_C@_09IFPLHPGF@?$GAvftable?8@ 1003a8cc     libvcruntime:undname.obj
 0002:000038d8       ??_C@_09BLBHBJP@?$GAvbtable?8@ 1003a8d8     libvcruntime:undname.obj
 0002:000038e4       ??_C@_07FEEIOKP@?$GAvcall?8@ 1003a8e4     libvcruntime:undname.obj
 0002:000038ec       ??_C@_08LLFFHHDJ@?$GAtypeof?8@ 1003a8ec     libvcruntime:undname.obj
 0002:000038f8       ??_C@_0BF@KDPPACIK@?$GAlocal?5static?5guard?8@ 1003a8f8     libvcruntime:undname.obj
 0002:00003910       ??_C@_08OBABFOLI@?$GAstring?8@ 1003a910     libvcruntime:undname.obj
 0002:0000391c       ??_C@_0BD@JDLKDPAB@?$GAvbase?5destructor?8@ 1003a91c     libvcruntime:undname.obj
 0002:00003930       ??_C@_0BN@DEGPLNFK@?$GAvector?5deleting?5destructor?8@ 1003a930     libvcruntime:undname.obj
 0002:00003950       ??_C@_0BO@OBMKPJIG@?$GAdefault?5constructor?5closure?8@ 1003a950     libvcruntime:undname.obj
 0002:00003970       ??_C@_0BN@IMDCHIKM@?$GAscalar?5deleting?5destructor?8@ 1003a970     libvcruntime:undname.obj
 0002:00003990       ??_C@_0BO@PFGOCPJJ@?$GAvector?5constructor?5iterator?8@ 1003a990     libvcruntime:undname.obj
 0002:000039b0       ??_C@_0BN@LFPFMEDL@?$GAvector?5destructor?5iterator?8@ 1003a9b0     libvcruntime:undname.obj
 0002:000039d0       ??_C@_0CE@IKBNEHA@?$GAvector?5vbase?5constructor?5itera@ 1003a9d0     libvcruntime:undname.obj
 0002:000039f4       ??_C@_0BL@NILFHHPC@?$GAvirtual?5displacement?5map?8@ 1003a9f4     libvcruntime:undname.obj
 0002:00003a10       ??_C@_0CB@JONCMFFK@?$GAeh?5vector?5constructor?5iterator@ 1003aa10     libvcruntime:undname.obj
 0002:00003a34       ??_C@_0CA@GCEOPDGL@?$GAeh?5vector?5destructor?5iterator?8@ 1003aa34     libvcruntime:undname.obj
 0002:00003a54       ??_C@_0CH@OOJPLCPH@?$GAeh?5vector?5vbase?5constructor?5it@ 1003aa54     libvcruntime:undname.obj
 0002:00003a7c       ??_C@_0BL@LLKPOHJI@?$GAcopy?5constructor?5closure?8@ 1003aa7c     libvcruntime:undname.obj
 0002:00003a98       ??_C@_0BA@KBCDOMBN@?$GAudt?5returning?8@ 1003aa98     libvcruntime:undname.obj
 0002:00003aa8       ??_C@_03KLGMFNMG@?$GAEH@   1003aaa8     libvcruntime:undname.obj
 0002:00003aac       ??_C@_05KHLCHHI@?$GARTTI@  1003aaac     libvcruntime:undname.obj
 0002:00003ab4       ??_C@_0BA@KKLDJDLB@?$GAlocal?5vftable?8@ 1003aab4     libvcruntime:undname.obj
 0002:00003ac4       ??_C@_0CE@IIHCMGGL@?$GAlocal?5vftable?5constructor?5clos@ 1003aac4     libvcruntime:undname.obj
 0002:00003ae8       ??_C@_06FHBGPFGH@?5new?$FL?$FN@ 1003aae8     libvcruntime:undname.obj
 0002:00003af0       ??_C@_09LBNFPBCA@?5delete?$FL?$FN@ 1003aaf0     libvcruntime:undname.obj
 0002:00003afc       ??_C@_0P@HJKNJFNN@?$GAomni?5callsig?8@ 1003aafc     libvcruntime:undname.obj
 0002:00003b0c       ??_C@_0BL@CNOONJFP@?$GAplacement?5delete?5closure?8@ 1003ab0c     libvcruntime:undname.obj
 0002:00003b28       ??_C@_0BN@CKNJLHMB@?$GAplacement?5delete?$FL?$FN?5closure?8@ 1003ab28     libvcruntime:undname.obj
 0002:00003b48       ??_C@_0CG@CFDHKGGD@?$GAmanaged?5vector?5constructor?5ite@ 1003ab48     libvcruntime:undname.obj
 0002:00003b70       ??_C@_0CF@IMGKMJNO@?$GAmanaged?5vector?5destructor?5iter@ 1003ab70     libvcruntime:undname.obj
 0002:00003b98       ??_C@_0CG@HLDDJMAG@?$GAeh?5vector?5copy?5constructor?5ite@ 1003ab98     libvcruntime:undname.obj
 0002:00003bc0       ??_C@_0CM@FCBBDIGB@?$GAeh?5vector?5vbase?5copy?5construct@ 1003abc0     libvcruntime:undname.obj
 0002:00003bec       ??_C@_0BL@CLIPGLGB@?$GAdynamic?5initializer?5for?5?8@ 1003abec     libvcruntime:undname.obj
 0002:00003c08       ??_C@_0CB@PDBIFEP@?$GAdynamic?5atexit?5destructor?5for?5@ 1003ac08     libvcruntime:undname.obj
 0002:00003c2c       ??_C@_0CD@CGAJBKEJ@?$GAvector?5copy?5constructor?5iterat@ 1003ac2c     libvcruntime:undname.obj
 0002:00003c50       ??_C@_0CJ@GJELGAMM@?$GAvector?5vbase?5copy?5constructor?5@ 1003ac50     libvcruntime:undname.obj
 0002:00003c7c       ??_C@_0CL@FGIJHLCE@?$GAmanaged?5vector?5copy?5constructo@ 1003ac7c     libvcruntime:undname.obj
 0002:00003ca8       ??_C@_0BM@PMGGMLDN@?$GAlocal?5static?5thread?5guard?8@ 1003aca8     libvcruntime:undname.obj
 0002:00003cc4       ??_C@_0N@BDNMDMOL@operator?5?$CC?$CC?5@ 1003acc4     libvcruntime:undname.obj
 0002:00003cd4       ??_C@_0BC@GGEBGALA@operator?5co_await@ 1003acd4     libvcruntime:undname.obj
 0002:00003ce8       ??_C@_0BC@DAFEJGAK@?5Type?5Descriptor?8@ 1003ace8     libvcruntime:undname.obj
 0002:00003cfc       ??_C@_0BM@LDKODKLH@?5Base?5Class?5Descriptor?5at?5?$CI@ 1003acfc     libvcruntime:undname.obj
 0002:00003d18       ??_C@_0BD@LGICGFMM@?5Base?5Class?5Array?8@ 1003ad18     libvcruntime:undname.obj
 0002:00003d2c       ??_C@_0BN@MECKDCOJ@?5Class?5Hierarchy?5Descriptor?8@ 1003ad2c     libvcruntime:undname.obj
 0002:00003d4c       ??_C@_0BK@CFCOFLF@?5Complete?5Object?5Locator?8@ 1003ad4c     libvcruntime:undname.obj
 0002:00003d68       _standard_lookup_table     1003ad68     libucrt:output.obj
 0002:00003dc8       _format_validation_lookup_table 1003adc8     libucrt:output.obj
 0002:00003e24       ??_C@_1O@CEDCILHN@?$AA?$CI?$AAn?$AAu?$AAl?$AAl?$AA?$CJ?$AA?$AA@ 1003ae24     libucrt:output.obj
 0002:00003e34       ??_C@_06OJHGLDPL@?$CInull?$CJ?$AA@ 1003ae34     libucrt:output.obj
 0002:00003e40       __real@3ff0000000000000    1003ae40     libucrt:frexp.obj
 0002:00003e48       __real@8000000000000000    1003ae48     libucrt:frexp.obj
 0002:00003e50       ??_C@_1EK@MBDPDCGA@?$AAM?$AAi?$AAc?$AAr?$AAo?$AAs?$AAo?$AAf?$AAt?$AA?5?$AAV?$AAi?$AAs?$AAu?$AAa?$AAl?$AA?5?$AAC?$AA?$CL?$AA?$CL?$AA?5?$AAR?$AAu?$AAn?$AAt?$AAi?$AAm?$AAe?$AA?5?$AAL?$AAi?$AAb@ 1003ae50     libucrt:assert.obj
 0002:00003ea0       ??_C@_1FE@LHBLIKM@?$AAA?$AAs?$AAs?$AAe?$AAr?$AAt?$AAi?$AAo?$AAn?$AA?5?$AAf?$AAa?$AAi?$AAl?$AAe?$AAd?$AA?3?$AA?5?$AA?$CF?$AAT?$AAs?$AA?0?$AA?5?$AAf?$AAi?$AAl?$AAe?$AA?5?$AA?$CF?$AAT?$AAs?$AA?0@ 1003aea0     libucrt:assert.obj
 0002:00003ef4       ??_C@_1CE@OJBNHDMO@?$AAA?$AAs?$AAs?$AAe?$AAr?$AAt?$AAi?$AAo?$AAn?$AA?5?$AAf?$AAa?$AAi?$AAl?$AAe?$AAd?$AA?$CB?$AA?$AA@ 1003aef4     libucrt:assert.obj
 0002:00003f18       ??_C@_1BE@PHKBBGE@?$AAP?$AAr?$AAo?$AAg?$AAr?$AAa?$AAm?$AA?3?$AA?5?$AA?$AA@ 1003af18     libucrt:assert.obj
 0002:00003f2c       ??_C@_1O@HEMHKNDC@?$AAF?$AAi?$AAl?$AAe?$AA?3?$AA?5?$AA?$AA@ 1003af2c     libucrt:assert.obj
 0002:00003f3c       ??_C@_1O@KCAFKHJE@?$AAL?$AAi?$AAn?$AAe?$AA?3?$AA?5?$AA?$AA@ 1003af3c     libucrt:assert.obj
 0002:00003f4c       ??_C@_1BK@PEDCIPMA@?$AAE?$AAx?$AAp?$AAr?$AAe?$AAs?$AAs?$AAi?$AAo?$AAn?$AA?3?$AA?5?$AA?$AA@ 1003af4c     libucrt:assert.obj
 0002:00003f68       ??_C@_1OA@EGMLFBHJ@?$AAF?$AAo?$AAr?$AA?5?$AAi?$AAn?$AAf?$AAo?$AAr?$AAm?$AAa?$AAt?$AAi?$AAo?$AAn?$AA?5?$AAo?$AAn?$AA?5?$AAh?$AAo?$AAw?$AA?5?$AAy?$AAo?$AAu?$AAr?$AA?5?$AAp?$AAr?$AAo?$AAg@ 1003af68     libucrt:assert.obj
 0002:00004048       ??_C@_1HK@POCJMFGK@?$AA?$CI?$AAP?$AAr?$AAe?$AAs?$AAs?$AA?5?$AAR?$AAe?$AAt?$AAr?$AAy?$AA?5?$AAt?$AAo?$AA?5?$AAd?$AAe?$AAb?$AAu?$AAg?$AA?5?$AAt?$AAh?$AAe?$AA?5?$AAa?$AAp?$AAp?$AAl?$AAi?$AAc@ 1003b048     libucrt:assert.obj
 0002:000040c4       ??_C@_17LGKOMLJ@?$AA?4?$AA?4?$AA?4?$AA?$AA@ 1003b0c4     libucrt:assert.obj
 0002:000040cc       ??_C@_13LBAGMAIH@?$AA?6?$AA?$AA@ 1003b0cc     libucrt:assert.obj
 0002:000040d0       ??_C@_15IABLJNFO@?$AA?6?$AA?6?$AA?$AA@ 1003b0d0     libucrt:assert.obj
 0002:000040d8       ??_C@_1CO@EAEJAADC@?$AA?$DM?$AAp?$AAr?$AAo?$AAg?$AAr?$AAa?$AAm?$AA?5?$AAn?$AAa?$AAm?$AAe?$AA?5?$AAu?$AAn?$AAk?$AAn?$AAo?$AAw?$AAn?$AA?$DO?$AA?$AA@ 1003b0d8     libucrt:assert.obj
 0002:00004108       __wctype                   1003b108     libucrt:ctype.obj
 0002:00004310       ___newctype                1003b310     libucrt:ctype.obj
 0002:00004610       ___newclmap                1003b610     libucrt:ctype.obj
 0002:00004790       ___newcumap                1003b790     libucrt:ctype.obj
 0002:00004a70       ?large_power_data@?1??multiply_by_power_of_ten@__crt_strtox@@YA_NAAUbig_integer@2@I@Z@4QBIB 1003ba70     libucrt:strtod.obj
 0002:00005378       ?large_power_indices@?1??multiply_by_power_of_ten@__crt_strtox@@YA_NAAUbig_integer@2@I@Z@4QBUunpack_index@?1??12@YA_N0I@Z@B 1003c378     libucrt:strtod.obj
 0002:00005410       ?small_powers_of_ten@?1??multiply_by_power_of_ten@__crt_strtox@@YA_NAAUbig_integer@2@I@Z@4QBIB 1003c410     libucrt:strtod.obj
 0002:00005444       __half                     1003c444     libucrt:pow.obj
 0002:00005450       ___acrt_exception_action_table 1003c450     libucrt:exception_filter.obj
 0002:000054e0       ___acrt_signal_action_table_count 1003c4e0     libucrt:exception_filter.obj
 0002:000054e4       ___acrt_signal_action_first_fpe_index 1003c4e4     libucrt:exception_filter.obj
 0002:000054e8       ___acrt_signal_action_fpe_count 1003c4e8     libucrt:exception_filter.obj
 0002:000054ec       ??_C@_1BI@BGOHAHKC@?$AAm?$AAs?$AAc?$AAo?$AAr?$AAe?$AAe?$AA?4?$AAd?$AAl?$AAl?$AA?$AA@ 1003c4ec     libucrt:exit.obj
 0002:00005504       ??_C@_0P@MIGLKIOC@CorExitProcess?$AA@ 1003c504     libucrt:exit.obj
 0002:000055e0       ??_C@_1EA@JGEFHKEI@?$AAa?$AAp?$AAi?$AA?9?$AAm?$AAs?$AA?9?$AAw?$AAi?$AAn?$AA?9?$AAc?$AAo?$AAr?$AAe?$AA?9?$AAd?$AAa?$AAt?$AAe?$AAt?$AAi?$AAm?$AAe?$AA?9?$AAl?$AA1?$AA?9?$AA1?$AA?9?$AA1?$AA?$AA@ 1003c5e0     libucrt:winapi_thunks.obj
 0002:00005620       ??_C@_1DM@KHCHBNEB@?$AAa?$AAp?$AAi?$AA?9?$AAm?$AAs?$AA?9?$AAw?$AAi?$AAn?$AA?9?$AAc?$AAo?$AAr?$AAe?$AA?9?$AAf?$AAi?$AAb?$AAe?$AAr?$AAs?$AA?9?$AAl?$AA1?$AA?9?$AA1?$AA?9?$AA1?$AA?$AA@ 1003c620     libucrt:winapi_thunks.obj
 0002:00005660       ??_C@_1EI@MPIAOHOC@?$AAa?$AAp?$AAi?$AA?9?$AAm?$AAs?$AA?9?$AAw?$AAi?$AAn?$AA?9?$AAc?$AAo?$AAr?$AAe?$AA?9?$AAl?$AAo?$AAc?$AAa?$AAl?$AAi?$AAz?$AAa?$AAt?$AAi?$AAo?$AAn?$AA?9?$AAl?$AA1?$AA?9@ 1003c660     libucrt:winapi_thunks.obj
 0002:000056a8       ??_C@_1FK@FPHCKFIE@?$AAa?$AAp?$AAi?$AA?9?$AAm?$AAs?$AA?9?$AAw?$AAi?$AAn?$AA?9?$AAc?$AAo?$AAr?$AAe?$AA?9?$AAl?$AAo?$AAc?$AAa?$AAl?$AAi?$AAz?$AAa?$AAt?$AAi?$AAo?$AAn?$AA?9?$AAo?$AAb?$AAs@ 1003c6a8     libucrt:winapi_thunks.obj
 0002:00005708       ??_C@_1EM@DILCGIIO@?$AAa?$AAp?$AAi?$AA?9?$AAm?$AAs?$AA?9?$AAw?$AAi?$AAn?$AA?9?$AAc?$AAo?$AAr?$AAe?$AA?9?$AAp?$AAr?$AAo?$AAc?$AAe?$AAs?$AAs?$AAt?$AAh?$AAr?$AAe?$AAa?$AAd?$AAs?$AA?9?$AAl@ 1003c708     libucrt:winapi_thunks.obj
 0002:00005754       ??_C@_1DM@LNCGDDPN@?$AAa?$AAp?$AAi?$AA?9?$AAm?$AAs?$AA?9?$AAw?$AAi?$AAn?$AA?9?$AAc?$AAo?$AAr?$AAe?$AA?9?$AAs?$AAt?$AAr?$AAi?$AAn?$AAg?$AA?9?$AAl?$AA1?$AA?9?$AA1?$AA?9?$AA0?$AA?$AA@ 1003c754     libucrt:winapi_thunks.obj
 0002:00005790       ??_C@_1DK@LPPGFMPP@?$AAa?$AAp?$AAi?$AA?9?$AAm?$AAs?$AA?9?$AAw?$AAi?$AAn?$AA?9?$AAc?$AAo?$AAr?$AAe?$AA?9?$AAs?$AAy?$AAn?$AAc?$AAh?$AA?9?$AAl?$AA1?$AA?9?$AA2?$AA?9?$AA0?$AA?$AA@ 1003c790     libucrt:winapi_thunks.obj
 0002:000057cc       ??_C@_1DO@FPAPJEMD@?$AAa?$AAp?$AAi?$AA?9?$AAm?$AAs?$AA?9?$AAw?$AAi?$AAn?$AA?9?$AAc?$AAo?$AAr?$AAe?$AA?9?$AAs?$AAy?$AAs?$AAi?$AAn?$AAf?$AAo?$AA?9?$AAl?$AA1?$AA?9?$AA2?$AA?9?$AA1?$AA?$AA@ 1003c7cc     libucrt:winapi_thunks.obj
 0002:0000580c       ??_C@_1DK@NDHNAHIO@?$AAa?$AAp?$AAi?$AA?9?$AAm?$AAs?$AA?9?$AAw?$AAi?$AAn?$AA?9?$AAc?$AAo?$AAr?$AAe?$AA?9?$AAw?$AAi?$AAn?$AAr?$AAt?$AA?9?$AAl?$AA1?$AA?9?$AA1?$AA?9?$AA0?$AA?$AA@ 1003c80c     libucrt:winapi_thunks.obj
 0002:00005848       ??_C@_1DM@KGHDGBCM@?$AAa?$AAp?$AAi?$AA?9?$AAm?$AAs?$AA?9?$AAw?$AAi?$AAn?$AA?9?$AAc?$AAo?$AAr?$AAe?$AA?9?$AAx?$AAs?$AAt?$AAa?$AAt?$AAe?$AA?9?$AAl?$AA2?$AA?9?$AA1?$AA?9?$AA0?$AA?$AA@ 1003c848     libucrt:winapi_thunks.obj
 0002:00005888       ??_C@_1EO@IJIOEFOH@?$AAa?$AAp?$AAi?$AA?9?$AAm?$AAs?$AA?9?$AAw?$AAi?$AAn?$AA?9?$AAr?$AAt?$AAc?$AAo?$AAr?$AAe?$AA?9?$AAn?$AAt?$AAu?$AAs?$AAe?$AAr?$AA?9?$AAw?$AAi?$AAn?$AAd?$AAo?$AAw?$AA?9@ 1003c888     libucrt:winapi_thunks.obj
 0002:000058d8       ??_C@_1FG@HHGEKANL@?$AAa?$AAp?$AAi?$AA?9?$AAm?$AAs?$AA?9?$AAw?$AAi?$AAn?$AA?9?$AAs?$AAe?$AAc?$AAu?$AAr?$AAi?$AAt?$AAy?$AA?9?$AAs?$AAy?$AAs?$AAt?$AAe?$AAm?$AAf?$AAu?$AAn?$AAc?$AAt?$AAi@ 1003c8d8     libucrt:winapi_thunks.obj
 0002:00005930       ??_C@_1EG@DBIOJECG@?$AAe?$AAx?$AAt?$AA?9?$AAm?$AAs?$AA?9?$AAw?$AAi?$AAn?$AA?9?$AAn?$AAt?$AAu?$AAs?$AAe?$AAr?$AA?9?$AAd?$AAi?$AAa?$AAl?$AAo?$AAg?$AAb?$AAo?$AAx?$AA?9?$AAl?$AA1?$AA?9?$AA1@ 1003c930     libucrt:winapi_thunks.obj
 0002:00005978       ??_C@_1EO@FIHMJCLF@?$AAe?$AAx?$AAt?$AA?9?$AAm?$AAs?$AA?9?$AAw?$AAi?$AAn?$AA?9?$AAn?$AAt?$AAu?$AAs?$AAe?$AAr?$AA?9?$AAw?$AAi?$AAn?$AAd?$AAo?$AAw?$AAs?$AAt?$AAa?$AAt?$AAi?$AAo?$AAn?$AA?9@ 1003c978     libucrt:winapi_thunks.obj
 0002:000059c8       ??_C@_1BC@DNHGCMLG@?$AAa?$AAd?$AAv?$AAa?$AAp?$AAi?$AA3?$AA2?$AA?$AA@ 1003c9c8     libucrt:winapi_thunks.obj
 0002:000059dc       ??_C@_1BC@GDMECMAK@?$AAk?$AAe?$AAr?$AAn?$AAe?$AAl?$AA3?$AA2?$AA?$AA@ 1003c9dc     libucrt:winapi_thunks.obj
 0002:000059f0       ??_C@_1M@OAIMIKLP@?$AAn?$AAt?$AAd?$AAl?$AAl?$AA?$AA@ 1003c9f0     libucrt:winapi_thunks.obj
 0002:00005a00       ??_C@_1EG@DPGNFKGC@?$AAa?$AAp?$AAi?$AA?9?$AAm?$AAs?$AA?9?$AAw?$AAi?$AAn?$AA?9?$AAa?$AAp?$AAp?$AAm?$AAo?$AAd?$AAe?$AAl?$AA?9?$AAr?$AAu?$AAn?$AAt?$AAi?$AAm?$AAe?$AA?9?$AAl?$AA1?$AA?9?$AA1@ 1003ca00     libucrt:winapi_thunks.obj
 0002:00005a48       ??_C@_1O@BCCLBEOE@?$AAu?$AAs?$AAe?$AAr?$AA3?$AA2?$AA?$AA@ 1003ca48     libucrt:winapi_thunks.obj
 0002:00005a58       ??_C@_1BA@PFFKHIOG@?$AAa?$AAp?$AAi?$AA?9?$AAm?$AAs?$AA?9?$AA?$AA@ 1003ca58     libucrt:winapi_thunks.obj
 0002:00005a68       ??_C@_1BA@IAIFMGEF@?$AAe?$AAx?$AAt?$AA?9?$AAm?$AAs?$AA?9?$AA?$AA@ 1003ca68     libucrt:winapi_thunks.obj
 0002:00005a7c       ??_C@_0BA@FHFNEAED@AreFileApisANSI?$AA@ 1003ca7c     libucrt:winapi_thunks.obj
 0002:00005a94       ??_C@_0BA@IHGNDAEB@CompareStringEx?$AA@ 1003ca94     libucrt:winapi_thunks.obj
 0002:00005aac       ??_C@_0BE@LJANKFHF@EnumSystemLocalesEx?$AA@ 1003caac     libucrt:winapi_thunks.obj
 0002:00005ac8       ??_C@_08KNHFBNJ@FlsAlloc?$AA@ 1003cac8     libucrt:winapi_thunks.obj
 0002:00005adc       ??_C@_07PEJMOBNF@FlsFree?$AA@ 1003cadc     libucrt:winapi_thunks.obj
 0002:00005aec       ??_C@_0M@GDNOONDI@FlsGetValue?$AA@ 1003caec     libucrt:winapi_thunks.obj
 0002:00005b00       ??_C@_0M@JCPCPOEF@FlsSetValue?$AA@ 1003cb00     libucrt:winapi_thunks.obj
 0002:00005b14       ??_C@_0BA@HNOPNCHB@GetActiveWindow?$AA@ 1003cb14     libucrt:winapi_thunks.obj
 0002:00005b2c       ??_C@_0BA@EPCJIIPD@GetDateFormatEx?$AA@ 1003cb2c     libucrt:winapi_thunks.obj
 0002:00005b44       ??_C@_0BD@HHGDFDBJ@GetLastActivePopup?$AA@ 1003cb44     libucrt:winapi_thunks.obj
 0002:00005b60       ??_C@_0BA@ONOKGCMP@GetLocaleInfoEx?$AA@ 1003cb60     libucrt:winapi_thunks.obj
 0002:00005b78       ??_C@_0BI@DFKBFLJE@GetProcessWindowStation?$AA@ 1003cb78     libucrt:winapi_thunks.obj
 0002:00005b98       ??_C@_0BA@CIJJKCJJ@GetTimeFormatEx?$AA@ 1003cb98     libucrt:winapi_thunks.obj
 0002:00005bb0       ??_C@_0BJ@PBCCBIPI@GetUserDefaultLocaleName?$AA@ 1003cbb0     libucrt:winapi_thunks.obj
 0002:00005bd4       ??_C@_0BK@DEKFELLI@GetUserObjectInformationW?$AA@ 1003cbd4     libucrt:winapi_thunks.obj
 0002:00005bf8       ??_C@_0BM@HCFOFFN@InitializeCriticalSectionEx?$AA@ 1003cbf8     libucrt:winapi_thunks.obj
 0002:00005c1c       ??_C@_0BC@CELBKLLA@IsValidLocaleName?$AA@ 1003cc1c     libucrt:winapi_thunks.obj
 0002:00005c38       ??_C@_0O@KKBNKAPF@LCMapStringEx?$AA@ 1003cc38     libucrt:winapi_thunks.obj
 0002:00005c50       ??_C@_0BB@CDHDDLLP@LCIDToLocaleName?$AA@ 1003cc50     libucrt:winapi_thunks.obj
 0002:00005c6c       ??_C@_0BB@HBDEELFH@LocaleNameToLCID?$AA@ 1003cc6c     libucrt:winapi_thunks.obj
 0002:00005c88       ??_C@_0M@CHKKJDAI@MessageBoxA?$AA@ 1003cc88     libucrt:winapi_thunks.obj
 0002:00005c9c       ??_C@_0M@DLDCCGNP@MessageBoxW?$AA@ 1003cc9c     libucrt:winapi_thunks.obj
 0002:00005cac       ??_C@_0CF@OJOFEIGO@AppPolicyGetProcessTerminationMe@ 1003ccac     libucrt:winapi_thunks.obj
 0002:00005cd8       ??_C@_0CE@OICFMIKE@AppPolicyGetShowDeveloperDiagnos@ 1003ccd8     libucrt:winapi_thunks.obj
 0002:00005d00       ??_C@_0BL@ODDJNEDA@AppPolicyGetWindowingModel?$AA@ 1003cd00     libucrt:winapi_thunks.obj
 0002:00005d1c       ??_C@_03OEIAHPBN@INF?$AA@  1003cd1c     libucrt:cvt.obj
 0002:00005d20       ??_C@_03OJHLLCGB@inf?$AA@  1003cd20     libucrt:cvt.obj
 0002:00005d24       ??_C@_03LKNCIKJB@NAN?$AA@  1003cd24     libucrt:cvt.obj
 0002:00005d28       ??_C@_03LHCJEHON@nan?$AA@  1003cd28     libucrt:cvt.obj
 0002:00005d2c       ??_C@_09OFJJIMPC@NAN?$CISNAN?$CJ?$AA@ 1003cd2c     libucrt:cvt.obj
 0002:00005d38       ??_C@_09IPFBKMDL@nan?$CIsnan?$CJ?$AA@ 1003cd38     libucrt:cvt.obj
 0002:00005d44       ??_C@_08IKHNHAJ@NAN?$CIIND?$CJ?$AA@ 1003cd44     libucrt:cvt.obj
 0002:00005d50       ??_C@_08OFCDMILK@nan?$CIind?$CJ?$AA@ 1003cd50     libucrt:cvt.obj
 0002:00005d5c       ??_C@_05KLBDPFGC@e?$CL000?$AA@ 1003cd5c     libucrt:cvt.obj
 0002:00005d68       ___lc_category             1003cd68     libucrt:wsetlocale.obj
 0002:00005db0       ??_C@_1O@GIFLHMA@?$AAL?$AAC?$AA_?$AAA?$AAL?$AAL?$AA?$AA@ 1003cdb0     libucrt:wsetlocale.obj
 0002:00005dc0       ??_C@_1BG@PPOMIBNJ@?$AAL?$AAC?$AA_?$AAC?$AAO?$AAL?$AAL?$AAA?$AAT?$AAE?$AA?$AA@ 1003cdc0     libucrt:wsetlocale.obj
 0002:00005dd8       ??_C@_1BC@FFJGAPJM@?$AAL?$AAC?$AA_?$AAC?$AAT?$AAY?$AAP?$AAE?$AA?$AA@ 1003cdd8     libucrt:wsetlocale.obj
 0002:00005dec       ??_C@_1BI@PCKFNJFB@?$AAL?$AAC?$AA_?$AAM?$AAO?$AAN?$AAE?$AAT?$AAA?$AAR?$AAY?$AA?$AA@ 1003cdec     libucrt:wsetlocale.obj
 0002:00005e04       ??_C@_1BG@ENIEDKID@?$AAL?$AAC?$AA_?$AAN?$AAU?$AAM?$AAE?$AAR?$AAI?$AAC?$AA?$AA@ 1003ce04     libucrt:wsetlocale.obj
 0002:00005e1c       ??_C@_1BA@HAAOMIIG@?$AAL?$AAC?$AA_?$AAT?$AAI?$AAM?$AAE?$AA?$AA@ 1003ce1c     libucrt:wsetlocale.obj
 0002:00005eb0       ??_C@_15NBPDDFIP@?$AA?$DN?$AA?$DL?$AA?$AA@ 1003ceb0     libucrt:wsetlocale.obj
 0002:00005eb8       ??_C@_13PJJBFPED@?$AA?$DL?$AA?$AA@ 1003ceb8     libucrt:wsetlocale.obj
 0002:00005ebc       ??_C@_13NMPKAAJP@?$AA?$DN?$AA?$AA@ 1003cebc     libucrt:wsetlocale.obj
 0002:00005ec0       ??_C@_13FHBKNHDA@?$AAC?$AA?$AA@ 1003cec0     libucrt:wsetlocale.obj
 0002:00005ec4       ??_C@_17MBJJLFDM@?$AA_?$AA?4?$AA?0?$AA?$AA@ 1003cec4     libucrt:wsetlocale.obj
 0002:00005ecc       ??_C@_13ENNFDPBH@?$AA_?$AA?$AA@ 1003cecc     libucrt:wsetlocale.obj
 0002:00005ed0       ??_C@_13JOFGPIOO@?$AA?4?$AA?$AA@ 1003ced0     libucrt:wsetlocale.obj
 0002:00005ed4       ??_C@_03KOEHGMDN@Sun?$AA@  1003ced4     libucrt:nlsdata.obj
 0002:00005ed8       ??_C@_03PDAGKDH@Mon?$AA@   1003ced8     libucrt:nlsdata.obj
 0002:00005edc       ??_C@_03NAGEINEP@Tue?$AA@  1003cedc     libucrt:nlsdata.obj
 0002:00005ee0       ??_C@_03MHOMLAJA@Wed?$AA@  1003cee0     libucrt:nlsdata.obj
 0002:00005ee4       ??_C@_03IOFIKPDN@Thu?$AA@  1003cee4     libucrt:nlsdata.obj
 0002:00005ee8       ??_C@_03IDIOELNC@Fri?$AA@  1003cee8     libucrt:nlsdata.obj
 0002:00005eec       ??_C@_03FEFJNEK@Sat?$AA@   1003ceec     libucrt:nlsdata.obj
 0002:00005ef0       ??_C@_06OOPIFAJ@Sunday?$AA@ 1003cef0     libucrt:nlsdata.obj
 0002:00005ef8       ??_C@_06JLEDEDGH@Monday?$AA@ 1003cef8     libucrt:nlsdata.obj
 0002:00005f00       ??_C@_07BAAGCFCM@Tuesday?$AA@ 1003cf00     libucrt:nlsdata.obj
 0002:00005f08       ??_C@_09DLIGFAKA@Wednesday?$AA@ 1003cf08     libucrt:nlsdata.obj
 0002:00005f14       ??_C@_08HACCIKIA@Thursday?$AA@ 1003cf14     libucrt:nlsdata.obj
 0002:00005f20       ??_C@_06JECMNKMI@Friday?$AA@ 1003cf20     libucrt:nlsdata.obj
 0002:00005f28       ??_C@_08INBOOONO@Saturday?$AA@ 1003cf28     libucrt:nlsdata.obj
 0002:00005f34       ??_C@_03JIHJHPIE@Jan?$AA@  1003cf34     libucrt:nlsdata.obj
 0002:00005f38       ??_C@_03HJBDCHOM@Feb?$AA@  1003cf38     libucrt:nlsdata.obj
 0002:00005f3c       ??_C@_03ODNJBKGA@Mar?$AA@  1003cf3c     libucrt:nlsdata.obj
 0002:00005f40       ??_C@_03LEOLGMJP@Apr?$AA@  1003cf40     libucrt:nlsdata.obj
 0002:00005f44       ??_C@_03CNMDKL@May?$AA@    1003cf44     libucrt:nlsdata.obj
 0002:00005f48       ??_C@_03IDFGHECI@Jun?$AA@  1003cf48     libucrt:nlsdata.obj
 0002:00005f4c       ??_C@_03LBGABGKK@Jul?$AA@  1003cf4c     libucrt:nlsdata.obj
 0002:00005f50       ??_C@_03IFJFEIGA@Aug?$AA@  1003cf50     libucrt:nlsdata.obj
 0002:00005f54       ??_C@_03GGCAPAJC@Sep?$AA@  1003cf54     libucrt:nlsdata.obj
 0002:00005f58       ??_C@_03BMAOKBAD@Oct?$AA@  1003cf58     libucrt:nlsdata.obj
 0002:00005f5c       ??_C@_03JPJOFNIA@Nov?$AA@  1003cf5c     libucrt:nlsdata.obj
 0002:00005f60       ??_C@_03MKABNOCG@Dec?$AA@  1003cf60     libucrt:nlsdata.obj
 0002:00005f64       ??_C@_07CGJPFGJA@January?$AA@ 1003cf64     libucrt:nlsdata.obj
 0002:00005f6c       ??_C@_08GNJGEPFN@February?$AA@ 1003cf6c     libucrt:nlsdata.obj
 0002:00005f78       ??_C@_05HPCKOFNC@March?$AA@ 1003cf78     libucrt:nlsdata.obj
 0002:00005f80       ??_C@_05DMJDNLEJ@April?$AA@ 1003cf80     libucrt:nlsdata.obj
 0002:00005f88       ??_C@_04CNLMGBGM@June?$AA@ 1003cf88     libucrt:nlsdata.obj
 0002:00005f90       ??_C@_04MIEPOIFP@July?$AA@ 1003cf90     libucrt:nlsdata.obj
 0002:00005f98       ??_C@_06LBBHFDDG@August?$AA@ 1003cf98     libucrt:nlsdata.obj
 0002:00005fa0       ??_C@_09BHHEALKD@September?$AA@ 1003cfa0     libucrt:nlsdata.obj
 0002:00005fac       ??_C@_07JJNFCEND@October?$AA@ 1003cfac     libucrt:nlsdata.obj
 0002:00005fb4       ??_C@_08HCHEGEOA@November?$AA@ 1003cfb4     libucrt:nlsdata.obj
 0002:00005fc0       ??_C@_08EDHMEBNP@December?$AA@ 1003cfc0     libucrt:nlsdata.obj
 0002:00005fcc       ??_C@_02DEDBPAFC@AM?$AA@   1003cfcc     libucrt:nlsdata.obj
 0002:00005fd0       ??_C@_02CJNFDJBF@PM?$AA@   1003cfd0     libucrt:nlsdata.obj
 0002:00005fd4       ??_C@_08BPBNCDIB@MM?1dd?1yy?$AA@ 1003cfd4     libucrt:nlsdata.obj
 0002:00005fe0       ??_C@_0BE@CKGJFCPC@dddd?0?5MMMM?5dd?0?5yyyy?$AA@ 1003cfe0     libucrt:nlsdata.obj
 0002:00005ff4       ??_C@_08JCCMCCIL@HH?3mm?3ss?$AA@ 1003cff4     libucrt:nlsdata.obj
 0002:00006000       ??_C@_17MBGCMIPB@?$AAS?$AAu?$AAn?$AA?$AA@ 1003d000     libucrt:nlsdata.obj
 0002:00006008       ??_C@_17KBOMKBF@?$AAM?$AAo?$AAn?$AA?$AA@ 1003d008     libucrt:nlsdata.obj
 0002:00006010       ??_C@_17BMKGEGOJ@?$AAT?$AAu?$AAe?$AA?$AA@ 1003d010     libucrt:nlsdata.obj
 0002:00006018       ??_C@_17CJEDCEPE@?$AAW?$AAe?$AAd?$AA?$AA@ 1003d018     libucrt:nlsdata.obj
 0002:00006020       ??_C@_17PDPHAADD@?$AAT?$AAh?$AAu?$AA?$AA@ 1003d020     libucrt:nlsdata.obj
 0002:00006028       ??_C@_17HFOLPPLP@?$AAF?$AAr?$AAi?$AA?$AA@ 1003d028     libucrt:nlsdata.obj
 0002:00006030       ??_C@_17GGIBDPIH@?$AAS?$AAa?$AAt?$AA?$AA@ 1003d030     libucrt:nlsdata.obj
 0002:00006038       ??_C@_1O@IHNHDHPB@?$AAS?$AAu?$AAn?$AAd?$AAa?$AAy?$AA?$AA@ 1003d038     libucrt:nlsdata.obj
 0002:00006048       ??_C@_1O@MMNBFLIA@?$AAM?$AAo?$AAn?$AAd?$AAa?$AAy?$AA?$AA@ 1003d048     libucrt:nlsdata.obj
 0002:00006058       ??_C@_1BA@ENFBFFEK@?$AAT?$AAu?$AAe?$AAs?$AAd?$AAa?$AAy?$AA?$AA@ 1003d058     libucrt:nlsdata.obj
 0002:00006068       ??_C@_1BE@EBOGMDOH@?$AAW?$AAe?$AAd?$AAn?$AAe?$AAs?$AAd?$AAa?$AAy?$AA?$AA@ 1003d068     libucrt:nlsdata.obj
 0002:0000607c       ??_C@_1BC@HHMNLIHE@?$AAT?$AAh?$AAu?$AAr?$AAs?$AAd?$AAa?$AAy?$AA?$AA@ 1003d07c     libucrt:nlsdata.obj
 0002:00006090       ??_C@_1O@PDICJHAG@?$AAF?$AAr?$AAi?$AAd?$AAa?$AAy?$AA?$AA@ 1003d090     libucrt:nlsdata.obj
 0002:000060a0       ??_C@_1BC@ENMNNPAJ@?$AAS?$AAa?$AAt?$AAu?$AAr?$AAd?$AAa?$AAy?$AA?$AA@ 1003d0a0     libucrt:nlsdata.obj
 0002:000060b4       ??_C@_17DKNBKCHM@?$AAJ?$AAa?$AAn?$AA?$AA@ 1003d0b4     libucrt:nlsdata.obj
 0002:000060bc       ??_C@_17LMDJEKJN@?$AAF?$AAe?$AAb?$AA?$AA@ 1003d0bc     libucrt:nlsdata.obj
 0002:000060c4       ??_C@_17CKNLEDEC@?$AAM?$AAa?$AAr?$AA?$AA@ 1003d0c4     libucrt:nlsdata.obj
 0002:000060cc       ??_C@_17LFPOIHDD@?$AAA?$AAp?$AAr?$AA?$AA@ 1003d0cc     libucrt:nlsdata.obj
 0002:000060d4       ??_C@_17PNNKMEED@?$AAM?$AAa?$AAy?$AA?$AA@ 1003d0d4     libucrt:nlsdata.obj
 0002:000060dc       ??_C@_17KCJGOCPB@?$AAJ?$AAu?$AAn?$AA?$AA@ 1003d0dc     libucrt:nlsdata.obj
 0002:000060e4       ??_C@_17IJPCKHK@?$AAJ?$AAu?$AAl?$AA?$AA@ 1003d0e4     libucrt:nlsdata.obj
 0002:000060ec       ??_C@_17ICPELBCN@?$AAA?$AAu?$AAg?$AA?$AA@ 1003d0ec     libucrt:nlsdata.obj
 0002:000060f4       ??_C@_17HCHCOKMG@?$AAS?$AAe?$AAp?$AA?$AA@ 1003d0f4     libucrt:nlsdata.obj
 0002:000060fc       ??_C@_17FNLKOI@?$AAO?$AAc?$AAt?$AA?$AA@ 1003d0fc     libucrt:nlsdata.obj
 0002:00006104       ??_C@_17BBDMLCIG@?$AAN?$AAo?$AAv?$AA?$AA@ 1003d104     libucrt:nlsdata.obj
 0002:0000610c       ??_C@_17EGKACKIF@?$AAD?$AAe?$AAc?$AA?$AA@ 1003d10c     libucrt:nlsdata.obj
 0002:00006114       ??_C@_1BA@EFMEIEBA@?$AAJ?$AAa?$AAn?$AAu?$AAa?$AAr?$AAy?$AA?$AA@ 1003d114     libucrt:nlsdata.obj
 0002:00006124       ??_C@_1BC@JGDDFFAM@?$AAF?$AAe?$AAb?$AAr?$AAu?$AAa?$AAr?$AAy?$AA?$AA@ 1003d124     libucrt:nlsdata.obj
 0002:00006138       ??_C@_1M@IKEENEDF@?$AAM?$AAa?$AAr?$AAc?$AAh?$AA?$AA@ 1003d138     libucrt:nlsdata.obj
 0002:00006144       ??_C@_1M@GJNLMHFD@?$AAA?$AAp?$AAr?$AAi?$AAl?$AA?$AA@ 1003d144     libucrt:nlsdata.obj
 0002:00006150       ??_C@_19EPFLPGAP@?$AAJ?$AAu?$AAn?$AAe?$AA?$AA@ 1003d150     libucrt:nlsdata.obj
 0002:0000615c       ??_C@_19BIFMLPCD@?$AAJ?$AAu?$AAl?$AAy?$AA?$AA@ 1003d15c     libucrt:nlsdata.obj
 0002:00006168       ??_C@_1O@PAHLKOAC@?$AAA?$AAu?$AAg?$AAu?$AAs?$AAt?$AA?$AA@ 1003d168     libucrt:nlsdata.obj
 0002:00006178       ??_C@_1BE@DKAAMBJL@?$AAS?$AAe?$AAp?$AAt?$AAe?$AAm?$AAb?$AAe?$AAr?$AA?$AA@ 1003d178     libucrt:nlsdata.obj
 0002:0000618c       ??_C@_1BA@EPANDLNG@?$AAO?$AAc?$AAt?$AAo?$AAb?$AAe?$AAr?$AA?$AA@ 1003d18c     libucrt:nlsdata.obj
 0002:0000619c       ??_C@_1BC@BGLIFPF@?$AAN?$AAo?$AAv?$AAe?$AAm?$AAb?$AAe?$AAr?$AA?$AA@ 1003d19c     libucrt:nlsdata.obj
 0002:000061b0       ??_C@_1BC@FEMKIFH@?$AAD?$AAe?$AAc?$AAe?$AAm?$AAb?$AAe?$AAr?$AA?$AA@ 1003d1b0     libucrt:nlsdata.obj
 0002:000061c4       ??_C@_15ODEHAHHF@?$AAA?$AAM?$AA?$AA@ 1003d1c4     libucrt:nlsdata.obj
 0002:000061cc       ??_C@_15CLMNNGEL@?$AAP?$AAM?$AA?$AA@ 1003d1cc     libucrt:nlsdata.obj
 0002:000061d4       ??_C@_1BC@IEBCMHCM@?$AAM?$AAM?$AA?1?$AAd?$AAd?$AA?1?$AAy?$AAy?$AA?$AA@ 1003d1d4     libucrt:nlsdata.obj
 0002:000061e8       ??_C@_1CI@KNAKOEBC@?$AAd?$AAd?$AAd?$AAd?$AA?0?$AA?5?$AAM?$AAM?$AAM?$AAM?$AA?5?$AAd?$AAd?$AA?0?$AA?5?$AAy?$AAy?$AAy?$AAy?$AA?$AA@ 1003d1e8     libucrt:nlsdata.obj
 0002:00006210       ??_C@_1BC@GDGBMEMK@?$AAH?$AAH?$AA?3?$AAm?$AAm?$AA?3?$AAs?$AAs?$AA?$AA@ 1003d210     libucrt:nlsdata.obj
 0002:00006224       ??_C@_1M@BMHNFIME@?$AAe?$AAn?$AA?9?$AAU?$AAS?$AA?$AA@ 1003d224     libucrt:nlsdata.obj
 0002:00006230       ___lc_time_c               1003d230     libucrt:nlsdata.obj
 0002:00006480       ??_C@_03KHJOGHMM@exp?$AA@  1003d480     libucrt:fpexcept.obj
 0002:00006484       ??_C@_03JGHBODFD@pow?$AA@  1003d484     libucrt:fpexcept.obj
 0002:00006488       ??_C@_03MGHMBJCF@log?$AA@  1003d488     libucrt:fpexcept.obj
 0002:0000648c       ??_C@_05HGHHAHAP@log10?$AA@ 1003d48c     libucrt:fpexcept.obj
 0002:00006494       ??_C@_04COOMCNPB@sinh?$AA@ 1003d494     libucrt:fpexcept.obj
 0002:0000649c       ??_C@_04HPJJNFIM@cosh?$AA@ 1003d49c     libucrt:fpexcept.obj
 0002:000064a4       ??_C@_04FJHINJAO@tanh?$AA@ 1003d4a4     libucrt:fpexcept.obj
 0002:000064ac       ??_C@_04FIHNOPOL@asin?$AA@ 1003d4ac     libucrt:fpexcept.obj
 0002:000064b4       ??_C@_04PDIFKINK@acos?$AA@ 1003d4b4     libucrt:fpexcept.obj
 0002:000064bc       ??_C@_04MLLJIGOK@atan?$AA@ 1003d4bc     libucrt:fpexcept.obj
 0002:000064c4       ??_C@_05KNGEOGJB@atan2?$AA@ 1003d4c4     libucrt:fpexcept.obj
 0002:000064cc       ??_C@_04EIAKFFMI@sqrt?$AA@ 1003d4cc     libucrt:fpexcept.obj
 0002:000064d4       ??_C@_03BLEJJJBH@sin?$AA@  1003d4d4     libucrt:fpexcept.obj
 0002:000064d8       ??_C@_03LALBNOCG@cos?$AA@  1003d4d8     libucrt:fpexcept.obj
 0002:000064dc       ??_C@_03IIINPABG@tan?$AA@  1003d4dc     libucrt:fpexcept.obj
 0002:000064e0       ??_C@_04GFPJNGEK@ceil?$AA@ 1003d4e0     libucrt:fpexcept.obj
 0002:000064e8       ??_C@_05PBJFFIGL@floor?$AA@ 1003d4e8     libucrt:fpexcept.obj
 0002:000064f0       ??_C@_04ODHECPBC@fabs?$AA@ 1003d4f0     libucrt:fpexcept.obj
 0002:000064f8       ??_C@_04EHEDPDJG@modf?$AA@ 1003d4f8     libucrt:fpexcept.obj
 0002:00006500       ??_C@_05CEJMAHNP@ldexp?$AA@ 1003d500     libucrt:fpexcept.obj
 0002:00006508       ??_C@_05KBKMEMPO@_cabs?$AA@ 1003d508     libucrt:fpexcept.obj
 0002:00006510       ??_C@_06MEIMCGCF@_hypot?$AA@ 1003d510     libucrt:fpexcept.obj
 0002:00006518       ??_C@_04KEPJIHGP@fmod?$AA@ 1003d518     libucrt:fpexcept.obj
 0002:00006520       ??_C@_05GKKHEGJL@frexp?$AA@ 1003d520     libucrt:fpexcept.obj
 0002:00006528       ??_C@_03MJLDFKDL@_y0?$AA@  1003d528     libucrt:fpexcept.obj
 0002:0000652c       ??_C@_03NAKIGLHK@_y1?$AA@  1003d52c     libucrt:fpexcept.obj
 0002:00006530       ??_C@_03ONILCKOB@_yn?$AA@  1003d530     libucrt:fpexcept.obj
 0002:00006534       ??_C@_05JGDBENOH@_logb?$AA@ 1003d534     libucrt:fpexcept.obj
 0002:0000653c       ??_C@_0L@KDOEJCKC@_nextafter?$AA@ 1003d53c     libucrt:fpexcept.obj
 0002:00006548       __d_inf                    1003d548     libucrt:util.obj
 0002:00006550       __d_max                    1003d550     libucrt:util.obj
 0002:00006558       __d_mzero                  1003d558     libucrt:util.obj
 0002:00006640       __infinity                 1003d640     libucrt:87tran.obj
 0002:0000664a       __minfinity                1003d64a     libucrt:87tran.obj
 0002:00006654       __logemax                  1003d654     libucrt:87tran.obj
 0002:0000667a       __OP_EXPjmptab             1003d67a     libucrt:87tran.obj
 0002:000066a0       __indefinite               1003d6a0     libucrt:87disp.obj
 0002:000066aa       __piby2                    1003d6aa     libucrt:87disp.obj
 0002:000066b4       __piby4                    1003d6b4     libucrt:87disp.obj
 0002:000066e8       __DEFAULT_CW_in_mem        1003d6e8     libucrt:common.obj
 0002:000066ea       __pi_by_2_to_61            1003d6ea     libucrt:common.obj
 0002:00006728       __real@3fe0000000000000    1003d728     libucrt:powhlp.obj
 0002:00006740       ??_C@_1M@HPNHIDJI@?$AAj?$AAa?$AA?9?$AAJ?$AAP?$AA?$AA@ 1003d740     libucrt:mbctype.obj
 0002:0000674c       ??_C@_1M@BIBDDEMK@?$AAz?$AAh?$AA?9?$AAC?$AAN?$AA?$AA@ 1003d74c     libucrt:mbctype.obj
 0002:00006758       ??_C@_1M@JLOOOEGK@?$AAk?$AAo?$AA?9?$AAK?$AAR?$AA?$AA@ 1003d758     libucrt:mbctype.obj
 0002:00006764       ??_C@_1M@CLNBBOPM@?$AAz?$AAh?$AA?9?$AAT?$AAW?$AA?$AA@ 1003d764     libucrt:mbctype.obj
 0002:00006e90       ??_C@_15EMKDOKLE@?$AAa?$AAr?$AA?$AA@ 1003de90     libucrt:lcidtoname_downlevel.obj
 0002:00006e98       ??_C@_15KNPADPLH@?$AAb?$AAg?$AA?$AA@ 1003de98     libucrt:lcidtoname_downlevel.obj
 0002:00006ea0       ??_C@_15EDMHLDMO@?$AAc?$AAa?$AA?$AA@ 1003dea0     libucrt:lcidtoname_downlevel.obj
 0002:00006ea8       ??_C@_1O@BPEAJADD@?$AAz?$AAh?$AA?9?$AAC?$AAH?$AAS?$AA?$AA@ 1003dea8     libucrt:lcidtoname_downlevel.obj
 0002:00006eb8       ??_C@_15LJNHCMNK@?$AAc?$AAs?$AA?$AA@ 1003deb8     libucrt:lcidtoname_downlevel.obj
 0002:00006ec0       ??_C@_15FOMCIDHG@?$AAd?$AAa?$AA?$AA@ 1003dec0     libucrt:lcidtoname_downlevel.obj
 0002:00006ec8       ??_C@_15NBKABECB@?$AAd?$AAe?$AA?$AA@ 1003dec8     libucrt:lcidtoname_downlevel.obj
 0002:00006ed0       ??_C@_15GHPEIIAO@?$AAe?$AAl?$AA?$AA@ 1003ded0     libucrt:lcidtoname_downlevel.obj
 0002:00006ed8       ??_C@_15MNPNEAIF@?$AAe?$AAn?$AA?$AA@ 1003ded8     libucrt:lcidtoname_downlevel.obj
 0002:00006ee0       ??_C@_15GPIOMPMH@?$AAe?$AAs?$AA?$AA@ 1003dee0     libucrt:lcidtoname_downlevel.obj
 0002:00006ee8       ??_C@_15NGLOAKJC@?$AAf?$AAi?$AA?$AA@ 1003dee8     libucrt:lcidtoname_downlevel.obj
 0002:00006ef0       ??_C@_15FBKGNKAM@?$AAf?$AAr?$AA?$AA@ 1003def0     libucrt:lcidtoname_downlevel.obj
 0002:00006ef8       ??_C@_15KGGCNEFK@?$AAh?$AAe?$AA?$AA@ 1003def8     libucrt:lcidtoname_downlevel.obj
 0002:00006f00       ??_C@_15PGHLIDMF@?$AAh?$AAu?$AA?$AA@ 1003df00     libucrt:lcidtoname_downlevel.obj
 0002:00006f08       ??_C@_15BIEMAPLM@?$AAi?$AAs?$AA?$AA@ 1003df08     libucrt:lcidtoname_downlevel.obj
 0002:00006f10       ??_C@_15IFJLDHAF@?$AAi?$AAt?$AA?$AA@ 1003df10     libucrt:lcidtoname_downlevel.obj
 0002:00006f18       ??_C@_15GEMIOCAG@?$AAj?$AAa?$AA?$AA@ 1003df18     libucrt:lcidtoname_downlevel.obj
 0002:00006f20       ??_C@_15EPELEGJA@?$AAk?$AAo?$AA?$AA@ 1003df20     libucrt:lcidtoname_downlevel.obj
 0002:00006f28       ??_C@_15NDDHIMN@?$AAn?$AAl?$AA?$AA@ 1003df28     libucrt:lcidtoname_downlevel.obj
 0002:00006f30       ??_C@_15BPIGNHCD@?$AAn?$AAo?$AA?$AA@ 1003df30     libucrt:lcidtoname_downlevel.obj
 0002:00006f38       ??_C@_15DEOPBLCG@?$AAp?$AAl?$AA?$AA@ 1003df38     libucrt:lcidtoname_downlevel.obj
 0002:00006f40       ??_C@_15KBECGEFG@?$AAp?$AAt?$AA?$AA@ 1003df40     libucrt:lcidtoname_downlevel.obj
 0002:00006f48       ??_C@_15GLJCBFMD@?$AAr?$AAo?$AA?$AA@ 1003df48     libucrt:lcidtoname_downlevel.obj
 0002:00006f50       ??_C@_15FEDGKCDI@?$AAr?$AAu?$AA?$AA@ 1003df50     libucrt:lcidtoname_downlevel.obj
 0002:00006f58       ??_C@_15GLKMLLHM@?$AAh?$AAr?$AA?$AA@ 1003df58     libucrt:lcidtoname_downlevel.obj
 0002:00006f60       ??_C@_15CPKMFBDB@?$AAs?$AAk?$AA?$AA@ 1003df60     libucrt:lcidtoname_downlevel.obj
 0002:00006f68       ??_C@_15BAAIOGMK@?$AAs?$AAq?$AA?$AA@ 1003df68     libucrt:lcidtoname_downlevel.obj
 0002:00006f70       ??_C@_15INNPNOHD@?$AAs?$AAv?$AA?$AA@ 1003df70     libucrt:lcidtoname_downlevel.obj
 0002:00006f78       ??_C@_15CABMMOGH@?$AAt?$AAh?$AA?$AA@ 1003df78     libucrt:lcidtoname_downlevel.obj
 0002:00006f80       ??_C@_15BPLIHJJM@?$AAt?$AAr?$AA?$AA@ 1003df80     libucrt:lcidtoname_downlevel.obj
 0002:00006f88       ??_C@_15NEOEKKDJ@?$AAu?$AAr?$AA?$AA@ 1003df88     libucrt:lcidtoname_downlevel.obj
 0002:00006f90       ??_C@_15NFICGAJK@?$AAi?$AAd?$AA?$AA@ 1003df90     libucrt:lcidtoname_downlevel.obj
 0002:00006f98       ??_C@_15PJPFLCCM@?$AAu?$AAk?$AA?$AA@ 1003df98     libucrt:lcidtoname_downlevel.obj
 0002:00006fa0       ??_C@_15HPJPHDM@?$AAb?$AAe?$AA?$AA@ 1003dfa0     libucrt:lcidtoname_downlevel.obj
 0002:00006fa8       ??_C@_15LCHLGJII@?$AAs?$AAl?$AA?$AA@ 1003dfa8     libucrt:lcidtoname_downlevel.obj
 0002:00006fb0       ??_C@_15PCFJPHHO@?$AAe?$AAt?$AA?$AA@ 1003dfb0     libucrt:lcidtoname_downlevel.obj
 0002:00006fb8       ??_C@_15HPFPGODN@?$AAl?$AAv?$AA?$AA@ 1003dfb8     libucrt:lcidtoname_downlevel.obj
 0002:00006fc0       ??_C@_15NFFGKGLG@?$AAl?$AAt?$AA?$AA@ 1003dfc0     libucrt:lcidtoname_downlevel.obj
 0002:00006fc8       ??_C@_15BDAKCCHN@?$AAf?$AAa?$AA?$AA@ 1003dfc8     libucrt:lcidtoname_downlevel.obj
 0002:00006fd0       ??_C@_15NFGIAIAJ@?$AAv?$AAi?$AA?$AA@ 1003dfd0     libucrt:lcidtoname_downlevel.obj
 0002:00006fd8       ??_C@_15LMKNDMHN@?$AAh?$AAy?$AA?$AA@ 1003dfd8     libucrt:lcidtoname_downlevel.obj
 0002:00006fe0       ??_C@_15IJBHMCFL@?$AAa?$AAz?$AA?$AA@ 1003dfe0     libucrt:lcidtoname_downlevel.obj
 0002:00006fe8       ??_C@_15EKOFJABL@?$AAe?$AAu?$AA?$AA@ 1003dfe8     libucrt:lcidtoname_downlevel.obj
 0002:00006ff0       ??_C@_15BGHADCNK@?$AAm?$AAk?$AA?$AA@ 1003dff0     libucrt:lcidtoname_downlevel.obj
 0002:00006ff8       ??_C@_15JDNICKHM@?$AAa?$AAf?$AA?$AA@ 1003dff8     libucrt:lcidtoname_downlevel.obj
 0002:00007000       ??_C@_15KPJEDBKD@?$AAk?$AAa?$AA?$AA@ 1003e000     libucrt:lcidtoname_downlevel.obj
 0002:00007008       ??_C@_15PDNFFFEO@?$AAf?$AAo?$AA?$AA@ 1003e008     libucrt:lcidtoname_downlevel.obj
 0002:00007010       ??_C@_15OMLEGLOC@?$AAh?$AAi?$AA?$AA@ 1003e010     libucrt:lcidtoname_downlevel.obj
 0002:00007018       ??_C@_15IDNNENKK@?$AAm?$AAs?$AA?$AA@ 1003e018     libucrt:lcidtoname_downlevel.obj
 0002:00007020       ??_C@_15MACJNBMH@?$AAk?$AAk?$AA?$AA@ 1003e020     libucrt:lcidtoname_downlevel.obj
 0002:00007028       ??_C@_15DKDJEOND@?$AAk?$AAy?$AA?$AA@ 1003e028     libucrt:lcidtoname_downlevel.obj
 0002:00007030       ??_C@_15DFGDLJBG@?$AAs?$AAw?$AA?$AA@ 1003e030     libucrt:lcidtoname_downlevel.obj
 0002:00007038       ??_C@_15BBFAICNG@?$AAu?$AAz?$AA?$AA@ 1003e038     libucrt:lcidtoname_downlevel.obj
 0002:00007040       ??_C@_15DKNDCGEA@?$AAt?$AAt?$AA?$AA@ 1003e040     libucrt:lcidtoname_downlevel.obj
 0002:00007048       ??_C@_15MGIFMDPL@?$AAp?$AAa?$AA?$AA@ 1003e048     libucrt:lcidtoname_downlevel.obj
 0002:00007050       ??_C@_15HCNDBBA@?$AAg?$AAu?$AA?$AA@ 1003e050     libucrt:lcidtoname_downlevel.obj
 0002:00007058       ??_C@_15FNBEIBON@?$AAt?$AAa?$AA?$AA@ 1003e058     libucrt:lcidtoname_downlevel.obj
 0002:00007060       ??_C@_15NCHGBGLK@?$AAt?$AAe?$AA?$AA@ 1003e060     libucrt:lcidtoname_downlevel.obj
 0002:00007068       ??_C@_15PHPHCBPF@?$AAk?$AAn?$AA?$AA@ 1003e068     libucrt:lcidtoname_downlevel.obj
 0002:00007070       ??_C@_15DLGBCKMP@?$AAm?$AAr?$AA?$AA@ 1003e070     libucrt:lcidtoname_downlevel.obj
 0002:00007078       ??_C@_15EABBLBFF@?$AAs?$AAa?$AA?$AA@ 1003e078     libucrt:lcidtoname_downlevel.obj
 0002:00007080       ??_C@_15CBKOMCOI@?$AAm?$AAn?$AA?$AA@ 1003e080     libucrt:lcidtoname_downlevel.obj
 0002:00007088       ??_C@_15CKDMCJAF@?$AAg?$AAl?$AA?$AA@ 1003e088     libucrt:lcidtoname_downlevel.obj
 0002:00007090       ??_C@_17CNJFBPG@?$AAk?$AAo?$AAk?$AA?$AA@ 1003e090     libucrt:lcidtoname_downlevel.obj
 0002:00007098       ??_C@_17FFBJICPL@?$AAs?$AAy?$AAr?$AA?$AA@ 1003e098     libucrt:lcidtoname_downlevel.obj
 0002:000070a0       ??_C@_17KPNDCPAF@?$AAd?$AAi?$AAv?$AA?$AA@ 1003e0a0     libucrt:lcidtoname_downlevel.obj
 0002:000070a8       ??_C@_11LOCGONAA@?$AA?$AA@ 1003e0a8     libucrt:lcidtoname_downlevel.obj
 0002:000070ac       ??_C@_1M@OKAHONE@?$AAa?$AAr?$AA?9?$AAS?$AAA?$AA?$AA@ 1003e0ac     libucrt:lcidtoname_downlevel.obj
 0002:000070b8       ??_C@_1M@FFFIGIGK@?$AAb?$AAg?$AA?9?$AAB?$AAG?$AA?$AA@ 1003e0b8     libucrt:lcidtoname_downlevel.obj
 0002:000070c4       ??_C@_1M@BJNKEDC@?$AAc?$AAa?$AA?9?$AAE?$AAS?$AA?$AA@ 1003e0c4     libucrt:lcidtoname_downlevel.obj
 0002:000070d0       ??_C@_1M@IJJHFJHA@?$AAc?$AAs?$AA?9?$AAC?$AAZ?$AA?$AA@ 1003e0d0     libucrt:lcidtoname_downlevel.obj
 0002:000070dc       ??_C@_1M@CLPEOBGI@?$AAd?$AAa?$AA?9?$AAD?$AAK?$AA?$AA@ 1003e0dc     libucrt:lcidtoname_downlevel.obj
 0002:000070e8       ??_C@_1M@MCMADGCB@?$AAd?$AAe?$AA?9?$AAD?$AAE?$AA?$AA@ 1003e0e8     libucrt:lcidtoname_downlevel.obj
 0002:000070f4       ??_C@_1M@OOCKEMAM@?$AAe?$AAl?$AA?9?$AAG?$AAR?$AA?$AA@ 1003e0f4     libucrt:lcidtoname_downlevel.obj
 0002:00007100       ??_C@_1M@DDNJFGID@?$AAf?$AAi?$AA?9?$AAF?$AAI?$AA?$AA@ 1003e100     libucrt:lcidtoname_downlevel.obj
 0002:0000710c       ??_C@_1M@GLIPPMAC@?$AAf?$AAr?$AA?9?$AAF?$AAR?$AA?$AA@ 1003e10c     libucrt:lcidtoname_downlevel.obj
 0002:00007118       ??_C@_1M@GFMCHPE@?$AAh?$AAe?$AA?9?$AAI?$AAL?$AA?$AA@ 1003e118     libucrt:lcidtoname_downlevel.obj
 0002:00007124       ??_C@_1M@MHLPGNKM@?$AAh?$AAu?$AA?9?$AAH?$AAU?$AA?$AA@ 1003e124     libucrt:lcidtoname_downlevel.obj
 0002:00007130       ??_C@_1M@LPDDNNPN@?$AAi?$AAs?$AA?9?$AAI?$AAS?$AA?$AA@ 1003e130     libucrt:lcidtoname_downlevel.obj
 0002:0000713c       ??_C@_1M@MADIPODN@?$AAi?$AAt?$AA?9?$AAI?$AAT?$AA?$AA@ 1003e13c     libucrt:lcidtoname_downlevel.obj
 0002:00007148       ??_C@_1M@IHBJJGG@?$AAn?$AAl?$AA?9?$AAN?$AAL?$AA?$AA@ 1003e148     libucrt:lcidtoname_downlevel.obj
 0002:00007154       ??_C@_1M@EANAGDL@?$AAn?$AAb?$AA?9?$AAN?$AAO?$AA?$AA@ 1003e154     libucrt:lcidtoname_downlevel.obj
 0002:00007160       ??_C@_1M@NEIEMEGP@?$AAp?$AAl?$AA?9?$AAP?$AAL?$AA?$AA@ 1003e160     libucrt:lcidtoname_downlevel.obj
 0002:0000716c       ??_C@_1M@BOCFIGEP@?$AAp?$AAt?$AA?9?$AAB?$AAR?$AA?$AA@ 1003e16c     libucrt:lcidtoname_downlevel.obj
 0002:00007178       ??_C@_1M@IMPFOPBG@?$AAr?$AAo?$AA?9?$AAR?$AAO?$AA?$AA@ 1003e178     libucrt:lcidtoname_downlevel.obj
 0002:00007184       ??_C@_1M@IDNNEJMM@?$AAr?$AAu?$AA?9?$AAR?$AAU?$AA?$AA@ 1003e184     libucrt:lcidtoname_downlevel.obj
 0002:00007190       ??_C@_1M@LILEEOGM@?$AAh?$AAr?$AA?9?$AAH?$AAR?$AA?$AA@ 1003e190     libucrt:lcidtoname_downlevel.obj
 0002:0000719c       ??_C@_1M@FKIFEHPB@?$AAs?$AAk?$AA?9?$AAS?$AAK?$AA?$AA@ 1003e19c     libucrt:lcidtoname_downlevel.obj
 0002:000071a8       ??_C@_1M@LJMAMNPJ@?$AAs?$AAq?$AA?9?$AAA?$AAL?$AA?$AA@ 1003e1a8     libucrt:lcidtoname_downlevel.obj
 0002:000071b4       ??_C@_1M@GIAKDKJK@?$AAs?$AAv?$AA?9?$AAS?$AAE?$AA?$AA@ 1003e1b4     libucrt:lcidtoname_downlevel.obj
 0002:000071c0       ??_C@_1M@MKJKIKCL@?$AAt?$AAh?$AA?9?$AAT?$AAH?$AA?$AA@ 1003e1c0     libucrt:lcidtoname_downlevel.obj
 0002:000071cc       ??_C@_1M@MFLCCMPB@?$AAt?$AAr?$AA?9?$AAT?$AAR?$AA?$AA@ 1003e1cc     libucrt:lcidtoname_downlevel.obj
 0002:000071d8       ??_C@_1M@OIJHDKJN@?$AAu?$AAr?$AA?9?$AAP?$AAK?$AA?$AA@ 1003e1d8     libucrt:lcidtoname_downlevel.obj
 0002:000071e4       ??_C@_1M@LHIPCIEK@?$AAi?$AAd?$AA?9?$AAI?$AAD?$AA?$AA@ 1003e1e4     libucrt:lcidtoname_downlevel.obj
 0002:000071f0       ??_C@_1M@MFMOBGI@?$AAu?$AAk?$AA?9?$AAU?$AAA?$AA?$AA@ 1003e1f0     libucrt:lcidtoname_downlevel.obj
 0002:000071fc       ??_C@_1M@OBGLJIPL@?$AAb?$AAe?$AA?9?$AAB?$AAY?$AA?$AA@ 1003e1fc     libucrt:lcidtoname_downlevel.obj
 0002:00007208       ??_C@_1M@BCFAJEAD@?$AAs?$AAl?$AA?9?$AAS?$AAI?$AA?$AA@ 1003e208     libucrt:lcidtoname_downlevel.obj
 0002:00007214       ??_C@_1M@FKFFEDDN@?$AAe?$AAt?$AA?9?$AAE?$AAE?$AA?$AA@ 1003e214     libucrt:lcidtoname_downlevel.obj
 0002:00007220       ??_C@_1M@KGKKAACI@?$AAl?$AAv?$AA?9?$AAL?$AAV?$AA?$AA@ 1003e220     libucrt:lcidtoname_downlevel.obj
 0002:0000722c       ??_C@_1M@IFGBIJO@?$AAl?$AAt?$AA?9?$AAL?$AAT?$AA?$AA@ 1003e22c     libucrt:lcidtoname_downlevel.obj
 0002:00007238       ??_C@_1M@FGEAHEDM@?$AAf?$AAa?$AA?9?$AAI?$AAR?$AA?$AA@ 1003e238     libucrt:lcidtoname_downlevel.obj
 0002:00007244       ??_C@_1M@KBMAIBFN@?$AAv?$AAi?$AA?9?$AAV?$AAN?$AA?$AA@ 1003e244     libucrt:lcidtoname_downlevel.obj
 0002:00007250       ??_C@_1M@GPCBKDJK@?$AAh?$AAy?$AA?9?$AAA?$AAM?$AA?$AA@ 1003e250     libucrt:lcidtoname_downlevel.obj
 0002:0000725c       ??_C@_1BG@BECMDDJB@?$AAa?$AAz?$AA?9?$AAA?$AAZ?$AA?9?$AAL?$AAa?$AAt?$AAn?$AA?$AA@ 1003e25c     libucrt:lcidtoname_downlevel.obj
 0002:00007274       ??_C@_1M@MAOFCAEA@?$AAe?$AAu?$AA?9?$AAE?$AAS?$AA?$AA@ 1003e274     libucrt:lcidtoname_downlevel.obj
 0002:00007280       ??_C@_1M@IGHABKPI@?$AAm?$AAk?$AA?9?$AAM?$AAK?$AA?$AA@ 1003e280     libucrt:lcidtoname_downlevel.obj
 0002:0000728c       ??_C@_1M@IAIGNEJG@?$AAt?$AAn?$AA?9?$AAZ?$AAA?$AA?$AA@ 1003e28c     libucrt:lcidtoname_downlevel.obj
 0002:00007298       ??_C@_1M@IIJCOJFA@?$AAx?$AAh?$AA?9?$AAZ?$AAA?$AA?$AA@ 1003e298     libucrt:lcidtoname_downlevel.obj
 0002:000072a4       ??_C@_1M@LGPJHNJH@?$AAz?$AAu?$AA?9?$AAZ?$AAA?$AA?$AA@ 1003e2a4     libucrt:lcidtoname_downlevel.obj
 0002:000072b0       ??_C@_1M@HOKAOIO@?$AAa?$AAf?$AA?9?$AAZ?$AAA?$AA?$AA@ 1003e2b0     libucrt:lcidtoname_downlevel.obj
 0002:000072bc       ??_C@_1M@DPCLHLIE@?$AAk?$AAa?$AA?9?$AAG?$AAE?$AA?$AA@ 1003e2bc     libucrt:lcidtoname_downlevel.obj
 0002:000072c8       ??_C@_1M@BLKMHJBI@?$AAf?$AAo?$AA?9?$AAF?$AAO?$AA?$AA@ 1003e2c8     libucrt:lcidtoname_downlevel.obj
 0002:000072d4       ??_C@_1M@LGGJAPPB@?$AAh?$AAi?$AA?9?$AAI?$AAN?$AA?$AA@ 1003e2d4     libucrt:lcidtoname_downlevel.obj
 0002:000072e0       ??_C@_1M@FIKPIHFE@?$AAm?$AAt?$AA?9?$AAM?$AAT?$AA?$AA@ 1003e2e0     libucrt:lcidtoname_downlevel.obj
 0002:000072ec       ??_C@_1M@HEGGPBFA@?$AAs?$AAe?$AA?9?$AAN?$AAO?$AA?$AA@ 1003e2ec     libucrt:lcidtoname_downlevel.obj
 0002:000072f8       ??_C@_1M@EIBJEEPA@?$AAm?$AAs?$AA?9?$AAM?$AAY?$AA?$AA@ 1003e2f8     libucrt:lcidtoname_downlevel.obj
 0002:00007304       ??_C@_1M@FHLBGMPP@?$AAk?$AAk?$AA?9?$AAK?$AAZ?$AA?$AA@ 1003e304     libucrt:lcidtoname_downlevel.obj
 0002:00007310       ??_C@_1M@NGJJLCGI@?$AAk?$AAy?$AA?9?$AAK?$AAG?$AA?$AA@ 1003e310     libucrt:lcidtoname_downlevel.obj
 0002:0000731c       ??_C@_1M@GIENNBFC@?$AAs?$AAw?$AA?9?$AAK?$AAE?$AA?$AA@ 1003e31c     libucrt:lcidtoname_downlevel.obj
 0002:00007328       ??_C@_1BG@NDGMJIMJ@?$AAu?$AAz?$AA?9?$AAU?$AAZ?$AA?9?$AAL?$AAa?$AAt?$AAn?$AA?$AA@ 1003e328     libucrt:lcidtoname_downlevel.obj
 0002:00007340       ??_C@_1M@IDCCIHBC@?$AAt?$AAt?$AA?9?$AAR?$AAU?$AA?$AA@ 1003e340     libucrt:lcidtoname_downlevel.obj
 0002:0000734c       ??_C@_1M@LOICPMOJ@?$AAb?$AAn?$AA?9?$AAI?$AAN?$AA?$AA@ 1003e34c     libucrt:lcidtoname_downlevel.obj
 0002:00007358       ??_C@_1M@KPKKNEAH@?$AAp?$AAa?$AA?9?$AAI?$AAN?$AA?$AA@ 1003e358     libucrt:lcidtoname_downlevel.obj
 0002:00007364       ??_C@_1M@PJGPPBOG@?$AAg?$AAu?$AA?9?$AAI?$AAN?$AA?$AA@ 1003e364     libucrt:lcidtoname_downlevel.obj
 0002:00007370       ??_C@_1M@KMKMOPHI@?$AAt?$AAa?$AA?9?$AAI?$AAN?$AA?$AA@ 1003e370     libucrt:lcidtoname_downlevel.obj
 0002:0000737c       ??_C@_1M@KFEHEPAC@?$AAt?$AAe?$AA?9?$AAI?$AAN?$AA?$AA@ 1003e37c     libucrt:lcidtoname_downlevel.obj
 0002:00007388       ??_C@_1M@CDCLMGHI@?$AAk?$AAn?$AA?9?$AAI?$AAN?$AA?$AA@ 1003e388     libucrt:lcidtoname_downlevel.obj
 0002:00007394       ??_C@_1M@MIODLDKF@?$AAm?$AAl?$AA?9?$AAI?$AAN?$AA?$AA@ 1003e394     libucrt:lcidtoname_downlevel.obj
 0002:000073a0       ??_C@_1M@PBIEACPO@?$AAm?$AAr?$AA?9?$AAI?$AAN?$AA?$AA@ 1003e3a0     libucrt:lcidtoname_downlevel.obj
 0002:000073ac       ??_C@_1M@NIDEAGPH@?$AAs?$AAa?$AA?9?$AAI?$AAN?$AA?$AA@ 1003e3ac     libucrt:lcidtoname_downlevel.obj
 0002:000073b8       ??_C@_1M@FHIHCBIO@?$AAm?$AAn?$AA?9?$AAM?$AAN?$AA?$AA@ 1003e3b8     libucrt:lcidtoname_downlevel.obj
 0002:000073c4       ??_C@_1M@JAIJPENP@?$AAc?$AAy?$AA?9?$AAG?$AAB?$AA?$AA@ 1003e3c4     libucrt:lcidtoname_downlevel.obj
 0002:000073d0       ??_C@_1M@PHGFBEPN@?$AAg?$AAl?$AA?9?$AAE?$AAS?$AA?$AA@ 1003e3d0     libucrt:lcidtoname_downlevel.obj
 0002:000073dc       ??_C@_1O@KPIPDNCP@?$AAk?$AAo?$AAk?$AA?9?$AAI?$AAN?$AA?$AA@ 1003e3dc     libucrt:lcidtoname_downlevel.obj
 0002:000073ec       ??_C@_1O@KNHJLDJA@?$AAs?$AAy?$AAr?$AA?9?$AAS?$AAY?$AA?$AA@ 1003e3ec     libucrt:lcidtoname_downlevel.obj
 0002:000073fc       ??_C@_1O@MKEKBLAH@?$AAd?$AAi?$AAv?$AA?9?$AAM?$AAV?$AA?$AA@ 1003e3fc     libucrt:lcidtoname_downlevel.obj
 0002:0000740c       ??_C@_1O@OHDCKDDF@?$AAq?$AAu?$AAz?$AA?9?$AAB?$AAO?$AA?$AA@ 1003e40c     libucrt:lcidtoname_downlevel.obj
 0002:0000741c       ??_C@_1M@LEPJNLFD@?$AAn?$AAs?$AA?9?$AAZ?$AAA?$AA?$AA@ 1003e41c     libucrt:lcidtoname_downlevel.obj
 0002:00007428       ??_C@_1M@OMLEIIJB@?$AAm?$AAi?$AA?9?$AAN?$AAZ?$AA?$AA@ 1003e428     libucrt:lcidtoname_downlevel.obj
 0002:00007434       ??_C@_1M@PMPEAILG@?$AAa?$AAr?$AA?9?$AAI?$AAQ?$AA?$AA@ 1003e434     libucrt:lcidtoname_downlevel.obj
 0002:00007440       ??_C@_1M@CNKPNOEE@?$AAd?$AAe?$AA?9?$AAC?$AAH?$AA?$AA@ 1003e440     libucrt:lcidtoname_downlevel.obj
 0002:0000744c       ??_C@_1M@LKMGMLKO@?$AAe?$AAn?$AA?9?$AAG?$AAB?$AA?$AA@ 1003e44c     libucrt:lcidtoname_downlevel.obj
 0002:00007458       ??_C@_1M@PGKJFFGL@?$AAe?$AAs?$AA?9?$AAM?$AAX?$AA?$AA@ 1003e458     libucrt:lcidtoname_downlevel.obj
 0002:00007464       ??_C@_1M@DNNANBDC@?$AAf?$AAr?$AA?9?$AAB?$AAE?$AA?$AA@ 1003e464     libucrt:lcidtoname_downlevel.obj
 0002:00007470       ??_C@_1M@HLGMDFHM@?$AAi?$AAt?$AA?9?$AAC?$AAH?$AA?$AA@ 1003e470     libucrt:lcidtoname_downlevel.obj
 0002:0000747c       ??_C@_1M@CLLBGJH@?$AAn?$AAl?$AA?9?$AAB?$AAE?$AA?$AA@ 1003e47c     libucrt:lcidtoname_downlevel.obj
 0002:00007488       ??_C@_1M@BODBOGLF@?$AAn?$AAn?$AA?9?$AAN?$AAO?$AA?$AA@ 1003e488     libucrt:lcidtoname_downlevel.obj
 0002:00007494       ??_C@_1M@HFFAHKAD@?$AAp?$AAt?$AA?9?$AAP?$AAT?$AA?$AA@ 1003e494     libucrt:lcidtoname_downlevel.obj
 0002:000074a0       ??_C@_1BG@LNOAKHIE@?$AAs?$AAr?$AA?9?$AAS?$AAP?$AA?9?$AAL?$AAa?$AAt?$AAn?$AA?$AA@ 1003e4a0     libucrt:lcidtoname_downlevel.obj
 0002:000074b8       ??_C@_1M@HBMHBGAK@?$AAs?$AAv?$AA?9?$AAF?$AAI?$AA?$AA@ 1003e4b8     libucrt:lcidtoname_downlevel.obj
 0002:000074c4       ??_C@_1BG@DGCJGJBE@?$AAa?$AAz?$AA?9?$AAA?$AAZ?$AA?9?$AAC?$AAy?$AAr?$AAl?$AA?$AA@ 1003e4c4     libucrt:lcidtoname_downlevel.obj
 0002:000074dc       ??_C@_1M@KEJDAAHB@?$AAs?$AAe?$AA?9?$AAS?$AAE?$AA?$AA@ 1003e4dc     libucrt:lcidtoname_downlevel.obj
 0002:000074e8       ??_C@_1M@HEIBJJAD@?$AAm?$AAs?$AA?9?$AAB?$AAN?$AA?$AA@ 1003e4e8     libucrt:lcidtoname_downlevel.obj
 0002:000074f4       ??_C@_1BG@PBGJMCEM@?$AAu?$AAz?$AA?9?$AAU?$AAZ?$AA?9?$AAC?$AAy?$AAr?$AAl?$AA?$AA@ 1003e4f4     libucrt:lcidtoname_downlevel.obj
 0002:0000750c       ??_C@_1O@LAOBCMDF@?$AAq?$AAu?$AAz?$AA?9?$AAE?$AAC?$AA?$AA@ 1003e50c     libucrt:lcidtoname_downlevel.obj
 0002:0000751c       ??_C@_1M@POEEMAIO@?$AAa?$AAr?$AA?9?$AAE?$AAG?$AA?$AA@ 1003e51c     libucrt:lcidtoname_downlevel.obj
 0002:00007528       ??_C@_1M@EFAKDEDL@?$AAz?$AAh?$AA?9?$AAH?$AAK?$AA?$AA@ 1003e528     libucrt:lcidtoname_downlevel.obj
 0002:00007534       ??_C@_1M@HKKIJHGI@?$AAd?$AAe?$AA?9?$AAA?$AAT?$AA?$AA@ 1003e534     libucrt:lcidtoname_downlevel.obj
 0002:00007540       ??_C@_1M@KBFBEHJF@?$AAe?$AAn?$AA?9?$AAA?$AAU?$AA?$AA@ 1003e540     libucrt:lcidtoname_downlevel.obj
 0002:0000754c       ??_C@_1M@MNPLFAAH@?$AAe?$AAs?$AA?9?$AAE?$AAS?$AA?$AA@ 1003e54c     libucrt:lcidtoname_downlevel.obj
 0002:00007558       ??_C@_1M@HJOOJFMA@?$AAf?$AAr?$AA?9?$AAC?$AAA?$AA?$AA@ 1003e558     libucrt:lcidtoname_downlevel.obj
 0002:00007564       ??_C@_1BG@JPOFPNAB@?$AAs?$AAr?$AA?9?$AAS?$AAP?$AA?9?$AAC?$AAy?$AAr?$AAl?$AA?$AA@ 1003e564     libucrt:lcidtoname_downlevel.obj
 0002:0000757c       ??_C@_1M@LNFOCMOB@?$AAs?$AAe?$AA?9?$AAF?$AAI?$AA?$AA@ 1003e57c     libucrt:lcidtoname_downlevel.obj
 0002:00007588       ??_C@_1O@MGJBOAMB@?$AAq?$AAu?$AAz?$AA?9?$AAP?$AAE?$AA?$AA@ 1003e588     libucrt:lcidtoname_downlevel.obj
 0002:00007598       ??_C@_1M@GJINLBOK@?$AAa?$AAr?$AA?9?$AAL?$AAY?$AA?$AA@ 1003e598     libucrt:lcidtoname_downlevel.obj
 0002:000075a4       ??_C@_1M@GGMNHJNL@?$AAz?$AAh?$AA?9?$AAS?$AAG?$AA?$AA@ 1003e5a4     libucrt:lcidtoname_downlevel.obj
 0002:000075b0       ??_C@_1M@HOIKODND@?$AAd?$AAe?$AA?9?$AAL?$AAU?$AA?$AA@ 1003e5b0     libucrt:lcidtoname_downlevel.obj
 0002:000075bc       ??_C@_1M@DDOCCGFG@?$AAe?$AAn?$AA?9?$AAC?$AAA?$AA?$AA@ 1003e5bc     libucrt:lcidtoname_downlevel.obj
 0002:000075c8       ??_C@_1M@BNOEMJLF@?$AAe?$AAs?$AA?9?$AAG?$AAT?$AA?$AA@ 1003e5c8     libucrt:lcidtoname_downlevel.obj
 0002:000075d4       ??_C@_1M@EOGNKEK@?$AAf?$AAr?$AA?9?$AAC?$AAH?$AA?$AA@ 1003e5d4     libucrt:lcidtoname_downlevel.obj
 0002:000075e0       ??_C@_1M@FLIDJFHL@?$AAh?$AAr?$AA?9?$AAB?$AAA?$AA?$AA@ 1003e5e0     libucrt:lcidtoname_downlevel.obj
 0002:000075ec       ??_C@_1O@FMCELNAJ@?$AAs?$AAm?$AAj?$AA?9?$AAN?$AAO?$AA?$AA@ 1003e5ec     libucrt:lcidtoname_downlevel.obj
 0002:000075fc       ??_C@_1M@JHGLJMGJ@?$AAa?$AAr?$AA?9?$AAD?$AAZ?$AA?$AA@ 1003e5fc     libucrt:lcidtoname_downlevel.obj
 0002:00007608       ??_C@_1M@JKKFDCNP@?$AAz?$AAh?$AA?9?$AAM?$AAO?$AA?$AA@ 1003e608     libucrt:lcidtoname_downlevel.obj
 0002:00007614       ??_C@_1M@GEEFALPE@?$AAd?$AAe?$AA?9?$AAL?$AAI?$AA?$AA@ 1003e614     libucrt:lcidtoname_downlevel.obj
 0002:00007620       ??_C@_1M@IGEOFBG@?$AAe?$AAn?$AA?9?$AAN?$AAZ?$AA?$AA@ 1003e620     libucrt:lcidtoname_downlevel.obj
 0002:0000762c       ??_C@_1M@KDBONEHP@?$AAe?$AAs?$AA?9?$AAC?$AAR?$AA?$AA@ 1003e62c     libucrt:lcidtoname_downlevel.obj
 0002:00007638       ??_C@_1M@FHMDOHNN@?$AAf?$AAr?$AA?9?$AAL?$AAU?$AA?$AA@ 1003e638     libucrt:lcidtoname_downlevel.obj
 0002:00007644       ??_C@_1BG@NFKKMAFG@?$AAb?$AAs?$AA?9?$AAB?$AAA?$AA?9?$AAL?$AAa?$AAt?$AAn?$AA?$AA@ 1003e644     libucrt:lcidtoname_downlevel.obj
 0002:0000765c       ??_C@_1O@IMNBEMCI@?$AAs?$AAm?$AAj?$AA?9?$AAS?$AAE?$AA?$AA@ 1003e65c     libucrt:lcidtoname_downlevel.obj
 0002:0000766c       ??_C@_1M@DHHMBNDP@?$AAa?$AAr?$AA?9?$AAM?$AAA?$AA?$AA@ 1003e66c     libucrt:lcidtoname_downlevel.obj
 0002:00007678       ??_C@_1M@BNBLJCGH@?$AAe?$AAn?$AA?9?$AAI?$AAE?$AA?$AA@ 1003e678     libucrt:lcidtoname_downlevel.obj
 0002:00007684       ??_C@_1M@GEPAFMDL@?$AAe?$AAs?$AA?9?$AAP?$AAA?$AA?$AA@ 1003e684     libucrt:lcidtoname_downlevel.obj
 0002:00007690       ??_C@_1M@OJONDMDL@?$AAf?$AAr?$AA?9?$AAM?$AAC?$AA?$AA@ 1003e690     libucrt:lcidtoname_downlevel.obj
 0002:0000769c       ??_C@_1BG@OBCNFJB@?$AAs?$AAr?$AA?9?$AAB?$AAA?$AA?9?$AAL?$AAa?$AAt?$AAn?$AA?$AA@ 1003e69c     libucrt:lcidtoname_downlevel.obj
 0002:000076b4       ??_C@_1O@KEMEEGPO@?$AAs?$AAm?$AAa?$AA?9?$AAN?$AAO?$AA?$AA@ 1003e6b4     libucrt:lcidtoname_downlevel.obj
 0002:000076c4       ??_C@_1M@ELMGFODK@?$AAa?$AAr?$AA?9?$AAT?$AAN?$AA?$AA@ 1003e6c4     libucrt:lcidtoname_downlevel.obj
 0002:000076d0       ??_C@_1M@BHDLHFAF@?$AAe?$AAn?$AA?9?$AAZ?$AAA?$AA?$AA@ 1003e6d0     libucrt:lcidtoname_downlevel.obj
 0002:000076dc       ??_C@_1M@BMGIGLIF@?$AAe?$AAs?$AA?9?$AAD?$AAO?$AA?$AA@ 1003e6dc     libucrt:lcidtoname_downlevel.obj
 0002:000076e8       ??_C@_1BG@CMBHIPBE@?$AAs?$AAr?$AA?9?$AAB?$AAA?$AA?9?$AAC?$AAy?$AAr?$AAl?$AA?$AA@ 1003e6e8     libucrt:lcidtoname_downlevel.obj
 0002:00007700       ??_C@_1O@HEDBLHNP@?$AAs?$AAm?$AAa?$AA?9?$AAS?$AAE?$AA?$AA@ 1003e700     libucrt:lcidtoname_downlevel.obj
 0002:00007710       ??_C@_1M@DAGCADIM@?$AAa?$AAr?$AA?9?$AAO?$AAM?$AA?$AA@ 1003e710     libucrt:lcidtoname_downlevel.obj
 0002:0000771c       ??_C@_1M@FODLMICG@?$AAe?$AAn?$AA?9?$AAJ?$AAM?$AA?$AA@ 1003e71c     libucrt:lcidtoname_downlevel.obj
 0002:00007728       ??_C@_1M@DNMLCIHB@?$AAe?$AAs?$AA?9?$AAV?$AAE?$AA?$AA@ 1003e728     libucrt:lcidtoname_downlevel.obj
 0002:00007734       ??_C@_1O@EOKHMKJK@?$AAs?$AAm?$AAs?$AA?9?$AAF?$AAI?$AA?$AA@ 1003e734     libucrt:lcidtoname_downlevel.obj
 0002:00007744       ??_C@_1M@CAFJMKOF@?$AAa?$AAr?$AA?9?$AAY?$AAE?$AA?$AA@ 1003e744     libucrt:lcidtoname_downlevel.obj
 0002:00007750       ??_C@_1M@CBFHIJLI@?$AAe?$AAn?$AA?9?$AAC?$AAB?$AA?$AA@ 1003e750     libucrt:lcidtoname_downlevel.obj
 0002:0000775c       ??_C@_1M@BGNFLDN@?$AAe?$AAs?$AA?9?$AAC?$AAO?$AA?$AA@ 1003e75c     libucrt:lcidtoname_downlevel.obj
 0002:00007768       ??_C@_1O@JMPHMAMC@?$AAs?$AAm?$AAn?$AA?9?$AAF?$AAI?$AA?$AA@ 1003e768     libucrt:lcidtoname_downlevel.obj
 0002:00007778       ??_C@_1M@JLANABKE@?$AAa?$AAr?$AA?9?$AAS?$AAY?$AA?$AA@ 1003e778     libucrt:lcidtoname_downlevel.obj
 0002:00007784       ??_C@_1M@HPKGCFGN@?$AAe?$AAn?$AA?9?$AAB?$AAZ?$AA?$AA@ 1003e784     libucrt:lcidtoname_downlevel.obj
 0002:00007790       ??_C@_1M@OLJCMLGM@?$AAe?$AAs?$AA?9?$AAP?$AAE?$AA?$AA@ 1003e790     libucrt:lcidtoname_downlevel.obj
 0002:0000779c       ??_C@_1M@MKKGFKLE@?$AAa?$AAr?$AA?9?$AAJ?$AAO?$AA?$AA@ 1003e79c     libucrt:lcidtoname_downlevel.obj
 0002:000077a8       ??_C@_1M@EKPGLDNI@?$AAe?$AAn?$AA?9?$AAT?$AAT?$AA?$AA@ 1003e7a8     libucrt:lcidtoname_downlevel.obj
 0002:000077b4       ??_C@_1M@OONGHFHE@?$AAe?$AAs?$AA?9?$AAA?$AAR?$AA?$AA@ 1003e7b4     libucrt:lcidtoname_downlevel.obj
 0002:000077c0       ??_C@_1M@OOJFGBHE@?$AAa?$AAr?$AA?9?$AAL?$AAB?$AA?$AA@ 1003e7c0     libucrt:lcidtoname_downlevel.obj
 0002:000077cc       ??_C@_1M@GCEJHNEG@?$AAe?$AAn?$AA?9?$AAZ?$AAW?$AA?$AA@ 1003e7cc     libucrt:lcidtoname_downlevel.obj
 0002:000077d8       ??_C@_1M@JNOCAHJI@?$AAe?$AAs?$AA?9?$AAE?$AAC?$AA?$AA@ 1003e7d8     libucrt:lcidtoname_downlevel.obj
 0002:000077e4       ??_C@_1M@JEFHPGGB@?$AAa?$AAr?$AA?9?$AAK?$AAW?$AA?$AA@ 1003e7e4     libucrt:lcidtoname_downlevel.obj
 0002:000077f0       ??_C@_1M@MLKIBJOJ@?$AAe?$AAn?$AA?9?$AAP?$AAH?$AA?$AA@ 1003e7f0     libucrt:lcidtoname_downlevel.obj
 0002:000077fc       ??_C@_1M@BDNIPEND@?$AAe?$AAs?$AA?9?$AAC?$AAL?$AA?$AA@ 1003e7fc     libucrt:lcidtoname_downlevel.obj
 0002:00007808       ??_C@_1M@MPNMEKBD@?$AAa?$AAr?$AA?9?$AAA?$AAE?$AA?$AA@ 1003e808     libucrt:lcidtoname_downlevel.obj
 0002:00007814       ??_C@_1M@KBJALCPI@?$AAe?$AAs?$AA?9?$AAU?$AAY?$AA?$AA@ 1003e814     libucrt:lcidtoname_downlevel.obj
 0002:00007820       ??_C@_1M@LLCCOAGA@?$AAa?$AAr?$AA?9?$AAB?$AAH?$AA?$AA@ 1003e820     libucrt:lcidtoname_downlevel.obj
 0002:0000782c       ??_C@_1M@PBFNCDEL@?$AAe?$AAs?$AA?9?$AAP?$AAY?$AA?$AA@ 1003e82c     libucrt:lcidtoname_downlevel.obj
 0002:00007838       ??_C@_1M@EDGINPNP@?$AAa?$AAr?$AA?9?$AAQ?$AAA?$AA?$AA@ 1003e838     libucrt:lcidtoname_downlevel.obj
 0002:00007844       ??_C@_1M@MKDBIIJI@?$AAe?$AAs?$AA?9?$AAB?$AAO?$AA?$AA@ 1003e844     libucrt:lcidtoname_downlevel.obj
 0002:00007850       ??_C@_1M@CPKKEBLD@?$AAe?$AAs?$AA?9?$AAS?$AAV?$AA?$AA@ 1003e850     libucrt:lcidtoname_downlevel.obj
 0002:0000785c       ??_C@_1M@NDBGMMJL@?$AAe?$AAs?$AA?9?$AAH?$AAN?$AA?$AA@ 1003e85c     libucrt:lcidtoname_downlevel.obj
 0002:00007868       ??_C@_1M@JIJIBHDP@?$AAe?$AAs?$AA?9?$AAN?$AAI?$AA?$AA@ 1003e868     libucrt:lcidtoname_downlevel.obj
 0002:00007874       ??_C@_1M@CGFMKEEK@?$AAe?$AAs?$AA?9?$AAP?$AAR?$AA?$AA@ 1003e874     libucrt:lcidtoname_downlevel.obj
 0002:00007880       ??_C@_1O@ICJHKIIK@?$AAz?$AAh?$AA?9?$AAC?$AAH?$AAT?$AA?$AA@ 1003e880     libucrt:lcidtoname_downlevel.obj
 0002:00007890       ??_C@_15CLNEJCE@?$AAs?$AAr?$AA?$AA@ 1003e890     libucrt:lcidtoname_downlevel.obj
 0002:00007fb8       ??_C@_1M@KAHEKEIG@?$AAa?$AAf?$AA?9?$AAz?$AAa?$AA?$AA@ 1003efb8     libucrt:lcidtoname_downlevel.obj
 0002:00007fc4       ??_C@_1M@GIECOABL@?$AAa?$AAr?$AA?9?$AAa?$AAe?$AA?$AA@ 1003efc4     libucrt:lcidtoname_downlevel.obj
 0002:00007fd0       ??_C@_1M@BMLMEKGI@?$AAa?$AAr?$AA?9?$AAb?$AAh?$AA?$AA@ 1003efd0     libucrt:lcidtoname_downlevel.obj
 0002:00007fdc       ??_C@_1M@DAPFDGGB@?$AAa?$AAr?$AA?9?$AAd?$AAz?$AA?$AA@ 1003efdc     libucrt:lcidtoname_downlevel.obj
 0002:00007fe8       ??_C@_1M@FJNKGKIG@?$AAa?$AAr?$AA?9?$AAe?$AAg?$AA?$AA@ 1003efe8     libucrt:lcidtoname_downlevel.obj
 0002:00007ff4       ??_C@_1M@FLGKKCLO@?$AAa?$AAr?$AA?9?$AAi?$AAq?$AA?$AA@ 1003eff4     libucrt:lcidtoname_downlevel.obj
 0002:00008000       ??_C@_1M@GNDIPALM@?$AAa?$AAr?$AA?9?$AAj?$AAo?$AA?$AA@ 1003f000     libucrt:lcidtoname_downlevel.obj
 0002:0000800c       ??_C@_1M@DDMJFMGJ@?$AAa?$AAr?$AA?9?$AAk?$AAw?$AA?$AA@ 1003f00c     libucrt:lcidtoname_downlevel.obj
 0002:00008018       ??_C@_1M@EJALMLHM@?$AAa?$AAr?$AA?9?$AAl?$AAb?$AA?$AA@ 1003f018     libucrt:lcidtoname_downlevel.obj
 0002:00008024       ??_C@_1M@MOBDBLOC@?$AAa?$AAr?$AA?9?$AAl?$AAy?$AA?$AA@ 1003f024     libucrt:lcidtoname_downlevel.obj
 0002:00008030       ??_C@_1M@JAOCLHDH@?$AAa?$AAr?$AA?9?$AAm?$AAa?$AA?$AA@ 1003f030     libucrt:lcidtoname_downlevel.obj
 0002:0000803c       ??_C@_1M@JHPMKJIE@?$AAa?$AAr?$AA?9?$AAo?$AAm?$AA?$AA@ 1003f03c     libucrt:lcidtoname_downlevel.obj
 0002:00008048       ??_C@_1M@OEPGHFNH@?$AAa?$AAr?$AA?9?$AAq?$AAa?$AA?$AA@ 1003f048     libucrt:lcidtoname_downlevel.obj
 0002:00008054       ??_C@_1M@KJDONENM@?$AAa?$AAr?$AA?9?$AAs?$AAa?$AA?$AA@ 1003f054     libucrt:lcidtoname_downlevel.obj
 0002:00008060       ??_C@_1M@DMJDKLKM@?$AAa?$AAr?$AA?9?$AAs?$AAy?$AA?$AA@ 1003f060     libucrt:lcidtoname_downlevel.obj
 0002:0000806c       ??_C@_1M@OMFIPEDC@?$AAa?$AAr?$AA?9?$AAt?$AAn?$AA?$AA@ 1003f06c     libucrt:lcidtoname_downlevel.obj
 0002:00008078       ??_C@_1M@IHMHGAON@?$AAa?$AAr?$AA?9?$AAy?$AAe?$AA?$AA@ 1003f078     libucrt:lcidtoname_downlevel.obj
 0002:00008084       ??_C@_1BG@KDCPGJGB@?$AAa?$AAz?$AA?9?$AAa?$AAz?$AA?9?$AAc?$AAy?$AAr?$AAl?$AA?$AA@ 1003f084     libucrt:lcidtoname_downlevel.obj
 0002:0000809c       ??_C@_1BG@IBCKDDOE@?$AAa?$AAz?$AA?9?$AAa?$AAz?$AA?9?$AAl?$AAa?$AAt?$AAn?$AA?$AA@ 1003f09c     libucrt:lcidtoname_downlevel.obj
 0002:000080b4       ??_C@_1M@EGPFDCPD@?$AAb?$AAe?$AA?9?$AAb?$AAy?$AA?$AA@ 1003f0b4     libucrt:lcidtoname_downlevel.obj
 0002:000080c0       ??_C@_1M@PCMGMCGC@?$AAb?$AAg?$AA?9?$AAb?$AAg?$AA?$AA@ 1003f0c0     libucrt:lcidtoname_downlevel.obj
 0002:000080cc       ??_C@_1M@BJBMFGOB@?$AAb?$AAn?$AA?9?$AAi?$AAn?$AA?$AA@ 1003f0cc     libucrt:lcidtoname_downlevel.obj
 0002:000080d8       ??_C@_1BG@EAKMMACD@?$AAb?$AAs?$AA?9?$AAb?$AAa?$AA?9?$AAl?$AAa?$AAt?$AAn?$AA?$AA@ 1003f0d8     libucrt:lcidtoname_downlevel.obj
 0002:000080f0       ??_C@_1M@KGADAODK@?$AAc?$AAa?$AA?9?$AAe?$AAs?$AA?$AA@ 1003f0f0     libucrt:lcidtoname_downlevel.obj
 0002:000080fc       ??_C@_1M@COAJPDHI@?$AAc?$AAs?$AA?9?$AAc?$AAz?$AA?$AA@ 1003f0fc     libucrt:lcidtoname_downlevel.obj
 0002:00008108       ??_C@_1M@DHBHFONH@?$AAc?$AAy?$AA?9?$AAg?$AAb?$AA?$AA@ 1003f108     libucrt:lcidtoname_downlevel.obj
 0002:00008114       ??_C@_1M@IMGKELGA@?$AAd?$AAa?$AA?9?$AAd?$AAk?$AA?$AA@ 1003f114     libucrt:lcidtoname_downlevel.obj
 0002:00008120       ??_C@_1M@NNDGDNGA@?$AAd?$AAe?$AA?9?$AAa?$AAt?$AA?$AA@ 1003f120     libucrt:lcidtoname_downlevel.obj
 0002:0000812c       ??_C@_1M@IKDBHEEM@?$AAd?$AAe?$AA?9?$AAc?$AAh?$AA?$AA@ 1003f12c     libucrt:lcidtoname_downlevel.obj
 0002:00008138       ??_C@_1M@GFFOJMCJ@?$AAd?$AAe?$AA?9?$AAd?$AAe?$AA?$AA@ 1003f138     libucrt:lcidtoname_downlevel.obj
 0002:00008144       ??_C@_1M@MDNLKBPM@?$AAd?$AAe?$AA?9?$AAl?$AAi?$AA?$AA@ 1003f144     libucrt:lcidtoname_downlevel.obj
 0002:00008150       ??_C@_1M@NJBEEJNL@?$AAd?$AAe?$AA?9?$AAl?$AAu?$AA?$AA@ 1003f150     libucrt:lcidtoname_downlevel.obj
 0002:0000815c       ??_C@_1O@GNNELBAP@?$AAd?$AAi?$AAv?$AA?9?$AAm?$AAv?$AA?$AA@ 1003f15c     libucrt:lcidtoname_downlevel.obj
 0002:0000816c       ??_C@_1M@EJLEOGAE@?$AAe?$AAl?$AA?9?$AAg?$AAr?$AA?$AA@ 1003f16c     libucrt:lcidtoname_downlevel.obj
 0002:00008178       ??_C@_1M@GMPONJN@?$AAe?$AAn?$AA?9?$AAa?$AAu?$AA?$AA@ 1003f178     libucrt:lcidtoname_downlevel.obj
 0002:00008184       ??_C@_1M@NIDIIPGF@?$AAe?$AAn?$AA?9?$AAb?$AAz?$AA?$AA@ 1003f184     libucrt:lcidtoname_downlevel.obj
 0002:00008190       ??_C@_1M@JEHMIMFO@?$AAe?$AAn?$AA?9?$AAc?$AAa?$AA?$AA@ 1003f190     libucrt:lcidtoname_downlevel.obj
 0002:0000819c       ??_C@_1M@IGMJCDLA@?$AAe?$AAn?$AA?9?$AAc?$AAb?$AA?$AA@ 1003f19c     libucrt:lcidtoname_downlevel.obj
 0002:000081a8       ??_C@_1M@BNFIGBKG@?$AAe?$AAn?$AA?9?$AAg?$AAb?$AA?$AA@ 1003f1a8     libucrt:lcidtoname_downlevel.obj
 0002:000081b4       ??_C@_1M@LKIFDIGP@?$AAe?$AAn?$AA?9?$AAi?$AAe?$AA?$AA@ 1003f1b4     libucrt:lcidtoname_downlevel.obj
 0002:000081c0       ??_C@_1M@PJKFGCCO@?$AAe?$AAn?$AA?9?$AAj?$AAm?$AA?$AA@ 1003f1c0     libucrt:lcidtoname_downlevel.obj
 0002:000081cc       ??_C@_1M@KPPKEPBO@?$AAe?$AAn?$AA?9?$AAn?$AAz?$AA?$AA@ 1003f1cc     libucrt:lcidtoname_downlevel.obj
 0002:000081d8       ??_C@_1M@GMDGLDOB@?$AAe?$AAn?$AA?9?$AAp?$AAh?$AA?$AA@ 1003f1d8     libucrt:lcidtoname_downlevel.obj
 0002:000081e4       ??_C@_1M@ONGIBJNA@?$AAe?$AAn?$AA?9?$AAt?$AAt?$AA?$AA@ 1003f1e4     libucrt:lcidtoname_downlevel.obj
 0002:000081f0       ??_C@_1M@LLODPCMM@?$AAe?$AAn?$AA?9?$AAu?$AAs?$AA?$AA@ 1003f1f0     libucrt:lcidtoname_downlevel.obj
 0002:000081fc       ??_C@_1M@LAKFNPAN@?$AAe?$AAn?$AA?9?$AAz?$AAa?$AA?$AA@ 1003f1fc     libucrt:lcidtoname_downlevel.obj
 0002:00008208       ??_C@_1M@MFNHNHEO@?$AAe?$AAn?$AA?9?$AAz?$AAw?$AA?$AA@ 1003f208     libucrt:lcidtoname_downlevel.obj
 0002:00008214       ??_C@_1M@EJEINPHM@?$AAe?$AAs?$AA?9?$AAa?$AAr?$AA?$AA@ 1003f214     libucrt:lcidtoname_downlevel.obj
 0002:00008220       ??_C@_1M@GNKPCCJA@?$AAe?$AAs?$AA?9?$AAb?$AAo?$AA?$AA@ 1003f220     libucrt:lcidtoname_downlevel.obj
 0002:0000822c       ??_C@_1M@LEEGFONL@?$AAe?$AAs?$AA?9?$AAc?$AAl?$AA?$AA@ 1003f22c     libucrt:lcidtoname_downlevel.obj
 0002:00008238       ??_C@_1M@KGPDPBDF@?$AAe?$AAs?$AA?9?$AAc?$AAo?$AA?$AA@ 1003f238     libucrt:lcidtoname_downlevel.obj
 0002:00008244       ??_C@_1M@EIAHOHH@?$AAe?$AAs?$AA?9?$AAc?$AAr?$AA?$AA@ 1003f244     libucrt:lcidtoname_downlevel.obj
 0002:00008250       ??_C@_1M@LLPGMBIN@?$AAe?$AAs?$AA?9?$AAd?$AAo?$AA?$AA@ 1003f250     libucrt:lcidtoname_downlevel.obj
 0002:0000825c       ??_C@_1M@DKHMKNJA@?$AAe?$AAs?$AA?9?$AAe?$AAc?$AA?$AA@ 1003f25c     libucrt:lcidtoname_downlevel.obj
 0002:00008268       ??_C@_1M@GKGFPKAP@?$AAe?$AAs?$AA?9?$AAe?$AAs?$AA?$AA@ 1003f268     libucrt:lcidtoname_downlevel.obj
 0002:00008274       ??_C@_1M@LKHKGDLN@?$AAe?$AAs?$AA?9?$AAg?$AAt?$AA?$AA@ 1003f274     libucrt:lcidtoname_downlevel.obj
 0002:00008280       ??_C@_1M@HEIIGGJD@?$AAe?$AAs?$AA?9?$AAh?$AAn?$AA?$AA@ 1003f280     libucrt:lcidtoname_downlevel.obj
 0002:0000828c       ??_C@_1M@FBDHPPGD@?$AAe?$AAs?$AA?9?$AAm?$AAx?$AA?$AA@ 1003f28c     libucrt:lcidtoname_downlevel.obj
 0002:00008298       ??_C@_1M@DPAGLNDH@?$AAe?$AAs?$AA?9?$AAn?$AAi?$AA?$AA@ 1003f298     libucrt:lcidtoname_downlevel.obj
 0002:000082a4       ??_C@_1M@MDGOPGDD@?$AAe?$AAs?$AA?9?$AAp?$AAa?$AA?$AA@ 1003f2a4     libucrt:lcidtoname_downlevel.obj
 0002:000082b0       ??_C@_1M@EMAMGBGE@?$AAe?$AAs?$AA?9?$AAp?$AAe?$AA?$AA@ 1003f2b0     libucrt:lcidtoname_downlevel.obj
 0002:000082bc       ??_C@_1M@IBMCAOEC@?$AAe?$AAs?$AA?9?$AAp?$AAr?$AA?$AA@ 1003f2bc     libucrt:lcidtoname_downlevel.obj
 0002:000082c8       ??_C@_1M@FGMDIJED@?$AAe?$AAs?$AA?9?$AAp?$AAy?$AA?$AA@ 1003f2c8     libucrt:lcidtoname_downlevel.obj
 0002:000082d4       ??_C@_1M@IIDEOLLL@?$AAe?$AAs?$AA?9?$AAs?$AAv?$AA?$AA@ 1003f2d4     libucrt:lcidtoname_downlevel.obj
 0002:000082e0       ??_C@_1M@GAOBIPA@?$AAe?$AAs?$AA?9?$AAu?$AAy?$AA?$AA@ 1003f2e0     libucrt:lcidtoname_downlevel.obj
 0002:000082ec       ??_C@_1M@JKFFICHJ@?$AAe?$AAs?$AA?9?$AAv?$AAe?$AA?$AA@ 1003f2ec     libucrt:lcidtoname_downlevel.obj
 0002:000082f8       ??_C@_1M@PNMLOJDF@?$AAe?$AAt?$AA?9?$AAe?$AAe?$AA?$AA@ 1003f2f8     libucrt:lcidtoname_downlevel.obj
 0002:00008304       ??_C@_1M@GHHLIKEI@?$AAe?$AAu?$AA?9?$AAe?$AAs?$AA?$AA@ 1003f304     libucrt:lcidtoname_downlevel.obj
 0002:00008310       ??_C@_1M@PBNONODE@?$AAf?$AAa?$AA?9?$AAi?$AAr?$AA?$AA@ 1003f310     libucrt:lcidtoname_downlevel.obj
 0002:0000831c       ??_C@_1M@JEEHPMIL@?$AAf?$AAi?$AA?9?$AAf?$AAi?$AA?$AA@ 1003f31c     libucrt:lcidtoname_downlevel.obj
 0002:00008328       ??_C@_1M@LMDCNDBA@?$AAf?$AAo?$AA?9?$AAf?$AAo?$AA?$AA@ 1003f328     libucrt:lcidtoname_downlevel.obj
 0002:00008334       ??_C@_1M@JKEOHLDK@?$AAf?$AAr?$AA?9?$AAb?$AAe?$AA?$AA@ 1003f334     libucrt:lcidtoname_downlevel.obj
 0002:00008340       ??_C@_1M@NOHADPMI@?$AAf?$AAr?$AA?9?$AAc?$AAa?$AA?$AA@ 1003f340     libucrt:lcidtoname_downlevel.obj
 0002:0000834c       ??_C@_1M@KDHIHAEC@?$AAf?$AAr?$AA?9?$AAc?$AAh?$AA?$AA@ 1003f34c     libucrt:lcidtoname_downlevel.obj
 0002:00008358       ??_C@_1M@MMBBFGAK@?$AAf?$AAr?$AA?9?$AAf?$AAr?$AA?$AA@ 1003f358     libucrt:lcidtoname_downlevel.obj
 0002:00008364       ??_C@_1M@PAFNENNF@?$AAf?$AAr?$AA?9?$AAl?$AAu?$AA?$AA@ 1003f364     libucrt:lcidtoname_downlevel.obj
 0002:00008370       ??_C@_1M@EOHDJGDD@?$AAf?$AAr?$AA?9?$AAm?$AAc?$AA?$AA@ 1003f370     libucrt:lcidtoname_downlevel.obj
 0002:0000837c       ??_C@_1M@FAPLLOPF@?$AAg?$AAl?$AA?9?$AAe?$AAs?$AA?$AA@ 1003f37c     libucrt:lcidtoname_downlevel.obj
 0002:00008388       ??_C@_1M@FOPBFLOO@?$AAg?$AAu?$AA?9?$AAi?$AAn?$AA?$AA@ 1003f388     libucrt:lcidtoname_downlevel.obj
 0002:00008394       ??_C@_1M@KBMCINPM@?$AAh?$AAe?$AA?9?$AAi?$AAl?$AA?$AA@ 1003f394     libucrt:lcidtoname_downlevel.obj
 0002:000083a0       ??_C@_1M@BBPHKFPJ@?$AAh?$AAi?$AA?9?$AAi?$AAn?$AA?$AA@ 1003f3a0     libucrt:lcidtoname_downlevel.obj
 0002:000083ac       ??_C@_1M@PMBNDPHD@?$AAh?$AAr?$AA?9?$AAb?$AAa?$AA?$AA@ 1003f3ac     libucrt:lcidtoname_downlevel.obj
 0002:000083b8       ??_C@_1M@BPCKOEGE@?$AAh?$AAr?$AA?9?$AAh?$AAr?$AA?$AA@ 1003f3b8     libucrt:lcidtoname_downlevel.obj
 0002:000083c4       ??_C@_1M@GACBMHKE@?$AAh?$AAu?$AA?9?$AAh?$AAu?$AA?$AA@ 1003f3c4     libucrt:lcidtoname_downlevel.obj
 0002:000083d0       ??_C@_1M@MILPAJJC@?$AAh?$AAy?$AA?9?$AAa?$AAm?$AA?$AA@ 1003f3d0     libucrt:lcidtoname_downlevel.obj
 0002:000083dc       ??_C@_1M@BABBICEC@?$AAi?$AAd?$AA?9?$AAi?$AAd?$AA?$AA@ 1003f3dc     libucrt:lcidtoname_downlevel.obj
 0002:000083e8       ??_C@_1M@BIKNHHPF@?$AAi?$AAs?$AA?9?$AAi?$AAs?$AA?$AA@ 1003f3e8     libucrt:lcidtoname_downlevel.obj
 0002:000083f4       ??_C@_1M@NMPCJPHE@?$AAi?$AAt?$AA?9?$AAc?$AAh?$AA?$AA@ 1003f3f4     libucrt:lcidtoname_downlevel.obj
 0002:00008400       ??_C@_1M@GHKGFEDF@?$AAi?$AAt?$AA?9?$AAi?$AAt?$AA?$AA@ 1003f400     libucrt:lcidtoname_downlevel.obj
 0002:0000840c       ??_C@_1M@NIEJCJJA@?$AAj?$AAa?$AA?9?$AAj?$AAp?$AA?$AA@ 1003f40c     libucrt:lcidtoname_downlevel.obj
 0002:00008418       ??_C@_1M@JILFNBIM@?$AAk?$AAa?$AA?9?$AAg?$AAe?$AA?$AA@ 1003f418     libucrt:lcidtoname_downlevel.obj
 0002:00008424       ??_C@_1M@PACPMGPH@?$AAk?$AAk?$AA?9?$AAk?$AAz?$AA?$AA@ 1003f424     libucrt:lcidtoname_downlevel.obj
 0002:00008430       ??_C@_1M@IELFGMHA@?$AAk?$AAn?$AA?9?$AAi?$AAn?$AA?$AA@ 1003f430     libucrt:lcidtoname_downlevel.obj
 0002:0000843c       ??_C@_1O@IBBJHCH@?$AAk?$AAo?$AAk?$AA?9?$AAi?$AAn?$AA?$AA@ 1003f43c     libucrt:lcidtoname_downlevel.obj
 0002:0000844c       ??_C@_1M@DMHAEOGC@?$AAk?$AAo?$AA?9?$AAk?$AAr?$AA?$AA@ 1003f44c     libucrt:lcidtoname_downlevel.obj
 0002:00008458       ??_C@_1M@HBAHBIGA@?$AAk?$AAy?$AA?9?$AAk?$AAg?$AA?$AA@ 1003f458     libucrt:lcidtoname_downlevel.obj
 0002:00008464       ??_C@_1M@KPMILCJG@?$AAl?$AAt?$AA?9?$AAl?$AAt?$AA?$AA@ 1003f464     libucrt:lcidtoname_downlevel.obj
 0002:00008470       ??_C@_1M@BDEKKCA@?$AAl?$AAv?$AA?9?$AAl?$AAv?$AA?$AA@ 1003f470     libucrt:lcidtoname_downlevel.obj
 0002:0000847c       ??_C@_1M@ELCKCCJJ@?$AAm?$AAi?$AA?9?$AAn?$AAz?$AA?$AA@ 1003f47c     libucrt:lcidtoname_downlevel.obj
 0002:00008488       ??_C@_1M@CBOOLAPA@?$AAm?$AAk?$AA?9?$AAm?$AAk?$AA?$AA@ 1003f488     libucrt:lcidtoname_downlevel.obj
 0002:00008494       ??_C@_1M@GPHNBJKN@?$AAm?$AAl?$AA?9?$AAi?$AAn?$AA?$AA@ 1003f494     libucrt:lcidtoname_downlevel.obj
 0002:000084a0       ??_C@_1M@PABJILIG@?$AAm?$AAn?$AA?9?$AAm?$AAn?$AA?$AA@ 1003f4a0     libucrt:lcidtoname_downlevel.obj
 0002:000084ac       ??_C@_1M@FGBKKIPG@?$AAm?$AAr?$AA?9?$AAi?$AAn?$AA?$AA@ 1003f4ac     libucrt:lcidtoname_downlevel.obj
 0002:000084b8       ??_C@_1M@NDBPDDAL@?$AAm?$AAs?$AA?9?$AAb?$AAn?$AA?$AA@ 1003f4b8     libucrt:lcidtoname_downlevel.obj
 0002:000084c4       ??_C@_1M@OPIHOOPI@?$AAm?$AAs?$AA?9?$AAm?$AAy?$AA?$AA@ 1003f4c4     libucrt:lcidtoname_downlevel.obj
 0002:000084d0       ??_C@_1M@PPDBCNFM@?$AAm?$AAt?$AA?9?$AAm?$AAt?$AA?$AA@ 1003f4d0     libucrt:lcidtoname_downlevel.obj
 0002:000084dc       ??_C@_1M@KDJDKMDD@?$AAn?$AAb?$AA?9?$AAn?$AAo?$AA?$AA@ 1003f4dc     libucrt:lcidtoname_downlevel.obj
 0002:000084e8       ??_C@_1M@KFCFLMJP@?$AAn?$AAl?$AA?9?$AAb?$AAe?$AA?$AA@ 1003f4e8     libucrt:lcidtoname_downlevel.obj
 0002:000084f4       ??_C@_1M@KPOPDDGO@?$AAn?$AAl?$AA?9?$AAn?$AAl?$AA?$AA@ 1003f4f4     libucrt:lcidtoname_downlevel.obj
 0002:00008500       ??_C@_1M@LJKPEMLN@?$AAn?$AAn?$AA?9?$AAn?$AAo?$AA?$AA@ 1003f500     libucrt:lcidtoname_downlevel.obj
 0002:0000850c       ??_C@_1M@BDGHHBFL@?$AAn?$AAs?$AA?9?$AAz?$AAa?$AA?$AA@ 1003f50c     libucrt:lcidtoname_downlevel.obj
 0002:00008518       ??_C@_1M@IDEHOAP@?$AAp?$AAa?$AA?9?$AAi?$AAn?$AA?$AA@ 1003f518     libucrt:lcidtoname_downlevel.obj
 0002:00008524       ??_C@_1M@HDBKGOGH@?$AAp?$AAl?$AA?9?$AAp?$AAl?$AA?$AA@ 1003f524     libucrt:lcidtoname_downlevel.obj
 0002:00008530       ??_C@_1M@LJLLCMEH@?$AAp?$AAt?$AA?9?$AAb?$AAr?$AA?$AA@ 1003f530     libucrt:lcidtoname_downlevel.obj
 0002:0000853c       ??_C@_1M@NCMONAAL@?$AAp?$AAt?$AA?9?$AAp?$AAt?$AA?$AA@ 1003f53c     libucrt:lcidtoname_downlevel.obj
 0002:00008548       ??_C@_1O@EAKMAJDN@?$AAq?$AAu?$AAz?$AA?9?$AAb?$AAo?$AA?$AA@ 1003f548     libucrt:lcidtoname_downlevel.obj
 0002:00008558       ??_C@_1O@BHHPIGDN@?$AAq?$AAu?$AAz?$AA?9?$AAe?$AAc?$AA?$AA@ 1003f558     libucrt:lcidtoname_downlevel.obj
 0002:00008568       ??_C@_1O@GBAPEKMJ@?$AAq?$AAu?$AAz?$AA?9?$AAp?$AAe?$AA?$AA@ 1003f568     libucrt:lcidtoname_downlevel.obj
 0002:00008578       ??_C@_1M@CLGLEFBO@?$AAr?$AAo?$AA?9?$AAr?$AAo?$AA?$AA@ 1003f578     libucrt:lcidtoname_downlevel.obj
 0002:00008584       ??_C@_1M@CEEDODME@?$AAr?$AAu?$AA?9?$AAr?$AAu?$AA?$AA@ 1003f584     libucrt:lcidtoname_downlevel.obj
 0002:00008590       ??_C@_1M@HPKKKMPP@?$AAs?$AAa?$AA?9?$AAi?$AAn?$AA?$AA@ 1003f590     libucrt:lcidtoname_downlevel.obj
 0002:0000859c       ??_C@_1M@BKMAIGOJ@?$AAs?$AAe?$AA?9?$AAf?$AAi?$AA?$AA@ 1003f59c     libucrt:lcidtoname_downlevel.obj
 0002:000085a8       ??_C@_1M@NDPIFLFI@?$AAs?$AAe?$AA?9?$AAn?$AAo?$AA?$AA@ 1003f5a8     libucrt:lcidtoname_downlevel.obj
 0002:000085b4       ??_C@_1M@DANKKHJ@?$AAs?$AAe?$AA?9?$AAs?$AAe?$AA?$AA@ 1003f5b4     libucrt:lcidtoname_downlevel.obj
 0002:000085c0       ??_C@_1M@PNBLONPJ@?$AAs?$AAk?$AA?9?$AAs?$AAk?$AA?$AA@ 1003f5c0     libucrt:lcidtoname_downlevel.obj
 0002:000085cc       ??_C@_1M@LFMODOAL@?$AAs?$AAl?$AA?9?$AAs?$AAi?$AA?$AA@ 1003f5cc     libucrt:lcidtoname_downlevel.obj
 0002:000085d8       ??_C@_1O@DFKOMPG@?$AAs?$AAm?$AAa?$AA?9?$AAn?$AAo?$AA?$AA@ 1003f5d8     libucrt:lcidtoname_downlevel.obj
 0002:000085e8       ??_C@_1O@NDKPBNNH@?$AAs?$AAm?$AAa?$AA?9?$AAs?$AAe?$AA?$AA@ 1003f5e8     libucrt:lcidtoname_downlevel.obj
 0002:000085f8       ??_C@_1O@PLLKBHAB@?$AAs?$AAm?$AAj?$AA?9?$AAn?$AAo?$AA?$AA@ 1003f5f8     libucrt:lcidtoname_downlevel.obj
 0002:00008608       ??_C@_1O@CLEPOGCA@?$AAs?$AAm?$AAj?$AA?9?$AAs?$AAe?$AA?$AA@ 1003f608     libucrt:lcidtoname_downlevel.obj
 0002:00008618       ??_C@_1O@DLGJGKMK@?$AAs?$AAm?$AAn?$AA?9?$AAf?$AAi?$AA?$AA@ 1003f618     libucrt:lcidtoname_downlevel.obj
 0002:00008628       ??_C@_1O@OJDJGAJC@?$AAs?$AAm?$AAs?$AA?9?$AAf?$AAi?$AA?$AA@ 1003f628     libucrt:lcidtoname_downlevel.obj
 0002:00008638       ??_C@_1M@BOFOGHPB@?$AAs?$AAq?$AA?9?$AAa?$AAl?$AA?$AA@ 1003f638     libucrt:lcidtoname_downlevel.obj
 0002:00008644       ??_C@_1BG@LJBBIPGB@?$AAs?$AAr?$AA?9?$AAb?$AAa?$AA?9?$AAc?$AAy?$AAr?$AAl?$AA?$AA@ 1003f644     libucrt:lcidtoname_downlevel.obj
 0002:0000865c       ??_C@_1BG@JLBENFOE@?$AAs?$AAr?$AA?9?$AAb?$AAa?$AA?9?$AAl?$AAa?$AAt?$AAn?$AA?$AA@ 1003f65c     libucrt:lcidtoname_downlevel.obj
 0002:00008674       ??_C@_1BG@KODPNHE@?$AAs?$AAr?$AA?9?$AAs?$AAp?$AA?9?$AAc?$AAy?$AAr?$AAl?$AA?$AA@ 1003f674     libucrt:lcidtoname_downlevel.obj
 0002:0000868c       ??_C@_1BG@CIOGKHPB@?$AAs?$AAr?$AA?9?$AAs?$AAp?$AA?9?$AAl?$AAa?$AAt?$AAn?$AA?$AA@ 1003f68c     libucrt:lcidtoname_downlevel.obj
 0002:000086a4       ??_C@_1M@NGFJLMAC@?$AAs?$AAv?$AA?9?$AAf?$AAi?$AA?$AA@ 1003f6a4     libucrt:lcidtoname_downlevel.obj
 0002:000086b0       ??_C@_1M@MPJEJAJC@?$AAs?$AAv?$AA?9?$AAs?$AAe?$AA?$AA@ 1003f6b0     libucrt:lcidtoname_downlevel.obj
 0002:000086bc       ??_C@_1M@MPNDHLFK@?$AAs?$AAw?$AA?9?$AAk?$AAe?$AA?$AA@ 1003f6bc     libucrt:lcidtoname_downlevel.obj
 0002:000086c8       ??_C@_1O@KOHBJJI@?$AAs?$AAy?$AAr?$AA?9?$AAs?$AAy?$AA?$AA@ 1003f6c8     libucrt:lcidtoname_downlevel.obj
 0002:000086d8       ??_C@_1M@LDCEFHA@?$AAt?$AAa?$AA?9?$AAi?$AAn?$AA?$AA@ 1003f6d8     libucrt:lcidtoname_downlevel.obj
 0002:000086e4       ??_C@_1M@CNJOFAK@?$AAt?$AAe?$AA?9?$AAi?$AAn?$AA?$AA@ 1003f6e4     libucrt:lcidtoname_downlevel.obj
 0002:000086f0       ??_C@_1M@GNAECACD@?$AAt?$AAh?$AA?9?$AAt?$AAh?$AA?$AA@ 1003f6f0     libucrt:lcidtoname_downlevel.obj
 0002:000086fc       ??_C@_1M@CHBIHOJO@?$AAt?$AAn?$AA?9?$AAz?$AAa?$AA?$AA@ 1003f6fc     libucrt:lcidtoname_downlevel.obj
 0002:00008708       ??_C@_1M@GCCMIGPJ@?$AAt?$AAr?$AA?9?$AAt?$AAr?$AA?$AA@ 1003f708     libucrt:lcidtoname_downlevel.obj
 0002:00008714       ??_C@_1M@CELMCNBK@?$AAt?$AAt?$AA?9?$AAr?$AAu?$AA?$AA@ 1003f714     libucrt:lcidtoname_downlevel.obj
 0002:00008720       ??_C@_1M@KLMCELGA@?$AAu?$AAk?$AA?9?$AAu?$AAa?$AA?$AA@ 1003f720     libucrt:lcidtoname_downlevel.obj
 0002:0000872c       ??_C@_1M@EPAJJAJF@?$AAu?$AAr?$AA?9?$AAp?$AAk?$AA?$AA@ 1003f72c     libucrt:lcidtoname_downlevel.obj
 0002:00008738       ??_C@_1BG@GEGPMCDJ@?$AAu?$AAz?$AA?9?$AAu?$AAz?$AA?9?$AAc?$AAy?$AAr?$AAl?$AA?$AA@ 1003f738     libucrt:lcidtoname_downlevel.obj
 0002:00008750       ??_C@_1BG@EGGKJILM@?$AAu?$AAz?$AA?9?$AAu?$AAz?$AA?9?$AAl?$AAa?$AAt?$AAn?$AA?$AA@ 1003f750     libucrt:lcidtoname_downlevel.obj
 0002:00008768       ??_C@_1M@GFOCLFF@?$AAv?$AAi?$AA?9?$AAv?$AAn?$AA?$AA@ 1003f768     libucrt:lcidtoname_downlevel.obj
 0002:00008774       ??_C@_1M@CPAMEDFI@?$AAx?$AAh?$AA?9?$AAz?$AAa?$AA?$AA@ 1003f774     libucrt:lcidtoname_downlevel.obj
 0002:00008780       ??_C@_1O@EBKIFIGN@?$AAz?$AAh?$AA?9?$AAc?$AAh?$AAs?$AA?$AA@ 1003f780     libucrt:lcidtoname_downlevel.obj
 0002:00008790       ??_C@_1O@NMHPGANE@?$AAz?$AAh?$AA?9?$AAc?$AAh?$AAt?$AA?$AA@ 1003f790     libucrt:lcidtoname_downlevel.obj
 0002:000087a0       ??_C@_1M@LPINJOMC@?$AAz?$AAh?$AA?9?$AAc?$AAn?$AA?$AA@ 1003f7a0     libucrt:lcidtoname_downlevel.obj
 0002:000087ac       ??_C@_1M@OCJEJODD@?$AAz?$AAh?$AA?9?$AAh?$AAk?$AA?$AA@ 1003f7ac     libucrt:lcidtoname_downlevel.obj
 0002:000087b8       ??_C@_1M@DNDLJINH@?$AAz?$AAh?$AA?9?$AAm?$AAo?$AA?$AA@ 1003f7b8     libucrt:lcidtoname_downlevel.obj
 0002:000087c4       ??_C@_1M@MBFDNDND@?$AAz?$AAh?$AA?9?$AAs?$AAg?$AA?$AA@ 1003f7c4     libucrt:lcidtoname_downlevel.obj
 0002:000087d0       ??_C@_1M@IMEPLEPE@?$AAz?$AAh?$AA?9?$AAt?$AAw?$AA?$AA@ 1003f7d0     libucrt:lcidtoname_downlevel.obj
 0002:000087dc       ??_C@_1M@BBGHNHJP@?$AAz?$AAu?$AA?9?$AAz?$AAa?$AA?$AA@ 1003f7dc     libucrt:lcidtoname_downlevel.obj
 0002:000087e8       ??_C@_01GBGANLPD@0?$AA@    1003f7e8     libucrt:cfout.obj
 0002:000087ec       ??_C@_05DNEBIAHO@1?$CDINF?$AA@ 1003f7ec     libucrt:cfout.obj
 0002:000087f4       ??_C@_06IMKFLFPG@1?$CDQNAN?$AA@ 1003f7f4     libucrt:cfout.obj
 0002:000087fc       ??_C@_06PGGFOGJG@1?$CDSNAN?$AA@ 1003f7fc     libucrt:cfout.obj
 0002:00008804       ??_C@_05PHHOCPM@1?$CDIND?$AA@ 1003f804     libucrt:cfout.obj
 0002:0000880c       ??_C@_1BC@LLOKLNP@?$AAa?$AAm?$AAe?$AAr?$AAi?$AAc?$AAa?$AAn?$AA?$AA@ 1003f80c     libucrt:get_qualified_locale.obj
 0002:00008820       ??_C@_1CC@HEIGCDGG@?$AAa?$AAm?$AAe?$AAr?$AAi?$AAc?$AAa?$AAn?$AA?5?$AAe?$AAn?$AAg?$AAl?$AAi?$AAs?$AAh?$AA?$AA@ 1003f820     libucrt:get_qualified_locale.obj
 0002:00008844       ??_C@_1CC@IHCNOMIN@?$AAa?$AAm?$AAe?$AAr?$AAi?$AAc?$AAa?$AAn?$AA?9?$AAe?$AAn?$AAg?$AAl?$AAi?$AAs?$AAh?$AA?$AA@ 1003f844     libucrt:get_qualified_locale.obj
 0002:00008868       ??_C@_1BG@GKAGPCGG@?$AAa?$AAu?$AAs?$AAt?$AAr?$AAa?$AAl?$AAi?$AAa?$AAn?$AA?$AA@ 1003f868     libucrt:get_qualified_locale.obj
 0002:00008880       ??_C@_1BA@GMENCENF@?$AAb?$AAe?$AAl?$AAg?$AAi?$AAa?$AAn?$AA?$AA@ 1003f880     libucrt:get_qualified_locale.obj
 0002:00008890       ??_C@_1BC@PJMIIAAN@?$AAc?$AAa?$AAn?$AAa?$AAd?$AAi?$AAa?$AAn?$AA?$AA@ 1003f890     libucrt:get_qualified_locale.obj
 0002:000088a4       ??_C@_17NOIMNFBF@?$AAc?$AAh?$AAh?$AA?$AA@ 1003f8a4     libucrt:get_qualified_locale.obj
 0002:000088ac       ??_C@_17GGDALCHA@?$AAc?$AAh?$AAi?$AA?$AA@ 1003f8ac     libucrt:get_qualified_locale.obj
 0002:000088b4       ??_C@_1BA@NPNJKIBL@?$AAc?$AAh?$AAi?$AAn?$AAe?$AAs?$AAe?$AA?$AA@ 1003f8b4     libucrt:get_qualified_locale.obj
 0002:000088c4       ??_C@_1CC@DINBAMMJ@?$AAc?$AAh?$AAi?$AAn?$AAe?$AAs?$AAe?$AA?9?$AAh?$AAo?$AAn?$AAg?$AAk?$AAo?$AAn?$AAg?$AA?$AA@ 1003f8c4     libucrt:get_qualified_locale.obj
 0002:000088e8       ??_C@_1CG@IOBJPACO@?$AAc?$AAh?$AAi?$AAn?$AAe?$AAs?$AAe?$AA?9?$AAs?$AAi?$AAm?$AAp?$AAl?$AAi?$AAf?$AAi?$AAe?$AAd?$AA?$AA@ 1003f8e8     libucrt:get_qualified_locale.obj
 0002:00008910       ??_C@_1CE@GAJNDCKG@?$AAc?$AAh?$AAi?$AAn?$AAe?$AAs?$AAe?$AA?9?$AAs?$AAi?$AAn?$AAg?$AAa?$AAp?$AAo?$AAr?$AAe?$AA?$AA@ 1003f910     libucrt:get_qualified_locale.obj
 0002:00008934       ??_C@_1CI@PAJPIOOD@?$AAc?$AAh?$AAi?$AAn?$AAe?$AAs?$AAe?$AA?9?$AAt?$AAr?$AAa?$AAd?$AAi?$AAt?$AAi?$AAo?$AAn?$AAa?$AAl?$AA?$AA@ 1003f934     libucrt:get_qualified_locale.obj
 0002:0000895c       ??_C@_1BM@NILJBMMD@?$AAd?$AAu?$AAt?$AAc?$AAh?$AA?9?$AAb?$AAe?$AAl?$AAg?$AAi?$AAa?$AAn?$AA?$AA@ 1003f95c     libucrt:get_qualified_locale.obj
 0002:00008978       ??_C@_1CC@OOJPJNEJ@?$AAe?$AAn?$AAg?$AAl?$AAi?$AAs?$AAh?$AA?9?$AAa?$AAm?$AAe?$AAr?$AAi?$AAc?$AAa?$AAn?$AA?$AA@ 1003f978     libucrt:get_qualified_locale.obj
 0002:0000899c       ??_C@_1BI@IOLFEEM@?$AAe?$AAn?$AAg?$AAl?$AAi?$AAs?$AAh?$AA?9?$AAa?$AAu?$AAs?$AA?$AA@ 1003f99c     libucrt:get_qualified_locale.obj
 0002:000089b4       ??_C@_1BO@HFFNLENJ@?$AAe?$AAn?$AAg?$AAl?$AAi?$AAs?$AAh?$AA?9?$AAb?$AAe?$AAl?$AAi?$AAz?$AAe?$AA?$AA@ 1003f9b4     libucrt:get_qualified_locale.obj
 0002:000089d4       ??_C@_1BI@HAPKJMPO@?$AAe?$AAn?$AAg?$AAl?$AAi?$AAs?$AAh?$AA?9?$AAc?$AAa?$AAn?$AA?$AA@ 1003f9d4     libucrt:get_qualified_locale.obj
 0002:000089ec       ??_C@_1CE@HLNDMIOJ@?$AAe?$AAn?$AAg?$AAl?$AAi?$AAs?$AAh?$AA?9?$AAc?$AAa?$AAr?$AAi?$AAb?$AAb?$AAe?$AAa?$AAn?$AA?$AA@ 1003f9ec     libucrt:get_qualified_locale.obj
 0002:00008a10       ??_C@_1BI@LDHJHHAC@?$AAe?$AAn?$AAg?$AAl?$AAi?$AAs?$AAh?$AA?9?$AAi?$AAr?$AAe?$AA?$AA@ 1003fa10     libucrt:get_qualified_locale.obj
 0002:00008a28       ??_C@_1CA@NJMMCFOC@?$AAe?$AAn?$AAg?$AAl?$AAi?$AAs?$AAh?$AA?9?$AAj?$AAa?$AAm?$AAa?$AAi?$AAc?$AAa?$AA?$AA@ 1003fa28     libucrt:get_qualified_locale.obj
 0002:00008a48       ??_C@_1BG@BHJEBBGG@?$AAe?$AAn?$AAg?$AAl?$AAi?$AAs?$AAh?$AA?9?$AAn?$AAz?$AA?$AA@ 1003fa48     libucrt:get_qualified_locale.obj
 0002:00008a60       ??_C@_1CK@FGOEJJCO@?$AAe?$AAn?$AAg?$AAl?$AAi?$AAs?$AAh?$AA?9?$AAs?$AAo?$AAu?$AAt?$AAh?$AA?5?$AAa?$AAf?$AAr?$AAi?$AAc?$AAa?$AA?$AA@ 1003fa60     libucrt:get_qualified_locale.obj
 0002:00008a8c       ??_C@_1DE@PDBJPCJ@?$AAe?$AAn?$AAg?$AAl?$AAi?$AAs?$AAh?$AA?9?$AAt?$AAr?$AAi?$AAn?$AAi?$AAd?$AAa?$AAd?$AA?5?$AAy?$AA?5?$AAt?$AAo?$AAb?$AAa?$AAg?$AAo?$AA?$AA@ 1003fa8c     libucrt:get_qualified_locale.obj
 0002:00008ac0       ??_C@_1BG@JGCANDME@?$AAe?$AAn?$AAg?$AAl?$AAi?$AAs?$AAh?$AA?9?$AAu?$AAk?$AA?$AA@ 1003fac0     libucrt:get_qualified_locale.obj
 0002:00008ad8       ??_C@_1BG@DINKMLE@?$AAe?$AAn?$AAg?$AAl?$AAi?$AAs?$AAh?$AA?9?$AAu?$AAs?$AA?$AA@ 1003fad8     libucrt:get_qualified_locale.obj
 0002:00008af0       ??_C@_1BI@NMFDBHJE@?$AAe?$AAn?$AAg?$AAl?$AAi?$AAs?$AAh?$AA?9?$AAu?$AAs?$AAa?$AA?$AA@ 1003faf0     libucrt:get_qualified_locale.obj
 0002:00008b08       ??_C@_1BO@OIHKJKII@?$AAf?$AAr?$AAe?$AAn?$AAc?$AAh?$AA?9?$AAb?$AAe?$AAl?$AAg?$AAi?$AAa?$AAn?$AA?$AA@ 1003fb08     libucrt:get_qualified_locale.obj
 0002:00008b28       ??_C@_1CA@NKAELJKI@?$AAf?$AAr?$AAe?$AAn?$AAc?$AAh?$AA?9?$AAc?$AAa?$AAn?$AAa?$AAd?$AAi?$AAa?$AAn?$AA?$AA@ 1003fb28     libucrt:get_qualified_locale.obj
 0002:00008b48       ??_C@_1CE@MGKCNLGN@?$AAf?$AAr?$AAe?$AAn?$AAc?$AAh?$AA?9?$AAl?$AAu?$AAx?$AAe?$AAm?$AAb?$AAo?$AAu?$AAr?$AAg?$AA?$AA@ 1003fb48     libucrt:get_qualified_locale.obj
 0002:00008b6c       ??_C@_1BK@CEGEAILM@?$AAf?$AAr?$AAe?$AAn?$AAc?$AAh?$AA?9?$AAs?$AAw?$AAi?$AAs?$AAs?$AA?$AA@ 1003fb6c     libucrt:get_qualified_locale.obj
 0002:00008b88       ??_C@_1CA@PAFKEOCC@?$AAg?$AAe?$AAr?$AAm?$AAa?$AAn?$AA?9?$AAa?$AAu?$AAs?$AAt?$AAr?$AAi?$AAa?$AAn?$AA?$AA@ 1003fb88     libucrt:get_qualified_locale.obj
 0002:00008ba8       ??_C@_1CI@HCFHGOFD@?$AAg?$AAe?$AAr?$AAm?$AAa?$AAn?$AA?9?$AAl?$AAi?$AAc?$AAh?$AAt?$AAe?$AAn?$AAs?$AAt?$AAe?$AAi?$AAn?$AA?$AA@ 1003fba8     libucrt:get_qualified_locale.obj
 0002:00008bd0       ??_C@_1CE@FEDDNPDG@?$AAg?$AAe?$AAr?$AAm?$AAa?$AAn?$AA?9?$AAl?$AAu?$AAx?$AAe?$AAm?$AAb?$AAo?$AAu?$AAr?$AAg?$AA?$AA@ 1003fbd0     libucrt:get_qualified_locale.obj
 0002:00008bf4       ??_C@_1BK@LIMINNMN@?$AAg?$AAe?$AAr?$AAm?$AAa?$AAn?$AA?9?$AAs?$AAw?$AAi?$AAs?$AAs?$AA?$AA@ 1003fbf4     libucrt:get_qualified_locale.obj
 0002:00008c10       ??_C@_1BM@LGMDBEPD@?$AAi?$AAr?$AAi?$AAs?$AAh?$AA?9?$AAe?$AAn?$AAg?$AAl?$AAi?$AAs?$AAh?$AA?$AA@ 1003fc10     libucrt:get_qualified_locale.obj
 0002:00008c2c       ??_C@_1BM@NNCFBAEE@?$AAi?$AAt?$AAa?$AAl?$AAi?$AAa?$AAn?$AA?9?$AAs?$AAw?$AAi?$AAs?$AAs?$AA?$AA@ 1003fc2c     libucrt:get_qualified_locale.obj
 0002:00008c48       ??_C@_1BE@FEDJNPIB@?$AAn?$AAo?$AAr?$AAw?$AAe?$AAg?$AAi?$AAa?$AAn?$AA?$AA@ 1003fc48     libucrt:get_qualified_locale.obj
 0002:00008c5c       ??_C@_1CC@CILKDEIE@?$AAn?$AAo?$AAr?$AAw?$AAe?$AAg?$AAi?$AAa?$AAn?$AA?9?$AAb?$AAo?$AAk?$AAm?$AAa?$AAl?$AA?$AA@ 1003fc5c     libucrt:get_qualified_locale.obj
 0002:00008c80       ??_C@_1CE@DHMMHEPL@?$AAn?$AAo?$AAr?$AAw?$AAe?$AAg?$AAi?$AAa?$AAn?$AA?9?$AAn?$AAy?$AAn?$AAo?$AAr?$AAs?$AAk?$AA?$AA@ 1003fc80     libucrt:get_qualified_locale.obj
 0002:00008ca4       ??_C@_1CK@OPNMHECD@?$AAp?$AAo?$AAr?$AAt?$AAu?$AAg?$AAu?$AAe?$AAs?$AAe?$AA?9?$AAb?$AAr?$AAa?$AAz?$AAi?$AAl?$AAi?$AAa?$AAn?$AA?$AA@ 1003fca4     libucrt:get_qualified_locale.obj
 0002:00008cd0       ??_C@_1CE@KEEHCDB@?$AAs?$AAp?$AAa?$AAn?$AAi?$AAs?$AAh?$AA?9?$AAa?$AAr?$AAg?$AAe?$AAn?$AAt?$AAi?$AAn?$AAa?$AA?$AA@ 1003fcd0     libucrt:get_qualified_locale.obj
 0002:00008cf4       ??_C@_1CA@GIAOLHJD@?$AAs?$AAp?$AAa?$AAn?$AAi?$AAs?$AAh?$AA?9?$AAb?$AAo?$AAl?$AAi?$AAv?$AAi?$AAa?$AA?$AA@ 1003fcf4     libucrt:get_qualified_locale.obj
 0002:00008d14       ??_C@_1BM@OJNDFNPD@?$AAs?$AAp?$AAa?$AAn?$AAi?$AAs?$AAh?$AA?9?$AAc?$AAh?$AAi?$AAl?$AAe?$AA?$AA@ 1003fd14     libucrt:get_qualified_locale.obj
 0002:00008d30       ??_C@_1CC@OCOLPALL@?$AAs?$AAp?$AAa?$AAn?$AAi?$AAs?$AAh?$AA?9?$AAc?$AAo?$AAl?$AAo?$AAm?$AAb?$AAi?$AAa?$AA?$AA@ 1003fd30     libucrt:get_qualified_locale.obj
 0002:00008d54       ??_C@_1CG@BPOFMKBB@?$AAs?$AAp?$AAa?$AAn?$AAi?$AAs?$AAh?$AA?9?$AAc?$AAo?$AAs?$AAt?$AAa?$AA?5?$AAr?$AAi?$AAc?$AAa?$AA?$AA@ 1003fd54     libucrt:get_qualified_locale.obj
 0002:00008d7c       ??_C@_1DG@IGOBAPBB@?$AAs?$AAp?$AAa?$AAn?$AAi?$AAs?$AAh?$AA?9?$AAd?$AAo?$AAm?$AAi?$AAn?$AAi?$AAc?$AAa?$AAn?$AA?5?$AAr?$AAe?$AAp?$AAu?$AAb?$AAl?$AAi?$AAc?$AA?$AA@ 1003fd7c     libucrt:get_qualified_locale.obj
 0002:00008db4       ??_C@_1CA@JHAPGEGI@?$AAs?$AAp?$AAa?$AAn?$AAi?$AAs?$AAh?$AA?9?$AAe?$AAc?$AAu?$AAa?$AAd?$AAo?$AAr?$AA?$AA@ 1003fdb4     libucrt:get_qualified_locale.obj
 0002:00008dd4       ??_C@_1CI@LAPALJPP@?$AAs?$AAp?$AAa?$AAn?$AAi?$AAs?$AAh?$AA?9?$AAe?$AAl?$AA?5?$AAs?$AAa?$AAl?$AAv?$AAa?$AAd?$AAo?$AAr?$AA?$AA@ 1003fdd4     libucrt:get_qualified_locale.obj
 0002:00008dfc       ??_C@_1CE@PDGBOFOM@?$AAs?$AAp?$AAa?$AAn?$AAi?$AAs?$AAh?$AA?9?$AAg?$AAu?$AAa?$AAt?$AAe?$AAm?$AAa?$AAl?$AAa?$AA?$AA@ 1003fdfc     libucrt:get_qualified_locale.obj
 0002:00008e20       ??_C@_1CC@NBEBAODI@?$AAs?$AAp?$AAa?$AAn?$AAi?$AAs?$AAh?$AA?9?$AAh?$AAo?$AAn?$AAd?$AAu?$AAr?$AAa?$AAs?$AA?$AA@ 1003fe20     libucrt:get_qualified_locale.obj
 0002:00008e44       ??_C@_1CA@LLKGHBMF@?$AAs?$AAp?$AAa?$AAn?$AAi?$AAs?$AAh?$AA?9?$AAm?$AAe?$AAx?$AAi?$AAc?$AAa?$AAn?$AA?$AA@ 1003fe44     libucrt:get_qualified_locale.obj
 0002:00008e64       ??_C@_1BO@LKNDOIGD@?$AAs?$AAp?$AAa?$AAn?$AAi?$AAs?$AAh?$AA?9?$AAm?$AAo?$AAd?$AAe?$AAr?$AAn?$AA?$AA@ 1003fe64     libucrt:get_qualified_locale.obj
 0002:00008e84       ??_C@_1CE@NMDMOEEB@?$AAs?$AAp?$AAa?$AAn?$AAi?$AAs?$AAh?$AA?9?$AAn?$AAi?$AAc?$AAa?$AAr?$AAa?$AAg?$AAu?$AAa?$AA?$AA@ 1003fe84     libucrt:get_qualified_locale.obj
 0002:00008ea8       ??_C@_1BO@LLCBEJGB@?$AAs?$AAp?$AAa?$AAn?$AAi?$AAs?$AAh?$AA?9?$AAp?$AAa?$AAn?$AAa?$AAm?$AAa?$AA?$AA@ 1003fea8     libucrt:get_qualified_locale.obj
 0002:00008ec8       ??_C@_1CC@FKPGGIHO@?$AAs?$AAp?$AAa?$AAn?$AAi?$AAs?$AAh?$AA?9?$AAp?$AAa?$AAr?$AAa?$AAg?$AAu?$AAa?$AAy?$AA?$AA@ 1003fec8     libucrt:get_qualified_locale.obj
 0002:00008eec       ??_C@_1BK@CDEIHOOP@?$AAs?$AAp?$AAa?$AAn?$AAi?$AAs?$AAh?$AA?9?$AAp?$AAe?$AAr?$AAu?$AA?$AA@ 1003feec     libucrt:get_qualified_locale.obj
 0002:00008f08       ??_C@_1CI@GAHAKKGP@?$AAs?$AAp?$AAa?$AAn?$AAi?$AAs?$AAh?$AA?9?$AAp?$AAu?$AAe?$AAr?$AAt?$AAo?$AA?5?$AAr?$AAi?$AAc?$AAo?$AA?$AA@ 1003ff08     libucrt:get_qualified_locale.obj
 0002:00008f30       ??_C@_1CA@NKJBCAGP@?$AAs?$AAp?$AAa?$AAn?$AAi?$AAs?$AAh?$AA?9?$AAu?$AAr?$AAu?$AAg?$AAu?$AAa?$AAy?$AA?$AA@ 1003ff30     libucrt:get_qualified_locale.obj
 0002:00008f50       ??_C@_1CE@ODILCONM@?$AAs?$AAp?$AAa?$AAn?$AAi?$AAs?$AAh?$AA?9?$AAv?$AAe?$AAn?$AAe?$AAz?$AAu?$AAe?$AAl?$AAa?$AA?$AA@ 1003ff50     libucrt:get_qualified_locale.obj
 0002:00008f74       ??_C@_1CA@OBNMCGFO@?$AAs?$AAw?$AAe?$AAd?$AAi?$AAs?$AAh?$AA?9?$AAf?$AAi?$AAn?$AAl?$AAa?$AAn?$AAd?$AA?$AA@ 1003ff74     libucrt:get_qualified_locale.obj
 0002:00008f94       ??_C@_1M@PIPDDPPI@?$AAs?$AAw?$AAi?$AAs?$AAs?$AA?$AA@ 1003ff94     libucrt:get_qualified_locale.obj
 0002:00008fa0       ??_C@_15GMFIMNFM@?$AAu?$AAs?$AA?$AA@ 1003ffa0     libucrt:get_qualified_locale.obj
 0002:00008fa8       ??_C@_17HAEBFAGL@?$AAu?$AAs?$AAa?$AA?$AA@ 1003ffa8     libucrt:get_qualified_locale.obj
 0002:00008fb0       ??_C@_1BA@DPFJEPHB@?$AAa?$AAm?$AAe?$AAr?$AAi?$AAc?$AAa?$AA?$AA@ 1003ffb0     libucrt:get_qualified_locale.obj
 0002:00008fc0       ??_C@_1BA@ELOGGFK@?$AAb?$AAr?$AAi?$AAt?$AAa?$AAi?$AAn?$AA?$AA@ 1003ffc0     libucrt:get_qualified_locale.obj
 0002:00008fd0       ??_C@_1M@GHBGIGDA@?$AAc?$AAh?$AAi?$AAn?$AAa?$AA?$AA@ 1003ffd0     libucrt:get_qualified_locale.obj
 0002:00008fdc       ??_C@_1M@NCHEJOPO@?$AAc?$AAz?$AAe?$AAc?$AAh?$AA?$AA@ 1003ffdc     libucrt:get_qualified_locale.obj
 0002:00008fe8       ??_C@_1BA@BKPAPBLA@?$AAe?$AAn?$AAg?$AAl?$AAa?$AAn?$AAd?$AA?$AA@ 1003ffe8     libucrt:get_qualified_locale.obj
 0002:00008ff8       ??_C@_1BM@HKBCKIPC@?$AAg?$AAr?$AAe?$AAa?$AAt?$AA?5?$AAb?$AAr?$AAi?$AAt?$AAa?$AAi?$AAn?$AA?$AA@ 1003fff8     libucrt:get_qualified_locale.obj
 0002:00009014       ??_C@_1BA@PPCHPGJB@?$AAh?$AAo?$AAl?$AAl?$AAa?$AAn?$AAd?$AA?$AA@ 10040014     libucrt:get_qualified_locale.obj
 0002:00009024       ??_C@_1BE@JBMPEGDG@?$AAh?$AAo?$AAn?$AAg?$AA?9?$AAk?$AAo?$AAn?$AAg?$AA?$AA@ 10040024     libucrt:get_qualified_locale.obj
 0002:00009038       ??_C@_1BI@KOELBBPJ@?$AAn?$AAe?$AAw?$AA?9?$AAz?$AAe?$AAa?$AAl?$AAa?$AAn?$AAd?$AA?$AA@ 10040038     libucrt:get_qualified_locale.obj
 0002:00009050       ??_C@_15HIEBHAIO@?$AAn?$AAz?$AA?$AA@ 10040050     libucrt:get_qualified_locale.obj
 0002:00009058       ??_C@_1BC@CHBCPFPI@?$AAp?$AAr?$AA?5?$AAc?$AAh?$AAi?$AAn?$AAa?$AA?$AA@ 10040058     libucrt:get_qualified_locale.obj
 0002:0000906c       ??_C@_1BC@JAOIIFKD@?$AAp?$AAr?$AA?9?$AAc?$AAh?$AAi?$AAn?$AAa?$AA?$AA@ 1004006c     libucrt:get_qualified_locale.obj
 0002:00009080       ??_C@_1BI@BEHPPHKC@?$AAp?$AAu?$AAe?$AAr?$AAt?$AAo?$AA?9?$AAr?$AAi?$AAc?$AAo?$AA?$AA@ 10040080     libucrt:get_qualified_locale.obj
 0002:00009098       ??_C@_1O@PAEOFKDI@?$AAs?$AAl?$AAo?$AAv?$AAa?$AAk?$AA?$AA@ 10040098     libucrt:get_qualified_locale.obj
 0002:000090a8       ??_C@_1BK@FIHMCKAM@?$AAs?$AAo?$AAu?$AAt?$AAh?$AA?5?$AAa?$AAf?$AAr?$AAi?$AAc?$AAa?$AA?$AA@ 100400a8     libucrt:get_qualified_locale.obj
 0002:000090c4       ??_C@_1BI@NAEOODKB@?$AAs?$AAo?$AAu?$AAt?$AAh?$AA?5?$AAk?$AAo?$AAr?$AAe?$AAa?$AA?$AA@ 100400c4     libucrt:get_qualified_locale.obj
 0002:000090dc       ??_C@_1BK@FBDGGIFF@?$AAs?$AAo?$AAu?$AAt?$AAh?$AA?9?$AAa?$AAf?$AAr?$AAi?$AAc?$AAa?$AA?$AA@ 100400dc     libucrt:get_qualified_locale.obj
 0002:000090f8       ??_C@_1BI@GHLEJDPK@?$AAs?$AAo?$AAu?$AAt?$AAh?$AA?9?$AAk?$AAo?$AAr?$AAe?$AAa?$AA?$AA@ 100400f8     libucrt:get_qualified_locale.obj
 0002:00009110       ??_C@_1CE@PLHLOMJF@?$AAt?$AAr?$AAi?$AAn?$AAi?$AAd?$AAa?$AAd?$AA?5?$AA?$CG?$AA?5?$AAt?$AAo?$AAb?$AAa?$AAg?$AAo?$AA?$AA@ 10040110     libucrt:get_qualified_locale.obj
 0002:00009134       ??_C@_1BO@MODIMHHI@?$AAu?$AAn?$AAi?$AAt?$AAe?$AAd?$AA?9?$AAk?$AAi?$AAn?$AAg?$AAd?$AAo?$AAm?$AA?$AA@ 10040134     libucrt:get_qualified_locale.obj
 0002:00009154       ??_C@_1BM@FFHJONBJ@?$AAu?$AAn?$AAi?$AAt?$AAe?$AAd?$AA?9?$AAs?$AAt?$AAa?$AAt?$AAe?$AAs?$AA?$AA@ 10040154     libucrt:get_qualified_locale.obj
 0002:00009170       ___acrt_rg_language        10040170     libucrt:get_qualified_locale.obj
 0002:0000947c       ___acrt_rg_language_count  1004047c     libucrt:get_qualified_locale.obj
 0002:00009480       ___acrt_rg_country         10040480     libucrt:get_qualified_locale.obj
 0002:00009594       ___acrt_rg_country_count   10040594     libucrt:get_qualified_locale.obj
 0002:00009598       ??_C@_17DNCLJFIF@?$AAA?$AAC?$AAP?$AA?$AA@ 10040598     libucrt:get_qualified_locale.obj
 0002:000095a0       ??_C@_17CIKBIHLH@?$AAO?$AAC?$AAP?$AA?$AA@ 100405a0     libucrt:get_qualified_locale.obj
 0002:000095a8       ___rglangidNotDefault      100405a8     libucrt:getqloc_downlevel.obj
 0002:000095c0       ___acrt_pow_rcp_t1         100405c0     libucrt:pow_tables.obj
 0002:000099d0       ___acrt_pow_log2_t1        100409d0     libucrt:pow_tables.obj
 0002:0000a1e0       ___acrt_pow_rcp_t2         100411e0     libucrt:pow_tables.obj
 0002:0000a5f0       ___acrt_pow_log2_t2        100415f0     libucrt:pow_tables.obj
 0002:0000ae00       ___acrt_pow_rcp_t3         10041e00     libucrt:pow_tables.obj
 0002:0000b610       ___acrt_pow_log2_t3        10042610     libucrt:pow_tables.obj
 0002:0000c620       ___acrt_pow_clv            10043620     libucrt:pow_tables.obj
 0002:0000c640       ___acrt_pow_exp2_tbl       10043640     libucrt:pow_tables.obj
 0002:0000ce98       ??_C@_1BA@BALFACEM@?$AAC?$AAO?$AAN?$AAO?$AAU?$AAT?$AA$?$AA?$AA@ 10043e98     libucrt:initcon.obj
 0002:0000cfb0       ___acrt_log10_table_t      10043fb0     libucrt:log10_tables.obj
 0002:0000d3c0       ___acrt_log10_table_cb     100443c0     libucrt:log10_tables.obj
 0002:0000d7d0       ??_C@_0BC@BDKFLDHL@unknown?5exception@ 100447d0     java.obj
 0002:0000d7e4       ??_C@_0BA@ELKIONDK@bad?5locale?5name@ 100447e4     java.obj
 0002:0000d7f4       ??_C@_05LAPONLG@false@     100447f4     java.obj
 0002:0000d7fc       ??_C@_04LOAJBDKD@true@     100447fc     java.obj
 0002:0000d801       ??_C@_00CNPNBAHC@@         10044801     java.obj
 0002:0000d804       ??_C@_02LMMGGCAJ@?3?5@     10044804     java.obj
 0002:0000d808       ??_C@_08LLGCOLLL@iostream@ 10044808     java.obj
 0002:0000d814       ??_C@_0BG@PADBLCHM@iostream?5stream?5error@ 10044814     java.obj
 0002:0000d82c       ??_C@_0BF@PHHKMMFD@ios_base?3?3badbit?5set@ 1004482c     java.obj
 0002:0000d844       ??_C@_0BG@FMKFHCIL@ios_base?3?3failbit?5set@ 10044844     java.obj
 0002:0000d85c       ??_C@_0BF@OOHOMBOF@ios_base?3?3eofbit?5set@ 1004485c     java.obj
 0002:0000d874       ??_C@_1DG@OKCGPKIB@?$AAp?$AAe?$AAr?$AAs?$AAi?$AAs?$AAt?$AAe?$AAn?$AAt?$AA?$CI?$AA?$CJ?$AA?4?$AAI?$AAs@ 10044874     java.obj
 0002:0000d8ac       ??_C@_1CO@EGNPJLKI@?$AAp?$AAe?$AAr?$AAs?$AAi?$AAs?$AAt?$AAe?$AAn?$AAt?$AA?$CI?$AA?$CJ?$AA?4?$AAI?$AAs@ 100448ac     java.obj
 0002:0000d8dc       ??_C@_1DA@FBGAEOIO@?$AA?$CB?$AAp?$AAe?$AAr?$AAs?$AAi?$AAs?$AAt?$AAe?$AAn?$AAt?$AA?$CI?$AA?$CJ?$AA?4?$AAI@ 100448dc     java.obj
 0002:0000d90c       ??_C@_1CO@JCKLEFMA@?$AA?$CB?$AAp?$AAe?$AAr?$AAs?$AAi?$AAs?$AAt?$AAe?$AAn?$AAt?$AA?$CI?$AA?$CJ?$AA?4?$AAI@ 1004490c     java.obj
 0002:0000d93c       ??_C@_1BE@GMLLOIPJ@?$AAr?$AAe?$AAf?$AAs?$AA_?$AA?5?$AA?$DO?$AA?5?$AA0@ 1004493c     java.obj
 0002:0000d950       ??_C@_1CC@GBFLAAPF@?$AAw?$AAr?$AAa?$AAp?$AA?9?$AA?$DO?$AAr?$AAe?$AAf?$AAs?$AA_?$AA?5?$AA?$DN?$AA?$DN?$AA?5@ 10044950     java.obj
 0002:0000d974       ??_C@_0BA@JFNIOLAK@string?5too?5long@ 10044974     java.obj
 0002:0000d988       ??_C@_1KG@KMNLFACO@?$AAc?$AA?3?$AA?2?$AAu?$AAs?$AAe?$AAr?$AAs?$AA?2?$AAu?$AAs?$AAu?$AAa?$AAr?$AAi@ 10044988     java.obj
 0002:0000da30       ??_C@_1EC@MGGLMBLC@?$AAo?$AAb?$AAj?$AAe?$AAc?$AAt?$AA?9?$AA?$DO?$AAI?$AAn?$AAt?$AAe?$AAr?$AAn?$AAa@ 10044a30     java.obj
 0002:0000da74       ??_C@_1DI@ELDBKNAK@?$AAw?$AAr?$AAa?$AAp?$AA?9?$AA?$DO?$AAh?$AAa?$AAn?$AAd?$AAl?$AAe?$AA_?$AA?4?$AAI@ 10044a74     java.obj
 0002:0000daac       ??_C@_04IEJOJGGI@Java@     10044aac     java.obj
 0002:0000dab4       ??_C@_0P@HCMNKIPB@getClassLoader@ 10044ab4     java.obj
 0002:0000dac4       ??_C@_0M@KHIMJEPP@newInstance@ 10044ac4     java.obj
 0002:0000dad0       ??_C@_0BA@JOIGHDJC@newInstanceSync@ 10044ad0     java.obj
 0002:0000dae0       ??_C@_08HEFFFGEH@newProxy@ 10044ae0     java.obj
 0002:0000daec       ??_C@_0BB@LOMKMAFJ@callStaticMethod@ 10044aec     java.obj
 0002:0000db00       ??_C@_0BF@FPHLPDGE@callStaticMethodSync@ 10044b00     java.obj
 0002:0000db18       ??_C@_0L@JDEHCHCN@callMethod@ 10044b18     java.obj
 0002:0000db24       ??_C@_0P@NMHJLIPJ@callMethodSync@ 10044b24     java.obj
 0002:0000db34       ??_C@_0O@BEODJHBB@findClassSync@ 10044b34     java.obj
 0002:0000db44       ??_C@_08NFLJAME@newArray@  10044b44     java.obj
 0002:0000db50       ??_C@_07OPGDHHHF@newByte@  10044b50     java.obj
 0002:0000db58       ??_C@_08GAKIFAFB@newShort@ 10044b58     java.obj
 0002:0000db64       ??_C@_07GKGIFHD@newLong@   10044b64     java.obj
 0002:0000db6c       ??_C@_07CFMIILDC@newChar@  10044b6c     java.obj
 0002:0000db74       ??_C@_08NIFDHIJA@newFloat@ 10044b74     java.obj
 0002:0000db80       ??_C@_09NDIGOOFM@newDouble@ 10044b80     java.obj
 0002:0000db8c       ??_C@_0BE@NNFJNPLG@getStaticFieldValue@ 10044b8c     java.obj
 0002:0000dba0       ??_C@_0BE@HDHCJPMK@setStaticFieldValue@ 10044ba0     java.obj
 0002:0000dbb4       ??_C@_0L@BEMPJHBM@instanceOf@ 10044bb4     java.obj
 0002:0000dbc0       ??_C@_09FEBBBODM@classpath@ 10044bc0     java.obj
 0002:0000dbcc       ??_C@_07FOPBDDAL@options@  10044bcc     java.obj
 0002:0000dbd4       ??_C@_07FGLBLJOD@Not?5Set@ 10044bd4     java.obj
 0002:0000dbdc       ??_C@_0BG@HMBHKPAI@nativeBindingLocation@ 10044bdc     java.obj
 0002:0000dbf4       ??_C@_0N@GCMPHNLN@asyncOptions@ 10044bf4     java.obj
 0002:0000dc04       ??_C@_04FMMAIMKB@Sync@     10044c04     java.obj
 0002:0000dc10       ??_C@_1HK@EFJLNJCF@?$AAc?$AA?3?$AA?2?$AAu?$AAs?$AAe?$AAr?$AAs?$AA?2?$AAu?$AAs?$AAu?$AAa?$AAr?$AAi@ 10044c10     java.obj
 0002:0000dc8c       ??_C@_1CC@NBFFNICJ@?$AAr?$AAe?$AAs?$AAu?$AAl?$AAt?$AA?9?$AA?$DO?$AAI?$AAs?$AAN?$AAu?$AAl?$AAl?$AA?$CI@ 10044c8c     java.obj
 0002:0000dcb0       ??_C@_07MALOAKCI@invalid@  10044cb0     java.obj
 0002:0000dcb8       ??_C@_0L@NCCMGPOG@syncSuffix@ 10044cb8     java.obj
 0002:0000dcc4       ??_C@_0M@HBIJDIAC@asyncSuffix@ 10044cc4     java.obj
 0002:0000dcd0       ??_C@_0O@ECNPOMLK@promiseSuffix@ 10044cd0     java.obj
 0002:0000dce0       ??_C@_09LCMDGPFJ@promisify@ 10044ce0     java.obj
 0002:0000dcec       ??_C@_0CK@LPEAKICD@asyncOptions?4promisify?5must?5be?5@ 10044cec     java.obj
 0002:0000dd18       ??_C@_1DA@LHHBPKPC@?$AAp?$AAr?$AAo?$AAm?$AAi?$AAs?$AAi?$AAf?$AAy?$AA?9?$AA?$DO?$AAI?$AAs?$AAF?$AAu@ 10044d18     java.obj
 0002:0000dd48       ??_C@_1DM@JCMNABMN@?$AAm?$AA_?$AAS?$AAy?$AAn?$AAc?$AAS?$AAu?$AAf?$AAf?$AAi?$AAx?$AA?5?$AA?$CB?$AA?$DN@ 10044d48     java.obj
 0002:0000dd88       ??_C@_1EA@EPKEJAMA@?$AAm?$AA_?$AAS?$AAy?$AAn?$AAc?$AAS?$AAu?$AAf?$AAf?$AAi?$AAx?$AA?5?$AA?$CB?$AA?$DN@ 10044d88     java.obj
 0002:0000ddc8       ??_C@_1EC@HFICELCO@?$AAm?$AA_?$AAA?$AAs?$AAy?$AAn?$AAc?$AAS?$AAu?$AAf?$AAf?$AAi?$AAx?$AA?5?$AA?$CB@ 10044dc8     java.obj
 0002:0000de0c       ??_C@_0BD@HCEIMOC@?9Djava?4class?4path?$DN@ 10044e0c     java.obj
 0002:0000de20       ??_C@_0BL@GDBAJBF@Classpath?5must?5be?5an?5array@ 10044e20     java.obj
 0002:0000de3c       ??_C@_01ICJEACDI@?$DL@     10044e3c     java.obj
 0002:0000de40       ??_C@_0CE@KMKKCBKL@Classpath?5must?5only?5contain?5str@ 10044e40     java.obj
 0002:0000de64       ??_C@_0BJ@GDEDNOJE@options?5must?5be?5an?5array@ 10044e64     java.obj
 0002:0000de80       ??_C@_0CC@PCJCBFEJ@options?5must?5only?5contain?5strin@ 10044e80     java.obj
 0002:0000dea4       ??_C@_0N@PBKJIPPM@onJvmCreated@ 10044ea4     java.obj
 0002:0000deb4       ??_C@_0BK@JNPFHPGF@Invalid?5call?5to?5accessor?5@ 10044eb4     java.obj
 0002:0000ded0       ??_C@_0CI@GEBBDOEH@?5after?5calling?5any?5other?5java?5f@ 10044ed0     java.obj
 0002:0000def8       ??_C@_0M@GLLEEBIE@Cannot?5set?5@ 10044ef8     java.obj
 0002:0000df04       ??_C@_0BG@HADLBHEN@java?1lang?1ClassLoader@ 10044f04     java.obj
 0002:0000df1c       ??_C@_0BK@JHGGPLEI@?$CI?$CJLjava?1lang?1ClassLoader?$DL@ 10044f1c     java.obj
 0002:0000df38       ??_C@_0BF@JAHFOJGB@getSystemClassLoader@ 10044f38     java.obj
 0002:0000df50       ??_C@_0BC@KOHJHMGO@?5must?5be?5a?5string@ 10044f50     java.obj
 0002:0000df64       ??_C@_09CPBLMGMN@Argument?5@ 10044f64     java.obj
 0002:0000df70       ??_C@_0BG@GJHLFMKD@Could?5not?5find?5class?5@ 10044f70     java.obj
 0002:0000df88       ??_C@_0ED@IFPPEJAM@?8?5called?5without?5a?5callback?5did@ 10044f88     java.obj
 0002:0000dfcc       ??_C@_0BJ@EGKHNKFO@?$CCConstructor?5for?5class?5?8@ 10044fcc     java.obj
 0002:0000dfe8       ??_C@_0BI@OIDMFLKO@Could?5not?5create?5class?5@ 10044fe8     java.obj
 0002:0000e000       ??_C@_0BD@NNKJDKMD@?5must?5be?5an?5object@ 10045000     java.obj
 0002:0000e014       ??_C@_0BL@MGNPHNLH@node?4NodeDynamicProxyClass@ 10045014     java.obj
 0002:0000e030       ??_C@_0DC@MDKGGMKP@Could?5not?5create?5class?5node?1Nod@ 10045030     java.obj
 0002:0000e064       ??_C@_0BB@DDFKOHA@java?1lang?1Object@ 10045064     java.obj
 0002:0000e078       ??_C@_0EA@BECNBOMM@Could?5not?5find?5constructor?5for?5@ 10045078     java.obj
 0002:0000e0b8       ??_C@_0BO@OHICDEOH@java?1lang?1reflect?1Constructor@ 100450b8     java.obj
 0002:0000e0d8       ??_C@_0CI@PPOKABKL@?$CI?$FLLjava?1lang?1Object?$DL?$CJLjava?1lang@ 100450d8     java.obj
 0002:0000e100       ??_C@_0BF@GBIDGNFL@Error?5creating?5class@ 10045100     java.obj
 0002:0000e118       ??_C@_0BK@FBCLGGGJ@Could?5not?5find?5interface?5@ 10045118     java.obj
 0002:0000e134       ??_C@_0BA@JJLOPNCP@java?1lang?1Class@ 10045134     java.obj
 0002:0000e144       ??_C@_0CH@HIJNACCB@Could?5not?5create?5class?5array?5fo@ 10045144     java.obj
 0002:0000e16c       ??_C@_1M@HLGKFCJM@?$AAf?$AAa?$AAl?$AAs?$AAe@ 1004516c     java.obj
 0002:0000e178       ??_C@_0BE@IIFEGCLG@?$CI?$CJLjava?1lang?1Class?$DL@ 10045178     java.obj
 0002:0000e18c       ??_C@_08KFOJNDAP@getClass@ 1004518c     java.obj
 0002:0000e198       ??_C@_0CE@IEAMKNOO@Could?5not?5get?5classloader?5for?5P@ 10045198     java.obj
 0002:0000e1bc       ??_C@_0BI@DHIEFHKE@java?1lang?1reflect?1Proxy@ 100451bc     java.obj
 0002:0000e1d8       ??_C@_0GD@GHAHJLBB@?$CILjava?1lang?1ClassLoader?$DL?$FLLjava?1@ 100451d8     java.obj
 0002:0000e23c       ??_C@_0BB@OEJPHONA@newProxyInstance@ 1004523c     java.obj
 0002:0000e250       ??_C@_0CH@HGJMIEIM@Error?5creating?5java?4lang?4reflec@ 10045250     java.obj
 0002:0000e278       ??_C@_0BB@HNDIHHHF@?$CCStatic?5method?5?8@ 10045278     java.obj
 0002:0000e28c       ??_C@_09NDNEIBAK@?$CCmethod?5?8@ 1004528c     java.obj
 0002:0000e298       ??_C@_0BC@ILENGEMP@?5must?5be?5an?5array@ 10045298     java.obj
 0002:0000e2ac       ??_C@_04IHGKJMLH@byte@     100452ac     java.obj
 0002:0000e2b4       ??_C@_0P@CCHCOPNE@java?1lang?1Byte@ 100452b4     java.obj
 0002:0000e2c4       ??_C@_03EOOOPHNK@?$CI?$CJB@ 100452c4     java.obj
 0002:0000e2c8       ??_C@_09CBDGACJH@byteValue@ 100452c8     java.obj
 0002:0000e2d4       ??_C@_04ENMBGAPA@char@     100452d4     java.obj
 0002:0000e2dc       ??_C@_0BB@FLFAIHG@java?1lang?1String@ 100452dc     java.obj
 0002:0000e2f0       ??_C@_04MCLIBKDJ@?$CII?$CJC@ 100452f0     java.obj
 0002:0000e2f8       ??_C@_06GDAFJGCB@charAt@   100452f8     java.obj
 0002:0000e300       ??_C@_05BFKKPKCG@short@    10045300     java.obj
 0002:0000e308       ??_C@_0BA@MBLENCLH@java?1lang?1Short@ 10045308     java.obj
 0002:0000e318       ??_C@_03BNDHNEMK@?$CI?$CJS@ 10045318     java.obj
 0002:0000e31c       ??_C@_0L@BMFNKDA@shortValue@ 1004531c     java.obj
 0002:0000e328       ??_C@_06BNJCAIGJ@double@   10045328     java.obj
 0002:0000e330       ??_C@_0BB@JKEOLFJD@java?1lang?1Double@ 10045330     java.obj
 0002:0000e344       ??_C@_03BILEFAFM@?$CI?$CJD@ 10045344     java.obj
 0002:0000e348       ??_C@_0M@BFKIPFKE@doubleValue@ 10045348     java.obj
 0002:0000e354       ??_C@_03JBIPMCLC@int@      10045354     java.obj
 0002:0000e358       ??_C@_0BC@OHJKABOO@java?1lang?1Integer@ 10045358     java.obj
 0002:0000e36c       ??_C@_03KNBKCOBB@?$CI?$CJI@ 1004536c     java.obj
 0002:0000e370       ??_C@_08HBLFFCOK@intValue@ 10045370     java.obj
 0002:0000e37c       ??_C@_05KNFBNCOH@float@    1004537c     java.obj
 0002:0000e384       ??_C@_0BA@HJEPPKHG@java?1lang?1Float@ 10045384     java.obj
 0002:0000e394       ??_C@_03CKICDCNO@?$CI?$CJF@ 10045394     java.obj
 0002:0000e398       ??_C@_0L@CFLLCEAL@floatValue@ 10045398     java.obj
 0002:0000e3a4       ??_C@_07GOBOHMJA@boolean@  100453a4     java.obj
 0002:0000e3ac       ??_C@_0BC@DDPBLLCP@java?1lang?1Boolean@ 100453ac     java.obj
 0002:0000e3c0       ??_C@_03MMPFGPID@?$CI?$CJZ@ 100453c0     java.obj
 0002:0000e3c4       ??_C@_0N@FIOMDIJC@booleanValue@ 100453c4     java.obj
 0002:0000e3d4       ??_C@_0M@EIDGGIEA@?$CC?5to?5array?4@ 100453d4     java.obj
 0002:0000e3e0       ??_C@_0BF@OHBAIGFN@Could?5not?5add?5item?5?$CC@ 100453e0     java.obj
 0002:0000e3f8       ??_C@_0BO@IBNPLJEO@newByte?5only?5takes?51?5argument@ 100453f8     java.obj
 0002:0000e418       ??_C@_0BM@NALPIJKI@Argument?51?5must?5be?5a?5number@ 10045418     java.obj
 0002:0000e434       ??_C@_04CCAMHLCM@?$CIB?$CJV@ 10045434     java.obj
 0002:0000e43c       ??_C@_06FALKBLGB@?$DMinit?$DO@ 1004543c     java.obj
 0002:0000e444       ??_C@_0BP@BODLCONB@newShort?5only?5takes?51?5argument@ 10045444     java.obj
 0002:0000e464       ??_C@_04MKKJELNG@?$CIS?$CJV@ 10045464     java.obj
 0002:0000e46c       ??_C@_0BO@FHMJOKEB@newLong?5only?5takes?51?5argument@ 1004546c     java.obj
 0002:0000e48c       ??_C@_0P@MLLHBNNC@java?1lang?1Long@ 1004548c     java.obj
 0002:0000e49c       ??_C@_04OHLIFDMD@?$CIJ?$CJV@ 1004549c     java.obj
 0002:0000e4a4       ??_C@_0BO@OKEOOKDB@newChar?5only?5takes?51?5argument@ 100454a4     java.obj
 0002:0000e4c4       ??_C@_0CM@KIHAAOLC@Argument?51?5must?5be?5a?5string?5of?5@ 100454c4     java.obj
 0002:0000e4f0       ??_C@_0CG@LFMFPHFN@Argument?51?5must?5be?5a?5number?5or?5@ 100454f0     java.obj
 0002:0000e518       ??_C@_0BE@GKIHCGPM@java?1lang?1Character@ 10045518     java.obj
 0002:0000e52c       ??_C@_04JKLABMEJ@?$CIC?$CJV@ 1004552c     java.obj
 0002:0000e534       ??_C@_0BP@OLNAMBA@newFloat?5only?5takes?51?5argument@ 10045534     java.obj
 0002:0000e554       ??_C@_04KNGOOMHL@?$CIF?$CJV@ 10045554     java.obj
 0002:0000e55c       ??_C@_0CA@NOCEFBLN@newDouble?5only?5takes?51?5argument@ 1004555c     java.obj
 0002:0000e57c       ??_C@_04HGHCEPA@?$CID?$CJV@ 1004557c     java.obj
 0002:0000e584       ??_C@_01BJJEKLCA@?$CC@     10045584     java.obj
 0002:0000e588       ??_C@_0N@DMLGIADO@?$CC?5on?5class?5?$CC@ 10045588     java.obj
 0002:0000e598       ??_C@_0BH@EGDDMDIO@Could?5not?5find?5field?5?$CC@ 10045598     java.obj
 0002:0000e5b0       ??_C@_0BI@HOMFJHGF@java?1lang?1reflect?1Field@ 100455b0     java.obj
 0002:0000e5c8       ??_C@_0CH@JHKCBJOB@?$CILjava?1lang?1Object?$DL?$CJLjava?1lang?1@ 100455c8     java.obj
 0002:0000e5f0       ??_C@_03HNAFFKGA@get@      100455f0     java.obj
 0002:0000e5f4       ??_C@_0L@IEFMJMCE@?5on?5class?5@ 100455f4     java.obj
 0002:0000e600       ??_C@_0BF@PILOCEAG@Could?5not?5get?5field?5@ 10045600     java.obj
 0002:0000e618       ??_C@_0L@PPEBJNMH@?5arguments@ 10045618     java.obj
 0002:0000e624       ??_C@_0BO@JGBICHGA@setStaticFieldValue?5requires?5@ 10045624     java.obj
 0002:0000e644       ??_C@_0CI@PCHNGLLD@?$CILjava?1lang?1Object?$DLLjava?1lang?1O@ 10045644     java.obj
 0002:0000e66c       ??_C@_03KCHOJKKI@set@      1004566c     java.obj
 0002:0000e670       ??_C@_0BF@OGJBJDEP@Could?5not?5set?5field?5@ 10045670     java.obj
 0002:0000e688       ??_C@_0CA@EJBFMCPI@java?1lang?1IllegalStateException@ 10045688     java.obj
 0002:0000e6a8       ??_C@_0DB@OGILFKDO@Could?5not?5retrieve?5JNIEnv?3?5jvm?9@ 100456a8     java.obj
 0002:0000e6dc       ??_C@_0BM@LKJNLDJK@java?1lang?1NoSuchMethodError@ 100456dc     java.obj
 0002:0000e6f8       ??_C@_0BM@PDEBOCEF@Could?5not?5find?5js?5function?5@ 100456f8     java.obj
 0002:0000e714       ??_C@_0BD@JJHMIGBM@?5is?5not?5a?5function@ 10045714     java.obj
 0002:0000e728       ??_C@_0BF@FKKIDFOE@node?1NodeJsException@ 10045728     java.obj
 0002:0000e740       ??_C@_0BJ@JHEFKMOG@java?1lang?1reflect?1Method@ 10045740     java.obj
 0002:0000e75c       ??_C@_0BF@FOHFOJOB@?$CI?$CJLjava?1lang?1String?$DL@ 1004575c     java.obj
 0002:0000e774       ??_C@_07DFBCBEHO@getName@  10045774     java.obj
 0002:0000e77c       ??_C@_0BP@OHGCKAMB@dynamicProxyData?5was?5corrupted@ 1004577c     java.obj
 0002:0000e79c       ??_C@_02BBAHNLBA@?$CFp@    1004579c     java.obj
 0002:0000e7a0       ??_C@_02CLHGNPPK@Lu@       100457a0     java.obj
 0002:0000e7a4       ??_C@_02HIKPPMOK@Ld@       100457a4     java.obj
 0002:0000e7a8       ??_C@_02BDDLJJBK@lu@       100457a8     java.obj
 0002:0000e7ac       ??_C@_02EAOCLKAK@ld@       100457ac     java.obj
 0002:0000e7b0       ??_C@_02MDKMJEGG@eE@       100457b0     java.obj
 0002:0000e7b4       ??_C@_02OOPEBDOJ@pP@       100457b4     java.obj
 0002:0000e7b8       ??_C@_0BI@CFPLBAOH@invalid?5string?5position@ 100457b8     java.obj
 0002:0000e7d0       ??_C@_1CE@LNAGEONJ@?$AA?$CB?$AAo?$AAb?$AAj?$AAe?$AAc?$AAt?$AA?4?$AAI?$AAs?$AAE?$AAm?$AAp?$AAt?$AAy@ 100457d0     java.obj
 0002:0000e7f4       ??_7?$basic_streambuf@DU?$char_traits@D@std@@@std@@6B@ 100457f4     java.obj
 0002:0000e830       ??_7?$basic_ostringstream@DU?$char_traits@D@std@@V?$allocator@D@2@@std@@6B@ 10045830     java.obj
 0002:0000e834       ??_7_Iostream_error_category@std@@6B@ 10045834     java.obj
 0002:0000e84c       ??_7?$basic_ios@DU?$char_traits@D@std@@@std@@6B@ 1004584c     java.obj
 0002:0000e84c       ??_7ios_base@std@@6B@      1004584c     java.obj
 0002:0000e850       ??_7Java@@6B@              10045850     java.obj
 0002:0000e85c       ??_7exception@stdext@@6B@  1004585c     java.obj
 0002:0000e868       ??_7?$basic_stringbuf@DU?$char_traits@D@std@@V?$allocator@D@2@@std@@6B@ 10045868     java.obj
 0002:0000e8a4       ??_7ObjectWrap@Nan@@6B@    100458a4     java.obj
 0002:0000e8b0       ??_8?$basic_ostringstream@DU?$char_traits@D@std@@V?$allocator@D@2@@std@@7B@ 100458b0     java.obj
 0002:0000e8b8       ??_7?$basic_ostream@DU?$char_traits@D@std@@@std@@6B@ 100458b8     java.obj
 0002:0000e8bc       ??_7failure@ios_base@std@@6B@ 100458bc     java.obj
 0002:0000e8c8       ??_C@_09ONFNEIAH@nodeJava_@ 100458c8     javaObject.obj
 0002:0000e8d8       ??_C@_1IG@PJIKGAMB@?$AAc?$AA?3?$AA?2?$AAu?$AAs?$AAe?$AAr?$AAs?$AA?2?$AAu?$AAs?$AAu?$AAa?$AAr?$AAi@ 100458d8     javaObject.obj
 0002:0000e960       ??_C@_0FI@MKACDPJI@Promisified?5result?5is?5not?5a?5fun@ 10045960     javaObject.obj
 0002:0000e9b8       ??_C@_1CK@EKGLLGJA@?$AAr?$AAe?$AAs?$AAu?$AAl?$AAt?$AA?9?$AA?$DO?$AAI?$AAs?$AAF?$AAu?$AAn?$AAc?$AAt@ 100459b8     javaObject.obj
 0002:0000e9e4       ??_C@_07LJDBDAGJ@isArray@  100459e4     javaObject.obj
 0002:0000e9ec       ??_C@_06IJDLPEM@length@    100459ec     javaObject.obj
 0002:0000e9f4       ??_C@_0P@OFONBJKG@__isJavaObject@ 100459f4     javaObject.obj
 0002:0000ea04       ??_C@_08JCDFGHAO@toString@ 10045a04     javaObject.obj
 0002:0000ea10       ??_C@_09FBCFADKJ@?$CCMethod?5?8@ 10045a10     javaObject.obj
 0002:0000ea1c       ??_C@_0BI@EOIKJBCH@java?1lang?1reflect?1Array@ 10045a1c     javaObject.obj
 0002:0000ea34       ??_C@_0BG@FGABBFAG@?$CILjava?1lang?1Object?$DL?$CJI@ 10045a34     javaObject.obj
 0002:0000ea4c       ??_C@_09LEBNHFFA@getLength@ 10045a4c     javaObject.obj
 0002:0000ea58       ??_C@_09JKMDKKLK@?$CC?5for?5get@ 10045a58     javaObject.obj
 0002:0000ea64       ??_C@_09EFLIGKHC@?$CC?5for?5set@ 10045a64     javaObject.obj
 0002:0000ea70       ??_C@_0CI@PKDEJHEG@?$CILjava?1lang?1Object?$DLI?$CJLjava?1lang@ 10045a70     javaObject.obj
 0002:0000ea98       ??_C@_0BB@DFKFAGDA@NodeDynamicProxy@ 10045a98     javaObject.obj
 0002:0000eaac       ??_C@_05IPFNKGPP@unref@    10045aac     javaObject.obj
 0002:0000eab4       ??_C@_0BC@BPPNNGGK@invocationHandler@ 10045ab4     javaObject.obj
 0002:0000eac8       ??_C@_0DB@KMIGNHOM@dynamicProxyData?5has?5been?5destr@ 10045ac8     javaObject.obj
 0002:0000eafc       ??_C@_0BE@JONHPENG@map?1set?$DMT?$DO?5too?5long@ 10045afc     javaObject.obj
 0002:0000eb10       ??_7JavaObject@@6B@        10045b10     javaObject.obj
 0002:0000eb20       ??_7JavaProxyObject@@6B@   10045b20     javaObject.obj
 0002:0000eb2c       ??_C@_0BA@KEENCHNI@nan?3AsyncWorker@ 10045b2c     methodCallBaton.obj
 0002:0000eb3c       ??_C@_0DK@ELCNEEJD@?$CILjava?1lang?1Object?$DL?$FLLjava?1lang?1@ 10045b3c     methodCallBaton.obj
 0002:0000eb78       ??_C@_06HJMAOIE@invoke@    10045b78     methodCallBaton.obj
 0002:0000eb80       ??_C@_0CM@KCHFLGBC@java?1lang?1reflect?1InvocationTar@ 10045b80     methodCallBaton.obj
 0002:0000ebac       ??_C@_0BE@ILKHHCBH@java?1lang?1Throwable@ 10045bac     methodCallBaton.obj
 0002:0000ebc0       ??_C@_0BI@MHHHDDEP@?$CI?$CJLjava?1lang?1Throwable?$DL@ 10045bc0     methodCallBaton.obj
 0002:0000ebd8       ??_C@_08JOJKGCKB@getCause@ 10045bd8     methodCallBaton.obj
 0002:0000ebe4       ??_C@_0BM@IDACNFLH@Error?5running?5static?5method@ 10045be4     methodCallBaton.obj
 0002:0000ec00       ??_C@_0BO@NIIMBLJB@Error?5running?5instance?5method@ 10045c00     methodCallBaton.obj
 0002:0000ec20       ??_7AsyncWorker@Nan@@6B@   10045c20     methodCallBaton.obj
 0002:0000ec38       ??_7NewInstanceBaton@@6B@  10045c38     methodCallBaton.obj
 0002:0000ec54       ??_7InstanceMethodCallBaton@@6B@ 10045c54     methodCallBaton.obj
 0002:0000ec70       ??_7StaticMethodCallBaton@@6B@ 10045c70     methodCallBaton.obj
 0002:0000ec8c       ??_7MethodCallBaton@@6B@   10045c8c     methodCallBaton.obj
 0002:0000eca8       ??_C@_0EH@FAFGNKAE@c?3?2users?2usuario?2projects?2pos?2n@ 10045ca8     nodeJavaBridge.obj
 0002:0000ecf0       ??_C@_0BI@KKFJMJIL@nodejavabridge_bindings@ 10045cf0     nodeJavaBridge.obj
 0002:0000ed08       ??_C@_0BO@GAAAGEBD@?$CI?$CJ?$FLLjava?1lang?1reflect?1Method?$DL@ 10045d08     utils.obj
 0002:0000ed28       ??_C@_0L@NHIPJPM@getMethods@ 10045d28     utils.obj
 0002:0000ed34       ??_C@_0N@MKAAFCEB@getModifiers@ 10045d34     utils.obj
 0002:0000ed48       ??_C@_1HM@MOFAHBKO@?$AAc?$AA?3?$AA?2?$AAu?$AAs?$AAe?$AAr?$AAs?$AA?2?$AAu?$AAs?$AAu?$AAa?$AAr?$AAi@ 10045d48     utils.obj
 0002:0000edc4       ??_C@_0CD@HPPKIBKM@?$CI?$CJ?$FLLjava?1lang?1reflect?1Construct@ 10045dc4     utils.obj
 0002:0000ede8       ??_C@_0BA@FPKBDKMK@getConstructors@ 10045de8     utils.obj
 0002:0000edf8       ??_C@_0BN@JHLADMCF@?$CI?$CJ?$FLLjava?1lang?1reflect?1Field?$DL@ 10045df8     utils.obj
 0002:0000ee18       ??_C@_09HCGODEJP@getFields@ 10045e18     utils.obj
 0002:0000ee24       ??_C@_0BH@BOKGLNMJ@?$CILjava?1lang?1String?$DL?$CJ?$FLB@ 10045e24     utils.obj
 0002:0000ee3c       ??_C@_08LJNJGADH@getBytes@ 10045e3c     utils.obj
 0002:0000ee48       ??_C@_05EGJIMALK@UTF?98@   10045e48     utils.obj
 0002:0000ee50       ??_C@_06OJHGLDPL@?$CInull?$CJ@ 10045e50     utils.obj
 0002:0000ee58       ??_C@_02KEGNLNML@?0?5@     10045e58     utils.obj
 0002:0000ee5c       ??_C@_0BB@NOKBFPFO@java?1lang?1Thread@ 10045e5c     utils.obj
 0002:0000ee70       ??_C@_0BF@GLBLFFEM@?$CI?$CJLjava?1lang?1Thread?$DL@ 10045e70     utils.obj
 0002:0000ee88       ??_C@_0O@GIDKOGNF@currentThread@ 10045e88     utils.obj
 0002:0000ee98       ??_C@_0BL@GCEILBB@?$CILjava?1lang?1ClassLoader?$DL?$CJV@ 10045e98     utils.obj
 0002:0000eeb4       ??_C@_0BG@PPOLIIH@setContextClassLoader@ 10045eb4     utils.obj
 0002:0000eecc       ??_C@_0BG@PKKIGBMG@getContextClassLoader@ 10045ecc     utils.obj
 0002:0000eee4       ??_C@_04GKJNKENE@void@     10045ee4     utils.obj
 0002:0000eeec       ??_C@_0BK@KMLEMDPN@class?5java?4lang?4Character@ 10045eec     utils.obj
 0002:0000ef08       ??_C@_0BI@GOCPOGEI@class?5java?4lang?4Integer@ 10045f08     utils.obj
 0002:0000ef20       ??_C@_0BH@PMICPDAK@class?5java?4lang?4Double@ 10045f20     utils.obj
 0002:0000ef38       ??_C@_0BG@LDDCKJKM@class?5java?4lang?4Float@ 10045f38     utils.obj
 0002:0000ef50       ??_C@_04GOKPGOLB@long@     10045f50     utils.obj
 0002:0000ef58       ??_C@_0BF@MCGENCD@class?5java?4lang?4Long@ 10045f58     utils.obj
 0002:0000ef70       ??_C@_0BI@LKEEFMIJ@class?5java?4lang?4Boolean@ 10045f70     utils.obj
 0002:0000ef88       ??_C@_0BG@LMJIBGN@class?5java?4lang?4Short@ 10045f88     utils.obj
 0002:0000efa0       ??_C@_0BF@OFODLPCF@class?5java?4lang?4Byte@ 10045fa0     utils.obj
 0002:0000efb8       ??_C@_0BH@GDHJEOOP@class?5java?4lang?4String@ 10045fb8     utils.obj
 0002:0000efd0       ??_C@_0BB@MGLBKIHK@java?1lang?1Number@ 10045fd0     utils.obj
 0002:0000efe4       ??_C@_0N@CLCHFBGH@__isJavaLong@ 10045fe4     utils.obj
 0002:0000eff4       ??_C@_1CE@DEHNJMDN@?$AAt?$AAy?$AAp?$AAe?$AAs?$AA?4?$AAs?$AAi?$AAz?$AAe?$AA?$CI?$AA?$CJ?$AA?5?$AA?$DO?$AA?$DN@ 10045ff4     utils.obj
 0002:0000f018       ??_C@_1EC@JBIDFGFA@?$AAt?$AAy?$AAp?$AAe?$AAs?$AA?4?$AAf?$AAi?$AAn?$AAd?$AA?$CI?$AAk?$AAO?$AAb?$AAj@ 10046018     utils.obj
 0002:0000f05c       ??_C@_04PFANPMCN@?$CII?$CJV@ 1004605c     utils.obj
 0002:0000f064       ??_C@_04LHKBAEFM@?$CIZ?$CJV@ 10046064     utils.obj
 0002:0000f06c       ??_C@_03OFAPEBGM@?$CFs?6@  1004606c     utils.obj
 0002:0000f070       ??_C@_09JKMBDFBF@longValue@ 10046070     utils.obj
 0002:0000f07c       ??_C@_0BG@IKDDPPGD@?$CILjava?1lang?1String?$DL?$CJV@ 1004607c     utils.obj
 0002:0000f094       ??_C@_0BF@OPJMBACM@java?1io?1StringWriter@ 10046094     utils.obj
 0002:0000f0ac       ??_C@_03GAEACAIP@?$CI?$CJV@ 100460ac     utils.obj
 0002:0000f0b0       ??_C@_0BE@GMFCGBAC@java?1io?1PrintWriter@ 100460b0     utils.obj
 0002:0000f0c4       ??_C@_0BE@IEKFLDIB@?$CILjava?1io?1Writer?$DL?$CJV@ 100460c4     utils.obj
 0002:0000f0d8       ??_C@_0BJ@JMMNOJNF@?$CILjava?1io?1PrintWriter?$DL?$CJV@ 100460d8     utils.obj
 0002:0000f0f4       ??_C@_0BA@NEJFEHFG@printStackTrace@ 100460f4     utils.obj
 0002:0000f104       ??_C@_01EEMJAFIK@?6@       10046104     utils.obj
 0002:0000f108       ??_C@_05HGNDGEBA@cause@    10046108     utils.obj
 0002:0000f110       ??_C@_0BB@GHIIKNJ@getComponentType@ 10046110     utils.obj
 0002:0000f124       ??_C@_03FHPFMGJL@?$CI?$CJC@ 10046124     utils.obj
 0002:0000f128       ??_C@_09ODGNKCJE@charValue@ 10046128     utils.obj
 0002:0000f134       ??_C@_03IGDHHNNC@?$CI?$CJJ@ 10046134     utils.obj
 0002:0000f138       ??_C@_0CC@HDEBHEJH@javaToV8?3?5unhandled?5type?3?50x?$CF03@ 10046138     utils.obj
 0002:0000f15c       ??_C@_01ODHLEDKK@?$CI@     1004615c     utils.obj
 0002:0000f160       ??_C@_0DG@GJAOEIKK@nodejava?1org?1apache?1commons?1lan@ 10046160     utils.obj
 0002:0000f198       ??_C@_0FC@PLMANFDB@?$CILjava?1lang?1Class?$DLLjava?1lang?1St@ 10046198     utils.obj
 0002:0000f1ec       ??_C@_0BM@KLLOCMKC@getMatchingAccessibleMethod@ 100461ec     utils.obj
 0002:0000f208       ??_C@_0BC@NHNODMEK@node?1CastingUtils@ 10046208     utils.obj
 0002:0000f21c       ??_C@_0DB@LKEFMBF@?$CILjava?1lang?1reflect?1Method?$DL?$FLLja@ 1004621c     utils.obj
 0002:0000f250       ??_C@_04HJDBPPOC@cast@     10046250     utils.obj
 0002:0000f258       ??_C@_0DL@LAHEDPIC@nodejava?1org?1apache?1commons?1lan@ 10046258     utils.obj
 0002:0000f298       ??_C@_0EF@DDHPEOHK@?$CILjava?1lang?1Class?$DL?$FLLjava?1lang?1C@ 10046298     utils.obj
 0002:0000f2e0       ??_C@_0CB@GNMKJJJL@getMatchingAccessibleConstructo@ 100462e0     utils.obj
 0002:0000f308       ??_C@_0IE@LFMLHMEJ@?$CK?$CK?$CK?5ERROR?3?5Lost?5reference?5to?5th@ 10046308     utils.obj
 0002:0000f38c       ??_C@_0BI@ECBEKPCP@Could?5not?5find?5method?5?$CC@ 1004638c     utils.obj
 0002:0000f3a4       ??_C@_02DAHALNEP@?$CC?4@   100463a4     utils.obj
 0002:0000f3a8       ??_C@_0O@IBELDIOD@?$CJ?$CC?5on?5class?5?$CC@ 100463a8     utils.obj
 0002:0000f3b8       ??_C@_0BE@HNNKNCJM@?5Possible?5matches?3?6@ 100463b8     utils.obj
 0002:0000f3cc       ??_C@_0BJ@IEAHIJHA@java?1lang?1reflect?1Member@ 100463cc     utils.obj
 0002:0000f3e8       ??_C@_02KNHHEEKP@?5?5@     100463e8     utils.obj
 0002:0000f3ec       ??_C@_0BM@CDJHICIL@?5No?5methods?5with?5that?5name?4@ 100463ec     utils.obj
 0002:0000f408       ??_C@_0N@MBJOAELC@node?1VarArgs@ 10046408     utils.obj
 0002:0000f418       ??_C@_0ED@LLJBLECN@?$CILjava?1lang?1reflect?1Method?$DL?$FLLja@ 10046418     utils.obj
 0002:0000f45c       ??_C@_0L@GCFLGPOB@getVarArgs@ 1004645c     utils.obj
 0002:0000f468       ??_C@_0EI@DJOPIEPP@?$CILjava?1lang?1reflect?1Constructor@ 10046468     utils.obj
 0002:0000f4b0       ??_C@_0BB@MOGOBHAF@list?$DMT?$DO?5too?5long@ 100464b0     utils.obj
 0002:0000f4c8       __real@4202a05f20000000    100464c8     java.obj
 0002:0000f4d0       __real@bff0000000000000    100464d0     methodCallBaton.obj
 0002:0000f4e0       __xmm@7fffffffffffffff7fffffffffffffff 100464e0     java.obj
 0002:0000f5f0       __load_config_used         100465f0     LIBCMT:loadcfg.obj
 0002:0000f690       ??_R4exception@std@@6B@    10046690     libcpmt:xonce.obj
 0002:0000f6a4       ??_R3exception@std@@8      100466a4     libcpmt:xonce.obj
 0002:0000f6b4       ??_R2exception@std@@8      100466b4     libcpmt:xonce.obj
 0002:0000f6bc       ??_R1A@?0A@EA@exception@std@@8 100466bc     libcpmt:xonce.obj
 0002:0000f6d8       ??_R4runtime_error@std@@6B@ 100466d8     libcpmt:xonce.obj
 0002:0000f6ec       ??_R3runtime_error@std@@8  100466ec     libcpmt:xonce.obj
 0002:0000f6fc       ??_R2runtime_error@std@@8  100466fc     libcpmt:xonce.obj
 0002:0000f708       ??_R1A@?0A@EA@runtime_error@std@@8 10046708     libcpmt:xonce.obj
 0002:0000f724       ??_R4_System_error@std@@6B@ 10046724     libcpmt:xonce.obj
 0002:0000f738       ??_R3_System_error@std@@8  10046738     libcpmt:xonce.obj
 0002:0000f748       ??_R2_System_error@std@@8  10046748     libcpmt:xonce.obj
 0002:0000f758       ??_R1A@?0A@EA@_System_error@std@@8 10046758     libcpmt:xonce.obj
 0002:0000f774       ??_R4_Facet_base@std@@6B@  10046774     libcpmt:locale0.obj
 0002:0000f788       ??_R3_Facet_base@std@@8    10046788     libcpmt:locale0.obj
 0002:0000f798       ??_R2_Facet_base@std@@8    10046798     libcpmt:locale0.obj
 0002:0000f7a0       ??_R1A@?0A@EA@_Facet_base@std@@8 100467a0     libcpmt:locale0.obj
 0002:0000f7bc       ??_R4_Locimp@locale@std@@6B@ 100467bc     libcpmt:locale0.obj
 0002:0000f7d0       ??_R3_Locimp@locale@std@@8 100467d0     libcpmt:locale0.obj
 0002:0000f7e0       ??_R2_Locimp@locale@std@@8 100467e0     libcpmt:locale0.obj
 0002:0000f7f4       ??_R1A@?0A@EA@_Locimp@locale@std@@8 100467f4     libcpmt:locale0.obj
 0002:0000f810       ??_R1A@?0A@EA@facet@locale@std@@8 10046810     libcpmt:locale0.obj
 0002:0000f82c       ??_R3facet@locale@std@@8   1004682c     libcpmt:locale0.obj
 0002:0000f83c       ??_R2facet@locale@std@@8   1004683c     libcpmt:locale0.obj
 0002:0000f84c       ??_R13?0A@EA@_Crt_new_delete@std@@8 1004684c     libcpmt:locale0.obj
 0002:0000f868       ??_R3_Crt_new_delete@std@@8 10046868     libcpmt:locale0.obj
 0002:0000f878       ??_R2_Crt_new_delete@std@@8 10046878     libcpmt:locale0.obj
 0002:0000f880       ??_R1A@?0A@EA@_Crt_new_delete@std@@8 10046880     libcpmt:locale0.obj
 0002:0000f89c       ??_R4bad_alloc@std@@6B@    1004689c     libcpmt:xthrow.obj
 0002:0000f8b0       ??_R3bad_alloc@std@@8      100468b0     libcpmt:xthrow.obj
 0002:0000f8c0       ??_R2bad_alloc@std@@8      100468c0     libcpmt:xthrow.obj
 0002:0000f8cc       ??_R1A@?0A@EA@bad_alloc@std@@8 100468cc     libcpmt:xthrow.obj
 0002:0000f8e8       ??_R4logic_error@std@@6B@  100468e8     libcpmt:xthrow.obj
 0002:0000f8fc       ??_R3logic_error@std@@8    100468fc     libcpmt:xthrow.obj
 0002:0000f90c       ??_R2logic_error@std@@8    1004690c     libcpmt:xthrow.obj
 0002:0000f918       ??_R1A@?0A@EA@logic_error@std@@8 10046918     libcpmt:xthrow.obj
 0002:0000f934       ??_R4length_error@std@@6B@ 10046934     libcpmt:xthrow.obj
 0002:0000f948       ??_R3length_error@std@@8   10046948     libcpmt:xthrow.obj
 0002:0000f958       ??_R2length_error@std@@8   10046958     libcpmt:xthrow.obj
 0002:0000f968       ??_R1A@?0A@EA@length_error@std@@8 10046968     libcpmt:xthrow.obj
 0002:0000f984       ??_R4out_of_range@std@@6B@ 10046984     libcpmt:xthrow.obj
 0002:0000f998       ??_R3out_of_range@std@@8   10046998     libcpmt:xthrow.obj
 0002:0000f9a8       ??_R2out_of_range@std@@8   100469a8     libcpmt:xthrow.obj
 0002:0000f9b8       ??_R1A@?0A@EA@out_of_range@std@@8 100469b8     libcpmt:xthrow.obj
 0002:0000f9d4       ??_R3ctype_base@std@@8     100469d4     libcpmt:locale.obj
 0002:0000f9e4       ??_R2ctype_base@std@@8     100469e4     libcpmt:locale.obj
 0002:0000f9f8       ??_R1A@?0A@EA@ctype_base@std@@8 100469f8     libcpmt:locale.obj
 0002:0000fa14       ??_R4?$ctype@D@std@@6B@    10046a14     libcpmt:locale.obj
 0002:0000fa28       ??_R3?$ctype@D@std@@8      10046a28     libcpmt:locale.obj
 0002:0000fa38       ??_R2?$ctype@D@std@@8      10046a38     libcpmt:locale.obj
 0002:0000fa50       ??_R1A@?0A@EA@?$ctype@D@std@@8 10046a50     libcpmt:locale.obj
 0002:0000fa6c       ??_R4?$num_put@DV?$ostreambuf_iterator@DU?$char_traits@D@std@@@std@@@std@@6B@ 10046a6c     libcpmt:locale.obj
 0002:0000fa80       ??_R3?$num_put@DV?$ostreambuf_iterator@DU?$char_traits@D@std@@@std@@@std@@8 10046a80     libcpmt:locale.obj
 0002:0000fa90       ??_R2?$num_put@DV?$ostreambuf_iterator@DU?$char_traits@D@std@@@std@@@std@@8 10046a90     libcpmt:locale.obj
 0002:0000faa4       ??_R1A@?0A@EA@?$num_put@DV?$ostreambuf_iterator@DU?$char_traits@D@std@@@std@@@std@@8 10046aa4     libcpmt:locale.obj
 0002:0000fac0       ??_R4?$numpunct@D@std@@6B@ 10046ac0     libcpmt:locale.obj
 0002:0000fad4       ??_R3?$numpunct@D@std@@8   10046ad4     libcpmt:locale.obj
 0002:0000fae4       ??_R2?$numpunct@D@std@@8   10046ae4     libcpmt:locale.obj
 0002:0000faf8       ??_R1A@?0A@EA@?$numpunct@D@std@@8 10046af8     libcpmt:locale.obj
 0002:0000fb14       ??_R4type_info@@6B@        10046b14     LIBCMT:std_type_info_static.obj
 0002:0000fb28       ??_R3type_info@@8          10046b28     LIBCMT:std_type_info_static.obj
 0002:0000fb38       ??_R2type_info@@8          10046b38     LIBCMT:std_type_info_static.obj
 0002:0000fb40       ??_R1A@?0A@EA@type_info@@8 10046b40     LIBCMT:std_type_info_static.obj
 0002:0000fb5c       ??_R4bad_array_new_length@std@@6B@ 10046b5c     LIBCMT:throw_bad_alloc.obj
 0002:0000fb70       ??_R3bad_array_new_length@std@@8 10046b70     LIBCMT:throw_bad_alloc.obj
 0002:0000fb80       ??_R2bad_array_new_length@std@@8 10046b80     LIBCMT:throw_bad_alloc.obj
 0002:0000fb90       ??_R1A@?0A@EA@bad_array_new_length@std@@8 10046b90     LIBCMT:throw_bad_alloc.obj
 0002:0000fbac       ??_R4bad_exception@std@@6B@ 10046bac     libvcruntime:frame.obj
 0002:0000fbc0       ??_R3bad_exception@std@@8  10046bc0     libvcruntime:frame.obj
 0002:0000fbd0       ??_R2bad_exception@std@@8  10046bd0     libvcruntime:frame.obj
 0002:0000fbdc       ??_R1A@?0A@EA@bad_exception@std@@8 10046bdc     libvcruntime:frame.obj
 0002:0000fc00       ___safe_se_handler_table   10046c00     <linker-defined>
 0002:0000ffac       ___rtc_iaa                 10046fac     LIBCMT:_initsect_.obj
 0002:0000ffb0       ___rtc_izz                 10046fb0     LIBCMT:_initsect_.obj
 0002:0000ffb4       ___rtc_taa                 10046fb4     LIBCMT:_initsect_.obj
 0002:0000ffb8       ___rtc_tzz                 10046fb8     LIBCMT:_initsect_.obj
 0002:0000ffc0       __CT??_R0?AVexception@std@@@8??0exception@std@@QAE@ABV01@@Z12 10046fc0     libcpmt:xonce.obj
 0002:00010058       __TI2?AVbad_alloc@std@@    10047058     libcpmt:xthrow.obj
 0002:00010068       __CTA2?AVbad_alloc@std@@   10047068     libcpmt:xthrow.obj
 0002:00010074       __CT??_R0?AVbad_alloc@std@@@8??0bad_alloc@std@@QAE@ABV01@@Z12 10047074     libcpmt:xthrow.obj
 0002:00010090       __CT??_R0?AVlogic_error@std@@@8??0logic_error@std@@QAE@ABV01@@Z12 10047090     libcpmt:xthrow.obj
 0002:000100ac       __TI3?AVlength_error@std@@ 100470ac     libcpmt:xthrow.obj
 0002:000100bc       __CTA3?AVlength_error@std@@ 100470bc     libcpmt:xthrow.obj
 0002:000100cc       __CT??_R0?AVlength_error@std@@@8??0length_error@std@@QAE@ABV01@@Z12 100470cc     libcpmt:xthrow.obj
 0002:000100e8       __TI3?AVout_of_range@std@@ 100470e8     libcpmt:xthrow.obj
 0002:000100f8       __CTA3?AVout_of_range@std@@ 100470f8     libcpmt:xthrow.obj
 0002:00010108       __CT??_R0?AVout_of_range@std@@@8??0out_of_range@std@@QAE@ABV01@@Z12 10047108     libcpmt:xthrow.obj
 0002:000101a4       __TI3?AVbad_array_new_length@std@@ 100471a4     LIBCMT:throw_bad_alloc.obj
 0002:000101b4       __CTA3?AVbad_array_new_length@std@@ 100471b4     LIBCMT:throw_bad_alloc.obj
 0002:000101c4       __CT??_R0?AVbad_array_new_length@std@@@8??0bad_array_new_length@std@@QAE@ABV01@@Z12 100471c4     LIBCMT:throw_bad_alloc.obj
 0002:000102e4       __TI2?AVbad_exception@std@@ 100472e4     libvcruntime:frame.obj
 0002:000102f4       __CTA2?AVbad_exception@std@@ 100472f4     libvcruntime:frame.obj
 0002:00010300       __CT??_R0?AVbad_exception@std@@@8??0bad_exception@std@@QAE@ABV01@@Z12 10047300     libvcruntime:frame.obj
 0002:0001085c       __IMPORT_DESCRIPTOR_KERNEL32 1004785c     kernel32:KERNEL32.dll
 0002:00010870       __IMPORT_DESCRIPTOR_nw     10047870     nw:nw.dll
 0002:00010884       __IMPORT_DESCRIPTOR_node   10047884     node:node.dll
 0002:00010898       __IMPORT_DESCRIPTOR_jvm    10047898     jvm:jvm.dll
 0002:000108ac       __NULL_IMPORT_DESCRIPTOR   100478ac     kernel32:KERNEL32.dll
 0003:00000004       ?_Sync@ios_base@std@@0_NA  1004a004     libcpmt:ios.obj
 0003:00000008       ?_PJP_CPP_Copyright@@3PADA 1004a008     libcpmt:iosptrs.obj
 0003:00000060       ___scrt_native_dllmain_reason 1004a060     LIBCMT:utility.obj
 0003:00000064       ___security_cookie_complement 1004a064     LIBCMT:gs_cookie.obj
 0003:00000068       ___security_cookie         1004a068     LIBCMT:gs_cookie.obj
 0003:0000006c       __fltused                  1004a06c     LIBCMT:fltused.obj
 0003:00000070       ___isa_enabled             1004a070     LIBCMT:_cpu_disp_.obj
 0003:00000090       __NLG_Destination          1004a090     libvcruntime:_exsup_.obj
 0003:000000a0       ___abort_behavior          1004a0a0     libucrt:abort.obj
 0003:000000a8       __iob                      1004a0a8     libucrt:_file.obj
 0003:00000150       ___acrt_lconv_static_decimal 1004a150     libucrt:localeconv.obj
 0003:00000154       ___acrt_lconv_static_W_decimal 1004a154     libucrt:localeconv.obj
 0003:00000158       ___acrt_lconv_c            1004a158     libucrt:localeconv.obj
 0003:000001a8       ___acrt_lconv              1004a1a8     libucrt:localeconv.obj
 0003:000001ac       __pctype                   1004a1ac     libucrt:ctype.obj
 0003:000001b0       __pwctype                  1004a1b0     libucrt:ctype.obj
 0003:000001c0       ___badioinfo               1004a1c0     libucrt:ioinit.obj
 0003:000001f8       ___mb_cur_max              1004a1f8     libucrt:nlsdata.obj
 0003:00000200       ___acrt_initial_locale_data 1004a200     libucrt:nlsdata.obj
 0003:000002b8       ___acrt_initial_locale_pointers 1004a2b8     libucrt:nlsdata.obj
 0003:000002c0       ___acrt_wide_c_locale_string 1004a2c0     libucrt:nlsdata.obj
 0003:000002c4       ___globallocalestatus      1004a2c4     libucrt:glstatus.obj
 0003:00000658       ___acrt_initial_multibyte_data 1004a658     libucrt:mbctype.obj
 0003:00000880       ___dcrt_lowio_console_output_handle 1004a880     libucrt:initcon.obj
 0003:000008c0       ??_R0?AV_System_error@std@@@8 1004a8c0     libcpmt:xonce.obj
 0003:000008e0       ??_R0?AVruntime_error@std@@@8 1004a8e0     libcpmt:xonce.obj
 0003:00000900       ??_R0?AVexception@std@@@8  1004a900     libcpmt:xonce.obj
 0003:0000091c       ??_R0?AV_Facet_base@std@@@8 1004a91c     libcpmt:locale0.obj
 0003:0000093c       ??_R0?AV_Locimp@locale@std@@@8 1004a93c     libcpmt:locale0.obj
 0003:00000960       ??_R0?AVfacet@locale@std@@@8 1004a960     libcpmt:locale0.obj
 0003:00000980       ??_R0?AU_Crt_new_delete@std@@@8 1004a980     libcpmt:locale0.obj
 0003:000009a4       ??_R0?AVbad_alloc@std@@@8  1004a9a4     libcpmt:xthrow.obj
 0003:000009c0       ??_R0?AVlogic_error@std@@@8 1004a9c0     libcpmt:xthrow.obj
 0003:000009e0       ??_R0?AVlength_error@std@@@8 1004a9e0     libcpmt:xthrow.obj
 0003:00000a00       ??_R0?AVout_of_range@std@@@8 1004aa00     libcpmt:xthrow.obj
 0003:00000a20       ??_R0?AUctype_base@std@@@8 1004aa20     libcpmt:locale.obj
 0003:00000a40       ??_R0?AV?$ctype@D@std@@@8  1004aa40     libcpmt:locale.obj
 0003:00000a60       ??_R0?AV?$num_put@DV?$ostreambuf_iterator@DU?$char_traits@D@std@@@std@@@std@@@8 1004aa60     libcpmt:locale.obj
 0003:00000ab4       ??_R0?AV?$numpunct@D@std@@@8 1004aab4     libcpmt:locale.obj
 0003:00000ad4       ??_R0?AVtype_info@@@8      1004aad4     LIBCMT:std_type_info_static.obj
 0003:00000aec       ??_R0?AVbad_array_new_length@std@@@8 1004aaec     LIBCMT:throw_bad_alloc.obj
 0003:00000b14       ??_R0?AVbad_exception@std@@@8 1004ab14     libvcruntime:frame.obj
 0003:00000c00       ?_Id_cnt@id@locale@std@@0HA 1004ac00     libcpmt:locale0.obj
 0003:00000c04       ?_Clocptr@_Locimp@locale@std@@0PAV123@A 1004ac04     libcpmt:locale0.obj
 0003:00000c08       ?id@?$ctype@G@std@@2V0locale@2@A 1004ac08     libcpmt:locale0.obj
 0003:00000c0c       ?id@?$codecvt@_WDU_Mbstatet@@@std@@2V0locale@2@A 1004ac0c     libcpmt:locale0.obj
 0003:00000c10       ?id@?$codecvt@GDU_Mbstatet@@@std@@2V0locale@2@A 1004ac10     libcpmt:locale0.obj
 0003:00000c14       ?id@?$ctype@_W@std@@2V0locale@2@A 1004ac14     libcpmt:locale0.obj
 0003:00000c18       ?id@?$ctype@D@std@@2V0locale@2@A 1004ac18     libcpmt:locale0.obj
 0003:00000c34       ?_Index@ios_base@std@@0HA  1004ac34     libcpmt:ios.obj
 0003:00000c6c       ?_Raise_handler@std@@3P6AXABVexception@stdext@@@ZA 1004ac6c     libcpmt:raisehan.obj
 0003:00000c70       ___encodedKERNEL32Functions 1004ac70     libcpmt:winapisupp.obj
 0003:00000d10       ?id@?$num_get@DV?$istreambuf_iterator@DU?$char_traits@D@std@@@std@@@std@@2V0locale@2@A 1004ad10     libcpmt:locale.obj
 0003:00000d14       ?id@?$codecvt@DDU_Mbstatet@@@std@@2V0locale@2@A 1004ad14     libcpmt:locale.obj
 0003:00000d18       ?_Ptr_cin@std@@3PAV?$basic_istream@DU?$char_traits@D@std@@@1@A 1004ad18     libcpmt:iosptrs.obj
 0003:00000d1c       ?_Ptr_cout@std@@3PAV?$basic_ostream@DU?$char_traits@D@std@@@1@A 1004ad1c     libcpmt:iosptrs.obj
 0003:00000d20       ?_Ptr_cerr@std@@3PAV?$basic_ostream@DU?$char_traits@D@std@@@1@A 1004ad20     libcpmt:iosptrs.obj
 0003:00000d24       ?_Ptr_clog@std@@3PAV?$basic_ostream@DU?$char_traits@D@std@@@1@A 1004ad24     libcpmt:iosptrs.obj
 0003:00000d28       ?_Ptr_wcin@std@@3PAV?$basic_istream@_WU?$char_traits@_W@std@@@1@A 1004ad28     libcpmt:iosptrs.obj
 0003:00000d2c       ?_Ptr_wcout@std@@3PAV?$basic_ostream@_WU?$char_traits@_W@std@@@1@A 1004ad2c     libcpmt:iosptrs.obj
 0003:00000d30       ?_Ptr_wcerr@std@@3PAV?$basic_ostream@_WU?$char_traits@_W@std@@@1@A 1004ad30     libcpmt:iosptrs.obj
 0003:00000d34       ?_Ptr_wclog@std@@3PAV?$basic_ostream@_WU?$char_traits@_W@std@@@1@A 1004ad34     libcpmt:iosptrs.obj
 0003:00000d64       ?id@?$time_put@_WV?$ostreambuf_iterator@_WU?$char_traits@_W@std@@@std@@@std@@2V0locale@2@A 1004ad64     libcpmt:wlocale.obj
 0003:00000d68       ?id@?$num_get@_WV?$istreambuf_iterator@_WU?$char_traits@_W@std@@@std@@@std@@2V0locale@2@A 1004ad68     libcpmt:wlocale.obj
 0003:00000d6c       ?id@?$num_put@_WV?$ostreambuf_iterator@_WU?$char_traits@_W@std@@@std@@@std@@2V0locale@2@A 1004ad6c     libcpmt:wlocale.obj
 0003:00000d70       ?id@?$numpunct@_W@std@@2V0locale@2@A 1004ad70     libcpmt:wlocale.obj
 0003:00000d74       ?id@?$collate@_W@std@@2V0locale@2@A 1004ad74     libcpmt:wlocale.obj
 0003:00000d78       ?id@?$messages@_W@std@@2V0locale@2@A 1004ad78     libcpmt:wlocale.obj
 0003:00000d7c       ?id@?$money_get@_WV?$istreambuf_iterator@_WU?$char_traits@_W@std@@@std@@@std@@2V0locale@2@A 1004ad7c     libcpmt:wlocale.obj
 0003:00000d80       ?id@?$money_put@_WV?$ostreambuf_iterator@_WU?$char_traits@_W@std@@@std@@@std@@2V0locale@2@A 1004ad80     libcpmt:wlocale.obj
 0003:00000d84       ?id@?$moneypunct@_W$0A@@std@@2V0locale@2@A 1004ad84     libcpmt:wlocale.obj
 0003:00000d88       ?id@?$moneypunct@_W$00@std@@2V0locale@2@A 1004ad88     libcpmt:wlocale.obj
 0003:00000d8c       ?id@?$time_get@_WV?$istreambuf_iterator@_WU?$char_traits@_W@std@@@std@@@std@@2V0locale@2@A 1004ad8c     libcpmt:wlocale.obj
 0003:00000d90       ?id@?$num_get@GV?$istreambuf_iterator@GU?$char_traits@G@std@@@std@@@std@@2V0locale@2@A 1004ad90     libcpmt:wlocale.obj
 0003:00000d94       ?id@?$num_put@GV?$ostreambuf_iterator@GU?$char_traits@G@std@@@std@@@std@@2V0locale@2@A 1004ad94     libcpmt:wlocale.obj
 0003:00000d98       ?id@?$numpunct@G@std@@2V0locale@2@A 1004ad98     libcpmt:wlocale.obj
 0003:00000d9c       ?id@?$collate@G@std@@2V0locale@2@A 1004ad9c     libcpmt:wlocale.obj
 0003:00000da0       ?id@?$messages@G@std@@2V0locale@2@A 1004ada0     libcpmt:wlocale.obj
 0003:00000da4       ?id@?$money_get@GV?$istreambuf_iterator@GU?$char_traits@G@std@@@std@@@std@@2V0locale@2@A 1004ada4     libcpmt:wlocale.obj
 0003:00000da8       ?id@?$money_put@GV?$ostreambuf_iterator@GU?$char_traits@G@std@@@std@@@std@@2V0locale@2@A 1004ada8     libcpmt:wlocale.obj
 0003:00000dac       ?id@?$moneypunct@G$0A@@std@@2V0locale@2@A 1004adac     libcpmt:wlocale.obj
 0003:00000db0       ?id@?$moneypunct@G$00@std@@2V0locale@2@A 1004adb0     libcpmt:wlocale.obj
 0003:00000db4       ?id@?$time_get@GV?$istreambuf_iterator@GU?$char_traits@G@std@@@std@@@std@@2V0locale@2@A 1004adb4     libcpmt:wlocale.obj
 0003:00000db8       ?id@?$time_put@GV?$ostreambuf_iterator@GU?$char_traits@G@std@@@std@@@std@@2V0locale@2@A 1004adb8     libcpmt:wlocale.obj
 0003:00000dbc       ?id@?$collate@D@std@@2V0locale@2@A 1004adbc     libcpmt:xlocale.obj
 0003:00000dc0       ?id@?$messages@D@std@@2V0locale@2@A 1004adc0     libcpmt:xlocale.obj
 0003:00000dc4       ?id@?$money_get@DV?$istreambuf_iterator@DU?$char_traits@D@std@@@std@@@std@@2V0locale@2@A 1004adc4     libcpmt:xlocale.obj
 0003:00000dc8       ?id@?$money_put@DV?$ostreambuf_iterator@DU?$char_traits@D@std@@@std@@@std@@2V0locale@2@A 1004adc8     libcpmt:xlocale.obj
 0003:00000dcc       ?id@?$moneypunct@D$0A@@std@@2V0locale@2@A 1004adcc     libcpmt:xlocale.obj
 0003:00000dd0       ?id@?$moneypunct@D$00@std@@2V0locale@2@A 1004add0     libcpmt:xlocale.obj
 0003:00000dd4       ?id@?$time_get@DV?$istreambuf_iterator@DU?$char_traits@D@std@@@std@@@std@@2V0locale@2@A 1004add4     libcpmt:xlocale.obj
 0003:00000dd8       ?id@?$time_put@DV?$ostreambuf_iterator@DU?$char_traits@D@std@@@std@@@std@@2V0locale@2@A 1004add8     libcpmt:xlocale.obj
 0003:00000ddc       ___scrt_current_native_startup_state 1004addc     LIBCMT:utility.obj
 0003:00000de0       ___scrt_native_startup_lock 1004ade0     LIBCMT:utility.obj
 0003:00001124       ___isa_available           1004b124     LIBCMT:_cpu_disp_.obj
 0003:00001128       ___favor                   1004b128     LIBCMT:_cpu_disp_.obj
 0003:0000112c       ___scrt_debugger_hook_flag 1004b12c     LIBCMT:utility_desktop.obj
 0003:00001130       ?__type_info_root_node@@3U__type_info_node@@A 1004b130     LIBCMT:tncleanup.obj
 0003:00001138       ?_OptionsStorage@?1??__local_stdio_scanf_options@@9@4_KA 1004b138     LIBCMT:default_local_stdio_options.obj
 0003:00001140       ?__WinRTOutOfMemoryExceptionCallback@@3P6GPAXXZA 1004b140     libvcruntime:ehhelpers.obj
 0003:00001144       ___pPurecall               1004b144     libvcruntime:purevirt_data.obj
 0003:000011ac       ?pArgList@UnDecorator@@0PAVReplicator@@A 1004b1ac     libvcruntime:undname.obj
 0003:000011b0       ?pZNameList@UnDecorator@@0PAVReplicator@@A 1004b1b0     libvcruntime:undname.obj
 0003:000011b4       ?pTemplateArgList@UnDecorator@@0PAVReplicator@@A 1004b1b4     libvcruntime:undname.obj
 0003:000011b8       ?gName@UnDecorator@@0PBDB  1004b1b8     libvcruntime:undname.obj
 0003:000011bc       ?name@UnDecorator@@0PBDB   1004b1bc     libvcruntime:undname.obj
 0003:000011c0       ?disableFlags@UnDecorator@@0KA 1004b1c0     libvcruntime:undname.obj
 0003:000011c4       ?fExplicitTemplateParams@UnDecorator@@0_NA 1004b1c4     libvcruntime:undname.obj
 0003:000011c5       ?fGetTemplateArgumentList@UnDecorator@@0_NA 1004b1c5     libvcruntime:undname.obj
 0003:000011c8       ?m_pGetParameter@UnDecorator@@0P6APADJ@ZA 1004b1c8     libvcruntime:undname.obj
 0003:000011cc       ?m_CHPENameOffset@UnDecorator@@0KA 1004b1cc     libvcruntime:undname.obj
 0003:000011d0       ?m_recursionLevel@UnDecorator@@0KA 1004b1d0     libvcruntime:undname.obj
 0003:000011e8       __nstream                  1004b1e8     libucrt:_file.obj
 0003:000011ec       ___piob                    1004b1ec     libucrt:_file.obj
 0003:000011f0       __cflush                   1004b1f0     libucrt:_file.obj
 0003:000011f8       ___acrt_lconv_static_null  1004b1f8     libucrt:localeconv.obj
 0003:000011fc       ___acrt_lconv_static_W_null 1004b1fc     libucrt:localeconv.obj
 0003:00001360       ?c_exit_complete@?1???R<lambda_6e4b09c48022b2350581041d5f6b0c4c>@@QBE@XZ@4_NA 1004b360     libucrt:exit.obj
 0003:00001470       __environ_table            1004b470     libucrt:environment_initialization.obj
 0003:00001474       __wenviron_table           1004b474     libucrt:environment_initialization.obj
 0003:00001478       ___dcrt_initial_wide_environment 1004b478     libucrt:environment_initialization.obj
 0003:0000147c       ___dcrt_initial_narrow_environment 1004b47c     libucrt:environment_initialization.obj
 0003:00001480       ___acrt_atexit_table       1004b480     libucrt:onexit.obj
 0003:0000148c       ___acrt_at_quick_exit_table 1004b48c     libucrt:onexit.obj
 0003:00001588       ___pioinfo                 1004b588     libucrt:ioinit.obj
 0003:00001788       __nhandle                  1004b788     libucrt:ioinit.obj
 0003:00001790       ___acrt_stdout_buffer      1004b790     libucrt:_sftbuf.obj
 0003:00001794       ___acrt_stderr_buffer      1004b794     libucrt:_sftbuf.obj
 0003:00001798       ___acrt_locale_changed_data 1004b798     libucrt:wsetlocale.obj
 0003:0000179c       ___acrt_current_locale_data 1004b79c     libucrt:nlsdata.obj
 0003:000017a8       ___fastflag                1004b7a8     libucrt:fp_flags.obj
 0003:000017ac       ?_timezone@@3V?$dual_state_global@J@__crt_state_management@@A 1004b7ac     libucrt:timeset.obj
 0003:000017b0       ?_daylight@@3V?$dual_state_global@H@__crt_state_management@@A 1004b7b0     libucrt:timeset.obj
 0003:000017b4       ?_dstbias@@3V?$dual_state_global@J@__crt_state_management@@A 1004b7b4     libucrt:timeset.obj
 0003:0000187c       __mbctype                  1004b87c     libucrt:mbctype.obj
 0003:00001880       __mbcasemap                1004b880     libucrt:mbctype.obj
 0003:00001884       ___acrt_current_multibyte_data 1004b884     libucrt:mbctype.obj
 0003:00001890       ___argc                    1004b890     libucrt:argv_data.obj
 0003:00001894       ___argv                    1004b894     libucrt:argv_data.obj
 0003:00001898       ___wargv                   1004b898     libucrt:argv_data.obj
 0003:0000189c       __acmdln                   1004b89c     libucrt:argv_data.obj
 0003:000018a0       __wcmdln                   1004b8a0     libucrt:argv_data.obj
 0003:000018a4       __pgmptr                   1004b8a4     libucrt:argv_data.obj
 0003:000018a8       ___acrt_heap               1004b8a8     libucrt:heap_handle.obj
 0003:000018b8       ?v8ThreadId@@3JA           1004b8b8     java.obj
 0003:000018bc       ?m_methodInvokeMethodId@MethodCallBaton@@0PAU_jmethodID@@A 1004b8bc     methodCallBaton.obj
 0003:000018c0       ?s_ct@Java@@0V?$Persistent@VFunctionTemplate@v8@@V?$NonCopyablePersistentTraits@VFunctionTemplate@v8@@@2@@Nan@@A 1004b8c0     java.obj
 0003:000018c4       ?s_nativeBindingLocation@Java@@0V?$basic_string@DU?$char_traits@D@std@@V?$allocator@D@2@@std@@A 1004b8c4     java.obj
 0003:000018dc       ?s_proxyCt@JavaProxyObject@@0V?$Persistent@VFunctionTemplate@v8@@V?$NonCopyablePersistentTraits@VFunctionTemplate@v8@@@2@@Nan@@A 1004b8dc     javaObject.obj
 0003:000018e0       ?sFunctionTemplates@JavaObject@@0V?$map@V?$basic_string@DU?$char_traits@D@std@@V?$allocator@D@2@@std@@PAV?$Persistent@VFunctionTemplate@v8@@V?$NonCopyablePersistentTraits@VFunctionTemplate@v8@@@2@@Nan@@U?$less@V?$basic_string@DU?$char_traits@D@std@@V?$allocator@D@2@@std@@@2@V?$allocator@U?$pair@$$CBV?$basic_string@DU?$char_traits@D@std@@V?$allocator@D@2@@std@@PAV?$Persistent@VFunctionTemplate@v8@@V?$NonCopyablePersistentTraits@VFunctionTemplate@v8@@@2@@Nan@@@std@@@2@@std@@A 1004b8e0     javaObject.obj
 0003:00001998       ?_Flag@?1???$_Immortalize@V_Iostream_error_category@std@@@std@@YAAAV_Iostream_error_category@1@XZ@4PAXA 1004b998     java.obj
 0003:000019a0       ?_OptionsStorage@?1??__local_stdio_printf_options@@9@4_KA 1004b9a0     java.obj
 0003:000019a8       ?_Storage@?1???$_Immortalize@V_Iostream_error_category@std@@@std@@YAAAV_Iostream_error_category@1@XZ@4T?$_Align_type@H$07@1@A 1004b9a8     java.obj
 0003:000019b0       ?_Psave@?$_Facetptr@V?$numpunct@D@std@@@std@@2PBVfacet@locale@2@B 1004b9b0     java.obj
 0003:000019b4       ?_Psave@?$_Facetptr@V?$num_put@DV?$ostreambuf_iterator@DU?$char_traits@D@std@@@std@@@std@@@std@@2PBVfacet@locale@2@B 1004b9b4     java.obj
 0003:000019b8       ?_Psave@?$_Facetptr@V?$ctype@D@std@@@std@@2PBVfacet@locale@2@B 1004b9b8     java.obj
 0003:000019bc       ?id@?$num_put@DV?$ostreambuf_iterator@DU?$char_traits@D@std@@@std@@@std@@2V0locale@2@A 1004b9bc     java.obj
 0003:000019c0       ?id@?$numpunct@D@std@@2V0locale@2@A 1004b9c0     java.obj
 0003:000019c4       ___dyn_tls_init_callback   1004b9c4     <common>
 0003:000019c8       ___scrt_ucrt_dll_is_in_use 1004b9c8     <common>
 0003:000019cc       __pmatherr                 1004b9cc     <common>
 0003:000019d0       ___use_sse2_mathfcns       1004b9d0     <common>

 entry point at        0001:0001a777

 Static symbols

 0000:fffaf000       .debug$S                   10000000     kernel32:KERNEL32.dll
 0000:fffaf000       .debug$S                   10000000     kernel32:KERNEL32.dll
 0000:fffaf000       .debug$S                   10000000     kernel32:KERNEL32.dll
 0000:fffaf000       .debug$S                   10000000     kernel32:KERNEL32.dll
 0000:fffaf000       .debug$S                   10000000     nw:nw.dll
 0000:fffaf000       .debug$S                   10000000     nw:nw.dll
 0000:fffaf000       .debug$S                   10000000     jvm:jvm.dll
 0000:fffaf000       .debug$S                   10000000     nw:nw.dll
 0000:fffaf000       .debug$S                   10000000     nw:nw.dll
 0000:fffaf000       .debug$S                   10000000     nw:nw.dll
 0000:fffaf000       .debug$S                   10000000     nw:nw.dll
 0000:fffaf000       .debug$S                   10000000     nw:nw.dll
 0000:fffaf000       .debug$S                   10000000     nw:nw.dll
 0000:fffaf000       .debug$S                   10000000     nw:nw.dll
 0000:fffaf000       .debug$S                   10000000     nw:nw.dll
 0000:fffaf000       .debug$S                   10000000     nw:nw.dll
 0000:fffaf000       .debug$S                   10000000     nw:nw.dll
 0000:fffaf000       .debug$S                   10000000     nw:nw.dll
 0000:fffaf000       .debug$S                   10000000     nw:nw.dll
 0000:fffaf000       .debug$S                   10000000     nw:nw.dll
 0000:fffaf000       .debug$S                   10000000     nw:nw.dll
 0000:fffaf000       .debug$S                   10000000     nw:nw.dll
 0000:fffaf000       .debug$S                   10000000     nw:nw.dll
 0000:fffaf000       .debug$S                   10000000     nw:nw.dll
 0000:fffaf000       .debug$S                   10000000     nw:nw.dll
 0000:fffaf000       .debug$S                   10000000     nw:nw.dll
 0000:fffaf000       .debug$S                   10000000     nw:nw.dll
 0000:fffaf000       .debug$S                   10000000     nw:nw.dll
 0000:fffaf000       .debug$S                   10000000     nw:nw.dll
 0000:fffaf000       .debug$S                   10000000     node:node.dll
 0000:fffaf000       .debug$S                   10000000     node:node.dll
 0000:fffaf000       .debug$S                   10000000     node:node.dll
 0000:fffaf000       .debug$S                   10000000     node:node.dll
 0000:fffaf000       .debug$S                   10000000     node:node.dll
 0000:fffaf000       .debug$S                   10000000     node:node.dll
 0000:fffaf000       .debug$S                   10000000     nw:nw.dll
 0000:fffaf000       .debug$S                   10000000     nw:nw.dll
 0000:fffaf000       .debug$S                   10000000     nw:nw.dll
 0000:fffaf000       .debug$S                   10000000     nw:nw.dll
 0000:fffaf000       .debug$S                   10000000     nw:nw.dll
 0000:fffaf000       .debug$S                   10000000     nw:nw.dll
 0000:fffaf000       .debug$S                   10000000     nw:nw.dll
 0000:fffaf000       .debug$S                   10000000     nw:nw.dll
 0000:fffaf000       .debug$S                   10000000     nw:nw.dll
 0000:fffaf000       .debug$S                   10000000     nw:nw.dll
 0000:fffaf000       .debug$S                   10000000     nw:nw.dll
 0000:fffaf000       .debug$S                   10000000     nw:nw.dll
 0000:fffaf000       .debug$S                   10000000     nw:nw.dll
 0000:fffaf000       .debug$S                   10000000     nw:nw.dll
 0000:fffaf000       .debug$S                   10000000     nw:nw.dll
 0000:fffaf000       .debug$S                   10000000     nw:nw.dll
 0000:fffaf000       .debug$S                   10000000     nw:nw.dll
 0000:fffaf000       .debug$S                   10000000     nw:nw.dll
 0000:fffaf000       .debug$S                   10000000     nw:nw.dll
 0000:fffaf000       .debug$S                   10000000     nw:nw.dll
 0000:fffaf000       .debug$S                   10000000     nw:nw.dll
 0000:fffaf000       .debug$S                   10000000     nw:nw.dll
 0000:fffaf000       .debug$S                   10000000     nw:nw.dll
 0000:fffaf000       .debug$S                   10000000     nw:nw.dll
 0000:fffaf000       .debug$S                   10000000     nw:nw.dll
 0000:fffaf000       .debug$S                   10000000     nw:nw.dll
 0000:fffaf000       .debug$S                   10000000     nw:nw.dll
 0000:fffaf000       .debug$S                   10000000     nw:nw.dll
 0000:fffaf000       .debug$S                   10000000     nw:nw.dll
 0000:fffaf000       .debug$S                   10000000     nw:nw.dll
 0000:fffaf000       .debug$S                   10000000     nw:nw.dll
 0000:fffaf000       .debug$S                   10000000     nw:nw.dll
 0000:fffaf000       .debug$S                   10000000     nw:nw.dll
 0000:fffaf000       .debug$S                   10000000     nw:nw.dll
 0000:fffaf000       .debug$S                   10000000     nw:nw.dll
 0000:fffaf000       .debug$S                   10000000     nw:nw.dll
 0000:fffaf000       .debug$S                   10000000     nw:nw.dll
 0000:fffaf000       .debug$S                   10000000     nw:nw.dll
 0000:fffaf000       .debug$S                   10000000     nw:nw.dll
 0000:fffaf000       .debug$S                   10000000     nw:nw.dll
 0000:fffaf000       .debug$S                   10000000     nw:nw.dll
 0000:fffaf000       .debug$S                   10000000     nw:nw.dll
 0000:fffaf000       .debug$S                   10000000     nw:nw.dll
 0000:fffaf000       .debug$S                   10000000     nw:nw.dll
 0000:fffaf000       .debug$S                   10000000     nw:nw.dll
 0000:fffaf000       .debug$S                   10000000     nw:nw.dll
 0000:fffaf000       .debug$S                   10000000     nw:nw.dll
 0000:fffaf000       .debug$S                   10000000     nodejavabridge_bindings.exp
 0000:fffaf000       .debug$S                   10000000     nw:nw.dll
 0000:fffaf000       .debug$S                   10000000     nw:nw.dll
 0000:fffaf000       .debug$S                   10000000     nw:nw.dll
 0000:fffaf000       .debug$S                   10000000     nw:nw.dll
 0000:fffaf000       .debug$S                   10000000     nw:nw.dll
 0000:fffaf000       .debug$S                   10000000     nw:nw.dll
 0000:fffaf000       .debug$S                   10000000     nw:nw.dll
 0000:fffaf000       .debug$S                   10000000     nw:nw.dll
 0000:fffaf000       .debug$S                   10000000     nw:nw.dll
 0000:fffaf000       .debug$S                   10000000     nw:nw.dll
 0000:fffaf000       .debug$S                   10000000     kernel32:KERNEL32.dll
 0000:fffaf000       .debug$S                   10000000     kernel32:KERNEL32.dll
 0000:fffaf000       .debug$S                   10000000     kernel32:KERNEL32.dll
 0000:fffaf000       .debug$S                   10000000     kernel32:KERNEL32.dll
 0000:fffaf000       .debug$S                   10000000     kernel32:KERNEL32.dll
 0000:fffaf000       .debug$S                   10000000     kernel32:KERNEL32.dll
 0000:fffaf000       .debug$S                   10000000     kernel32:KERNEL32.dll
 0000:fffaf000       .debug$S                   10000000     kernel32:KERNEL32.dll
 0000:fffaf000       .debug$S                   10000000     kernel32:KERNEL32.dll
 0000:fffaf000       .debug$S                   10000000     kernel32:KERNEL32.dll
 0000:fffaf000       .debug$S                   10000000     kernel32:KERNEL32.dll
 0000:fffaf000       .debug$S                   10000000     kernel32:KERNEL32.dll
 0000:fffaf000       .debug$S                   10000000     kernel32:KERNEL32.dll
 0000:fffaf000       .debug$S                   10000000     kernel32:KERNEL32.dll
 0000:fffaf000       .debug$S                   10000000     kernel32:KERNEL32.dll
 0000:fffaf000       .debug$S                   10000000     kernel32:KERNEL32.dll
 0000:fffaf000       .debug$S                   10000000     kernel32:KERNEL32.dll
 0000:fffaf000       .debug$S                   10000000     kernel32:KERNEL32.dll
 0000:fffaf000       .debug$S                   10000000     kernel32:KERNEL32.dll
 0000:fffaf000       .debug$S                   10000000     kernel32:KERNEL32.dll
 0000:fffaf000       .debug$S                   10000000     kernel32:KERNEL32.dll
 0000:fffaf000       .debug$S                   10000000     kernel32:KERNEL32.dll
 0000:fffaf000       .debug$S                   10000000     kernel32:KERNEL32.dll
 0000:fffaf000       .debug$S                   10000000     kernel32:KERNEL32.dll
 0000:fffaf000       .debug$S                   10000000     kernel32:KERNEL32.dll
 0000:fffaf000       .debug$S                   10000000     kernel32:KERNEL32.dll
 0000:fffaf000       .debug$S                   10000000     kernel32:KERNEL32.dll
 0000:fffaf000       .debug$S                   10000000     kernel32:KERNEL32.dll
 0000:fffaf000       .debug$S                   10000000     kernel32:KERNEL32.dll
 0000:fffaf000       .debug$S                   10000000     kernel32:KERNEL32.dll
 0000:fffaf000       .debug$S                   10000000     kernel32:KERNEL32.dll
 0000:fffaf000       .debug$S                   10000000     kernel32:KERNEL32.dll
 0000:fffaf000       .debug$S                   10000000     kernel32:KERNEL32.dll
 0000:fffaf000       .debug$S                   10000000     kernel32:KERNEL32.dll
 0000:fffaf000       .debug$S                   10000000     kernel32:KERNEL32.dll
 0000:fffaf000       .debug$S                   10000000     kernel32:KERNEL32.dll
 0000:fffaf000       .debug$S                   10000000     kernel32:KERNEL32.dll
 0000:fffaf000       .debug$S                   10000000     kernel32:KERNEL32.dll
 0000:fffaf000       .debug$S                   10000000     kernel32:KERNEL32.dll
 0000:fffaf000       .debug$S                   10000000     kernel32:KERNEL32.dll
 0000:fffaf000       .debug$S                   10000000     kernel32:KERNEL32.dll
 0000:fffaf000       .debug$S                   10000000     kernel32:KERNEL32.dll
 0000:fffaf000       .debug$S                   10000000     kernel32:KERNEL32.dll
 0000:fffaf000       .debug$S                   10000000     kernel32:KERNEL32.dll
 0000:fffaf000       .debug$S                   10000000     kernel32:KERNEL32.dll
 0000:fffaf000       .debug$S                   10000000     kernel32:KERNEL32.dll
 0000:fffaf000       .debug$S                   10000000     kernel32:KERNEL32.dll
 0000:fffaf000       .debug$S                   10000000     kernel32:KERNEL32.dll
 0000:fffaf000       .debug$S                   10000000     kernel32:KERNEL32.dll
 0000:fffaf000       .debug$S                   10000000     kernel32:KERNEL32.dll
 0000:fffaf000       .debug$S                   10000000     kernel32:KERNEL32.dll
 0000:fffaf000       .debug$S                   10000000     kernel32:KERNEL32.dll
 0000:fffaf000       .debug$S                   10000000     kernel32:KERNEL32.dll
 0000:fffaf000       .debug$S                   10000000     kernel32:KERNEL32.dll
 0000:fffaf000       .debug$S                   10000000     kernel32:KERNEL32.dll
 0000:fffaf000       .debug$S                   10000000     kernel32:KERNEL32.dll
 0000:fffaf000       .debug$S                   10000000     kernel32:KERNEL32.dll
 0000:fffaf000       .debug$S                   10000000     kernel32:KERNEL32.dll
 0000:fffaf000       .debug$S                   10000000     kernel32:KERNEL32.dll
 0000:fffaf000       .debug$S                   10000000     kernel32:KERNEL32.dll
 0000:fffaf000       .debug$S                   10000000     kernel32:KERNEL32.dll
 0000:fffaf000       .debug$S                   10000000     kernel32:KERNEL32.dll
 0000:fffaf000       .debug$S                   10000000     kernel32:KERNEL32.dll
 0000:fffaf000       .debug$S                   10000000     kernel32:KERNEL32.dll
 0000:fffaf000       .debug$S                   10000000     kernel32:KERNEL32.dll
 0000:fffaf000       .debug$S                   10000000     kernel32:KERNEL32.dll
 0000:fffaf000       .debug$S                   10000000     kernel32:KERNEL32.dll
 0000:fffaf000       .debug$S                   10000000     kernel32:KERNEL32.dll
 0000:fffaf000       .debug$S                   10000000     kernel32:KERNEL32.dll
 0000:fffaf000       .debug$S                   10000000     kernel32:KERNEL32.dll
 0000:fffaf000       .debug$S                   10000000     kernel32:KERNEL32.dll
 0000:fffaf000       .debug$S                   10000000     kernel32:KERNEL32.dll
 0000:fffaf000       .debug$S                   10000000     kernel32:KERNEL32.dll
 0000:fffaf000       .debug$S                   10000000     kernel32:KERNEL32.dll
 0000:fffaf000       .debug$S                   10000000     kernel32:KERNEL32.dll
 0000:fffaf000       .debug$S                   10000000     kernel32:KERNEL32.dll
 0000:fffaf000       .debug$S                   10000000     kernel32:KERNEL32.dll
 0000:fffaf000       .debug$S                   10000000     kernel32:KERNEL32.dll
 0000:fffaf000       .debug$S                   10000000     kernel32:KERNEL32.dll
 0000:fffaf000       .debug$S                   10000000     kernel32:KERNEL32.dll
 0000:fffaf000       .debug$S                   10000000     kernel32:KERNEL32.dll
 0000:fffaf000       .debug$S                   10000000     kernel32:KERNEL32.dll
 0000:fffaf000       .debug$S                   10000000     kernel32:KERNEL32.dll
 0000:fffaf000       .debug$S                   10000000     kernel32:KERNEL32.dll
 0000:fffaf000       .debug$S                   10000000     kernel32:KERNEL32.dll
 0000:fffaf000       .debug$S                   10000000     nw:nw.dll
 0000:fffaf000       .debug$S                   10000000     nw:nw.dll
 0000:fffaf000       .debug$S                   10000000     nw:nw.dll
 0000:fffaf000       .debug$S                   10000000     nw:nw.dll
 0000:fffaf000       .debug$S                   10000000     nw:nw.dll
 0000:fffaf000       .debug$S                   10000000     nw:nw.dll
 0000:fffaf000       .debug$S                   10000000     nw:nw.dll
 0000:fffaf000       .debug$S                   10000000     nw:nw.dll
 0000:fffaf000       .debug$S                   10000000     nw:nw.dll
 0000:fffaf000       .debug$S                   10000000     nw:nw.dll
 0000:fffaf000       .debug$S                   10000000     nw:nw.dll
 0000:fffaf000       .debug$S                   10000000     nw:nw.dll
 0000:fffaf000       .debug$S                   10000000     nw:nw.dll
 0000:fffaf000       .debug$S                   10000000     nw:nw.dll
 0000:fffaf000       .debug$S                   10000000     nw:nw.dll
 0000:fffaf000       .debug$S                   10000000     nw:nw.dll
 0000:fffaf000       .debug$S                   10000000     nw:nw.dll
 0000:fffaf000       .debug$S                   10000000     nw:nw.dll
 0000:fffaf000       .debug$S                   10000000     nw:nw.dll
 0000:fffaf000       .debug$S                   10000000     nw:nw.dll
 0000:fffaf000       .debug$S                   10000000     nw:nw.dll
 0000:fffaf000       .debug$S                   10000000     nw:nw.dll
 0000:fffaf000       .debug$S                   10000000     nw:nw.dll
 0000:fffaf000       .debug$S                   10000000     nw:nw.dll
 0000:fffaf000       .debug$S                   10000000     nw:nw.dll
 0000:fffaf000       .debug$S                   10000000     nw:nw.dll
 0000:fffaf000       .debug$S                   10000000     nw:nw.dll
 0000:fffaf000       .debug$S                   10000000     nw:nw.dll
 0000:fffaf000       .debug$S                   10000000     nw:nw.dll
 0000:fffaf000       .debug$S                   10000000     nw:nw.dll
 0000:fffaf000       .debug$S                   10000000     nw:nw.dll
 0000:fffaf000       .debug$S                   10000000     nw:nw.dll
 0001:00000000       ??__E?s_ct@Java@@0V?$Persistent@VFunctionTemplate@v8@@V?$NonCopyablePersistentTraits@VFunctionTemplate@v8@@@2@@Nan@@A@@YAXXZ 10001000 f   java.obj
 0001:00000020       ??__E?s_nativeBindingLocation@Java@@0V?$basic_string@DU?$char_traits@D@std@@V?$allocator@D@2@@std@@A@@YAXXZ 10001020 f   java.obj
 0001:00000050       ??__E?sFunctionTemplates@JavaObject@@0V?$map@V?$basic_string@DU?$char_traits@D@std@@V?$allocator@D@2@@std@@PAV?$Persistent@VFunctionTemplate@v8@@V?$NonCopyablePersistentTraits@VFunctionTemplate@v8@@@2@@Nan@@U?$less@V?$basic_string@DU?$char_traits@D@std@@V?$allocator@D@2@@std@@@2@V?$allocator@U?$pair@$$CBV?$basic_string@DU?$char_traits@D@std@@V?$allocator@D@2@@std@@PAV?$Persistent@VFunctionTemplate@v8@@V?$NonCopyablePersistentTraits@VFunctionTemplate@v8@@@2@@Nan@@@std@@@2@@std@@A@@YAXXZ 10001050 f   javaObject.obj
 0001:00000090       ??__E?s_proxyCt@JavaProxyObject@@0V?$Persistent@VFunctionTemplate@v8@@V?$NonCopyablePersistentTraits@VFunctionTemplate@v8@@@2@@Nan@@A@@YAXXZ 10001090 f   javaObject.obj
 0001:000000b0       ??__EkObject@@YAXXZ        100010b0 f   utils.obj
 0001:000000f0       ??__EkString@@YAXXZ        100010f0 f   utils.obj
 0001:00000130       ??__EkInteger@@YAXXZ       10001130 f   utils.obj
 0001:00000170       ??__EkNumber@@YAXXZ        10001170 f   utils.obj
 0001:000001b0       ??__EkLong@@YAXXZ          100011b0 f   utils.obj
 0001:000001f0       ??__EkDouble@@YAXXZ        100011f0 f   utils.obj
 0001:00000230       ??__EkBoolean@@YAXXZ       10001230 f   utils.obj
 0001:00000268       ??__Einitlocks@std@@YAXXZ  10001268 f   libcpmt:xlock.obj
 0001:0000027e       ??__E_Fac_tidy_reg@std@@YAXXZ 1000127e f   libcpmt:locale0.obj
 0001:0000028a       ??__Eclassic_locale@std@@YAXXZ 1000128a f   libcpmt:locale0.obj
 0001:00000296       ??__Einit_atexit@@YAXXZ    10001296 f   libcpmt:iosptrs.obj
 0001:000002a2       ??__Einitlocks@std@@YAXXZ  100012a2 f   libcpmt:iosptrs.obj
 0001:00000c60       ?FunctionCallbackWrapper@imp@Nan@@YAXABV?$FunctionCallbackInfo@VValue@v8@@@v8@@@Z 10001c60 f   java.obj
 0001:00000d40       ?GetterCallbackWrapper@imp@Nan@@YAXV?$Local@VName@v8@@@v8@@ABV?$PropertyCallbackInfo@VValue@v8@@@4@@Z 10001d40 f   java.obj
 0001:00000d40       ?IndexGetterCallbackWrapper@imp@Nan@@YAXIABV?$PropertyCallbackInfo@VValue@v8@@@v8@@@Z 10001d40 f   javaObject.obj
 0001:00000d40       ?GetterCallbackWrapper@imp@Nan@@YAXV?$Local@VName@v8@@@v8@@ABV?$PropertyCallbackInfo@VValue@v8@@@4@@Z 10001d40 f   javaObject.obj
 0001:00000e20       ?SetterCallbackWrapper@imp@Nan@@YAXV?$Local@VName@v8@@@v8@@V?$Local@VValue@v8@@@4@ABV?$PropertyCallbackInfo@X@4@@Z 10001e20 f   javaObject.obj
 0001:00000e20       ?SetterCallbackWrapper@imp@Nan@@YAXV?$Local@VName@v8@@@v8@@V?$Local@VValue@v8@@@4@ABV?$PropertyCallbackInfo@X@4@@Z 10001e20 f   java.obj
 0001:0000d720       _no_op_initialize          1000e720 f i libucrt:wsetlocale.obj
 0001:00014ee0       _init                      10015ee0 f   nodeJavaBridge.obj
 0001:00014ef0       __register_nodejavabridge_bindings 10015ef0 f   nodeJavaBridge.obj
 0001:00015ad0       ?getArrayElementType@@YA?AV?$basic_string@DU?$char_traits@D@std@@V?$allocator@D@2@@std@@V?$Local@VArray@v8@@@v8@@I@Z 10016ad0 f   utils.obj
 0001:00016e20       $LN161                     10017e20     utils.obj
 0001:000174bc       $LN494                     100184bc     utils.obj
 0001:00019312       _tidy_global               1001a312 f   libcpmt:locale0.obj
 0001:00019864       ?initialize_pointers@@YAHXZ 1001a864 f   libcpmt:winapisupp.obj
 0001:0001a0f5       ?find_pe_section@@YAPAU_IMAGE_SECTION_HEADER@@QAEI@Z 1001b0f5 f   LIBCMT:utility.obj
 0001:0001a457       ?dllmain_crt_dispatch@@YGHQAUHINSTANCE__@@KQAX@Z 1001b457 f   LIBCMT:dll_dllmain.obj
 0001:0001a4aa       ?dllmain_crt_process_attach@@YAHQAUHINSTANCE__@@QAX@Z 1001b4aa f   LIBCMT:dll_dllmain.obj
 0001:0001a5b4       ?dllmain_crt_process_detach@@YAH_N@Z 1001b5b4 f   LIBCMT:dll_dllmain.obj
 0001:0001a646       ?dllmain_dispatch@@YAHQAUHINSTANCE__@@KQAX@Z 1001b646 f   LIBCMT:dll_dllmain.obj
 0001:0001a74c       ?dllmain_raw@@YGHQAUHINSTANCE__@@KQAX@Z 1001b74c f   LIBCMT:dll_dllmain.obj
 0001:0001a840       $$000000                   1001b840     LIBCMT:alloca16.obj
 0001:0001a870       $$000000                   1001b870     LIBCMT:llmul.obj
 0001:0001a8b0       $$000000                   1001b8b0     LIBCMT:ulldiv.obj
 0001:0001ae30       $$000000                   1001be30     LIBCMT:_sehprolg4_.obj
 0001:0001ae8b       ___get_entropy             1001be8b f   LIBCMT:gs_support.obj
 0001:0001afc0       $$000000                   1001bfc0     LIBCMT:chkstk.obj
 0001:0001b4c0       $$000000                   1001c4c0     libvcruntime:memcpy.obj
 0001:0001b724       TrailingUpVec              1001c724     libvcruntime:memcpy.obj
 0001:0001b7d0       TrailingDownVec            1001c7d0     libvcruntime:memcpy.obj
 0001:0001ba40       $$000000                   1001ca40     libvcruntime:memmove.obj
 0001:0001bca4       TrailingUpVec              1001cca4     libvcruntime:memmove.obj
 0001:0001bd50       TrailingDownVec            1001cd50     libvcruntime:memmove.obj
 0001:0001bfc0       $$000000                   1001cfc0     libvcruntime:memset.obj
 0001:0001c260       $$000000                   1001d260     libvcruntime:memchr.obj
 0001:0001d231       $LN1285                    1001e231     libvcruntime:_memcmp_.obj
 0001:0001d320       _ValidateLocalCookies      1001e320 f   libvcruntime:_chandler4_.obj
 0001:0001d661       ??$BuildCatchObjectHelperInternal@$$CBU_s_HandlerType@@@@YAHPAUEHExceptionRecord@@PAXPBU_s_HandlerType@@PBU_s_CatchableType@@@Z 1001e661 f   libvcruntime:frame.obj
 0001:0001d7a0       ??$BuildCatchObjectInternal@$$CBU_s_HandlerType@@@@YAXPAUEHExceptionRecord@@PAXPBU_s_HandlerType@@PBU_s_CatchableType@@@Z 1001e7a0 f   libvcruntime:frame.obj
 0001:0001d839       ??$CatchIt@V__FrameHandler3@@@@YAXPAUEHExceptionRecord@@PAUEHRegistrationNode@@PAU_CONTEXT@@PAXPBU_s_FuncInfo@@PBU_s_HandlerType@@PBU_s_CatchableType@@PBU_s_TryBlockMapEntry@@H1E@Z 1001e839 f   libvcruntime:frame.obj
 0001:0001d8b9       ??$FindHandler@V__FrameHandler3@@@@YAXPAUEHExceptionRecord@@PAUEHRegistrationNode@@PAU_CONTEXT@@PAXPBU_s_FuncInfo@@EH1@Z 1001e8b9 f   libvcruntime:frame.obj
 0001:0001dc47       ??$FindHandlerForForeignException@V__FrameHandler3@@@@YAXPAUEHExceptionRecord@@PAUEHRegistrationNode@@PAU_CONTEXT@@PAXPBU_s_FuncInfo@@HH1@Z 1001ec47 f   libvcruntime:frame.obj
 0001:0001df3a       ?CallCatchBlock@@YAPAXPAUEHExceptionRecord@@PAUEHRegistrationNode@@PAU_CONTEXT@@PBU_s_FuncInfo@@PAXHK@Z 1001ef3a f   libvcruntime:frame.obj
 0001:0001e0fe       ?CallUnexpected@@YAXPBU_s_ESTypeList@@@Z 1001f0fe f   libvcruntime:frame.obj
 0001:0001e11e       __catch$?CallUnexpected@@YAXPBU_s_ESTypeList@@@Z$0 1001f11e f   libvcruntime:frame.obj
 0001:0001e138       ?ExFilterRethrow@@YAHPAU_EXCEPTION_POINTERS@@@Z 1001f138 f   libvcruntime:frame.obj
 0001:0001e282       ?IsInExceptionSpec@@YAEPAUEHExceptionRecord@@PBU_s_ESTypeList@@@Z 1001f282 f   libvcruntime:frame.obj
 0001:0001e350       $$000000                   1001f350     libvcruntime:lowhelpr.obj
 0001:0001e464       ?try_get_first_available_module@@YAPAUHINSTANCE__@@QBW4module_id@?A0x03f7da57@@0@Z 1001f464 f   libvcruntime:winapi_downlevel.obj
 0001:0001e528       ?try_get_function@@YAPAXW4function_id@?A0x03f7da57@@QBDQBW4module_id@2@2@Z 1001f528 f   libvcruntime:winapi_downlevel.obj
 0001:0001e730       $$000000                   1001f730     libvcruntime:_exsup4_.obj
 0001:0001e7c0       __unwind_handler4          1001f7c0 f   libvcruntime:_exsup4_.obj
 0001:0001e8e0       $$000000                   1001f8e0     libvcruntime:_exsup_.obj
 0001:0001e901       __unwind_handler           1001f901 f   libvcruntime:_exsup_.obj
 0001:0001ede0       $$000000                   1001fde0     libucrt:strcspn.obj
 0001:0001ef18       ??$common_vsprintf@Vformat_validation_base@__crt_stdio_output@@D@@YAH_KQADIQBDQAU__crt_locale_pointers@@1@Z 1001ff18 f   libucrt:output.obj
 0001:0001f098       ??$common_vsprintf@Vstandard_base@__crt_stdio_output@@_W@@YAH_KQA_WIQB_WQAU__crt_locale_pointers@@QAD@Z 10020098 f   libucrt:output.obj
 0001:0001f221       ??$common_vsprintf_s@D@@YAH_KQADIQBDQAU__crt_locale_pointers@@1@Z 10020221 f   libucrt:output.obj
 0001:0001f89d       ??R<lambda_c4f131f91cb4ec00a5b0a26aa161b8b4>@@QBEHXZ 1002089d f   libucrt:output.obj
 0001:0001f95e       ??R<lambda_df52180bf14694d51fdefd82613e8f07>@@QBEHXZ 1002095e f   libucrt:output.obj
 0001:0001fd5b       $LN54                      10020d5b     libucrt:output.obj
 0001:0001fe83       $LN52                      10020e83     libucrt:output.obj
 0001:0001ffa3       $LN54                      10020fa3     libucrt:output.obj
 0001:000200c3       $LN54                      100210c3     libucrt:output.obj
 0001:000212df       $LN19                      100222df     libucrt:output.obj
 0001:00022582       ??$common_assert_to_message_box@_W@@YAXQB_W0IQAX@Z 10023582 f   libucrt:assert.obj
 0001:0002261e       ??$common_assert_to_message_box_build_string@_W@@YAXQA_WIQB_W1IQAX@Z 1002361e f   libucrt:assert.obj
 0001:00022b63       ??$common_assert_to_stderr@_W@@YAXQB_W0I@Z 10023b63 f   libucrt:assert.obj
 0001:00022c0e       ?common_assert_to_stderr_direct@@YAXQB_W0I@Z 10023c0e f   libucrt:assert.obj
 0001:00022cbf       ?get_assert_format@@YAPB_W_W@Z 10023cbf f   libucrt:assert.obj
 0001:00022d7c       _memcpy_s                  10023d7c f   libucrt:mbctype.obj
 0001:00022d7c       _memcpy_s                  10023d7c f   libucrt:cfout.obj
 0001:00022d7c       _memcpy_s                  10023d7c f   libucrt:strtod.obj
 0001:00022d7c       _memcpy_s                  10023d7c f   libucrt:assert.obj
 0001:00022f8d       ??R<lambda_082c17da81b0962e08c0587ee0fac50c>@@QBEPADXZ 10023f8d f   libucrt:setlocale.obj
 0001:000230f7       _call_wsetlocale           100240f7 f   libucrt:setlocale.obj
 0001:00023da0       $$000000                   10024da0     libucrt:pow.obj
 0001:00024045       ??$common_tox_l@$1?internal_isupper_l@@YA_NHQAU__crt_locale_pointers@@@Z$1?internal_map_lower@@YAHH0@Z@@YAHHKQAU__crt_locale_pointers@@@Z 10025045 f   libucrt:tolower_toupper.obj
 0001:0002418f       ?internal_isupper_l@@YA_NHQAU__crt_locale_pointers@@@Z 1002518f f   libucrt:tolower_toupper.obj
 0001:00024811       ??R<lambda_6e4b09c48022b2350581041d5f6b0c4c>@@QBE@XZ 10025811 f   libucrt:exit.obj
 0001:000248ed       ?atexit_exception_filter@@YAHK@Z 100258ed f   libucrt:exit.obj
 0001:00024900       ?common_exit@@YAXHW4_crt_exit_cleanup_mode@@W4_crt_exit_return_mode@@@Z 10025900 f   libucrt:exit.obj
 0001:00024956       ?exit_or_terminate_process@@YAXI@Z 10025956 f   libucrt:exit.obj
 0001:00024998       ?is_managed_app@@YA_NXZ    10025998 f   libucrt:exit.obj
 0001:000249dc       ?try_cor_exit_process@@YAXI@Z 100259dc f   libucrt:exit.obj
 0001:00024a80       ??$common_configure_argv@D@@YAHW4_crt_argv_mode@@@Z 10025a80 f   libucrt:argv_parsing.obj
 0001:00024bb6       ??$parse_command_line@D@@YAXPADPAPAD0PAI2@Z 10025bb6 f   libucrt:argv_parsing.obj
 0001:00024d8b       ??$common_initialize_environment_nolock@D@@YAHXZ 10025d8b f   libucrt:environment_initialization.obj
 0001:00024de4       ??$create_environment@D@@YAQAPADQAD@Z 10025de4 f   libucrt:environment_initialization.obj
 0001:00024eb5       ??$free_environment@_W@@YAXQAPA_W@Z 10025eb5 f   libucrt:environment_initialization.obj
 0001:00024eb5       ??$free_environment@D@@YAXQAPAD@Z 10025eb5 f   libucrt:environment_initialization.obj
 0001:00024f24       ??$uninitialize_environment_internal@D@@YAXAAPAPAD@Z 10025f24 f   libucrt:environment_initialization.obj
 0001:00024f3f       ??$uninitialize_environment_internal@_W@@YAXAAPAPA_W@Z 10025f3f f   libucrt:environment_initialization.obj
 0001:000250a7       ??R<lambda_22ebabd17bc4fa466a2aca6d8deb888d>@@QBEHXZ 100260a7 f   libucrt:onexit.obj
 0001:000251e8       ??R<lambda_f03950bc5685219e0bcd2087efbe011e>@@QBEHXZ 100261e8 f   libucrt:onexit.obj
 0001:0002539a       _initialize_global_variables 1002639a f   libucrt:initialization.obj
 0001:000253ac       _initialize_c              100263ac f   libucrt:initialization.obj
 0001:000253c6       _uninitialize_global_state_isolation 100263c6 f   libucrt:initialization.obj
 0001:000253c6       _report_memory_leaks       100263c6 f   libucrt:initialization.obj
 0001:000253c6       _uninitialize_c            100263c6 f   libucrt:initialization.obj
 0001:000253c6       _initialize_global_state_isolation 100263c6 f   libucrt:initialization.obj
 0001:000253c6       _initialize_environment    100263c6 f   libucrt:initialization.obj
 0001:000253c9       _uninitialize_environment  100263c9 f   libucrt:initialization.obj
 0001:000253d1       _initialize_pointers       100263d1 f   libucrt:initialization.obj
 0001:0002540e       _uninitialize_vcruntime    1002640e f   libucrt:initialization.obj
 0001:00025417       _uninitialize_allocated_memory 10026417 f   libucrt:initialization.obj
 0001:0002547b       ??R<lambda_af42a3ee9806e9a7305d451646e05244>@@QBEXAAPAU__crt_multibyte_data@@@Z 1002647b f   libucrt:initialization.obj
 0001:00025ff0       $$000000                   10026ff0     libucrt:strncmp.obj
 0001:000260ea       ?get_global_action_nolock@@YAPAP6AXH@ZH@Z 100270ea f   libucrt:signal.obj
 0001:0002612c       ?siglookup@@YAPAU__crt_signal_action_t@@HQAU1@@Z 1002712c f   libucrt:signal.obj
 0001:0002644e       ?<lambda_invoker_stdcall>@<lambda_29d3c280b90b41c2ae070ffca879996a>@@CGHPA_W@Z 1002744e f   libucrt:winapi_thunks.obj
 0001:00026507       ??R<lambda_29d3c280b90b41c2ae070ffca879996a>@@QBEHPA_W@Z 10027507 f   libucrt:winapi_thunks.obj
 0001:0002654d       ?try_get_AreFileApisANSI@@YAP6GHXZXZ 1002754d f   libucrt:winapi_thunks.obj
 0001:00026567       ?try_get_CompareStringEx@@YAP6GHPB_WK0H0HPAU_nlsversioninfo@@PAXJ@ZXZ 10027567 f   libucrt:winapi_thunks.obj
 0001:00026581       ?try_get_EnumSystemLocalesEx@@YAP6GHP6GHPA_WKJ@ZKJPAX@ZXZ 10027581 f   libucrt:winapi_thunks.obj
 0001:0002659b       ?try_get_GetDateFormatEx@@YAP6GHPB_WKPBU_SYSTEMTIME@@0PA_WH0@ZXZ 1002759b f   libucrt:winapi_thunks.obj
 0001:000265b5       ?try_get_GetLocaleInfoEx@@YAP6GHPB_WKPA_WH@ZXZ 100275b5 f   libucrt:winapi_thunks.obj
 0001:000265cf       ?try_get_GetTimeFormatEx@@YAP6GHPB_WKPBU_SYSTEMTIME@@0PA_WH@ZXZ 100275cf f   libucrt:winapi_thunks.obj
 0001:000265e9       ?try_get_GetUserDefaultLocaleName@@YAP6GHPA_WH@ZXZ 100275e9 f   libucrt:winapi_thunks.obj
 0001:00026603       ?try_get_IsValidLocaleName@@YAP6GHPB_W@ZXZ 10027603 f   libucrt:winapi_thunks.obj
 0001:0002661d       ?try_get_LCIDToLocaleName@@YAP6GHKPA_WHK@ZXZ 1002761d f   libucrt:winapi_thunks.obj
 0001:00026637       ?try_get_LCMapStringEx@@YAP6GHPB_WK0HPA_WHPAU_nlsversioninfo@@PAXJ@ZXZ 10027637 f   libucrt:winapi_thunks.obj
 0001:00026651       ?try_get_LocaleNameToLCID@@YAP6GKPB_WK@ZXZ 10027651 f   libucrt:winapi_thunks.obj
 0001:0002666b       ?try_get_MessageBoxA@@YAP6GHPAUHWND__@@PBD1I@ZXZ 1002766b f   libucrt:winapi_thunks.obj
 0001:00026685       ?try_get_MessageBoxW@@YAP6GHPAUHWND__@@PB_W1I@ZXZ 10027685 f   libucrt:winapi_thunks.obj
 0001:0002669f       ?try_get_first_available_module@@YAPAUHINSTANCE__@@QBW4module_id@?A0x391cf84c@@0@Z 1002769f f   libucrt:winapi_thunks.obj
 0001:00026767       ?try_get_function@@YAPAXW4function_id@?A0x391cf84c@@QBDQBW4module_id@2@2@Z 10027767 f   libucrt:winapi_thunks.obj
 0001:000271c4       ?common_flush_all@@YAH_N@Z 100281c4 f   libucrt:fflush.obj
 0001:00027203       ?common_flush_all_should_try_to_flush_stream@@YA_NV__crt_stdio_stream@@QAH@Z 10028203 f   libucrt:fflush.obj
 0001:00027235       ?is_stream_flushable_or_commitable@@YA_NJ@Z 10028235 f   libucrt:fflush.obj
 0001:0002738c       ?initialize_inherited_file_handles_nolock@@YAXXZ 1002838c f   libucrt:ioinit.obj
 0001:00027442       ?initialize_stdio_handles_nolock@@YAXXZ 10028442 f   libucrt:ioinit.obj
 0001:0002775c       ?construct_ptd@@YAXQAU__acrt_ptd@@QAPAU__crt_locale_data@@@Z 1002875c f   libucrt:per_thread_data.obj
 0001:000277d5       ?destroy_fls@@YGXPAX@Z     100287d5 f   libucrt:per_thread_data.obj
 0001:000277f6       ?destroy_ptd@@YAXQAU__acrt_ptd@@@Z 100287f6 f   libucrt:per_thread_data.obj
 0001:0002789f       ?replace_current_thread_locale_nolock@@YAXQAU__acrt_ptd@@QAU__crt_locale_data@@@Z 1002889f f   libucrt:per_thread_data.obj
 0001:00027f35       ?fp_format_a@@YAHQBNPADIQADIH_NIQAU__crt_locale_pointers@@@Z 10028f35 f   libucrt:cvt.obj
 0001:00028249       ?fp_format_e@@YAHQBNQADI1IH_NIQAU__crt_locale_pointers@@@Z 10029249 f   libucrt:cvt.obj
 0001:000282e4       ?fp_format_e_internal@@YAHQADIH_NIQAU_strflt@@1QAU__crt_locale_pointers@@@Z 100292e4 f   libucrt:cvt.obj
 0001:0002842f       ?fp_format_f@@YAHQBNQADI1IHQAU__crt_locale_pointers@@@Z 1002942f f   libucrt:cvt.obj
 0001:000284bc       ?fp_format_f_internal@@YAHQADIHQAU_strflt@@_NQAU__crt_locale_pointers@@@Z 100294bc f   libucrt:cvt.obj
 0001:00028593       ?fp_format_g@@YAHQBNQADI1IH_NIQAU__crt_locale_pointers@@@Z 10029593 f   libucrt:cvt.obj
 0001:0002865b       ?fp_format_nan_or_infinity@@YAHW4__acrt_fp_class@@_NPADI1@Z 1002965b f   libucrt:cvt.obj
 0001:00028753       ?shift_bytes@@YAXQADI0H@Z  10029753 f   libucrt:cvt.obj
 0001:000288d1       ?fputwc_binary_nolock@@YAG_WV__crt_stdio_stream@@@Z 100298d1 f   libucrt:fputwc.obj
 0001:00028cc5       ??R<lambda_92fe181106aff629c9a2e25713a64969>@@QBEXXZ 10029cc5 f   libucrt:wsetlocale.obj
 0001:00028dc3       ??R<lambda_b163b37eafe0a13f2c371fafeb0365c9>@@QBE@XZ 10029dc3 f   libucrt:wsetlocale.obj
 0001:00029046       __copytlocinfo_nolock      1002a046 f   libucrt:wsetlocale.obj
 0001:000294b2       __wsetlocale_get_all       1002a4b2 f   libucrt:wsetlocale.obj
 0001:0002964b       __wsetlocale_nolock        1002a64b f   libucrt:wsetlocale.obj
 0001:00029930       __wsetlocale_set_cat       1002a930 f   libucrt:wsetlocale.obj
 0001:0002a5e6       ??$common_xtox@K_W@@YAHKQA_WII_N@Z 1002b5e6 f   libucrt:xtoa.obj
 0001:0002a674       ??$common_xtox_s@K_W@@YAHKQA_WII_N@Z 1002b674 f   libucrt:xtoa.obj
 0001:0002a7bc       ??$common_tcsncat_s@_W@@YAHQA_WIQB_WI@Z 1002b7bc f   libucrt:wcsncat_s.obj
 0001:0002a8b0       ??$common_show_message_box@_W@@YAHQB_W0I@Z 1002b8b0 f   libucrt:crtmbox.obj
 0001:0002a9b8       ??R<lambda_ca71763b3c0644891230e4f79ea54fa6>@@QBEHXZ 1002b9b8 f   libucrt:setvbuf.obj
 0001:0002aa52       ?set_buffer@@YAHV__crt_stdio_stream@@QADIH@Z 1002ba52 f   libucrt:setvbuf.obj
 0001:0002aafb       ?_mbstowcs_l_helper@@YAIPA_WPBDIPAU__crt_locale_pointers@@@Z 1002bafb f   libucrt:mbstowcs.obj
 0001:0002ad77       ?_wcstombs_l_helper@@YAIPADPB_WIPAU__crt_locale_pointers@@@Z 1002bd77 f   libucrt:wcstombs.obj
 0001:0002b197       ?InternalGetLocaleInfoA@@YAHQAU__crt_locale_pointers@@QB_WKQADH@Z 1002c197 f   libucrt:getlocaleinfoa.obj
 0001:0002b561       ?__acrt_LCMapStringA_stat@@YAHPAU__crt_locale_pointers@@PB_WKPBDHPADHHH@Z 1002c561 f   libucrt:lcmapstringa.obj
 0001:0002b950       $$000000                   1002c950     libucrt:pow_pentium4.obj
 0001:0002c470       $$000000                   1002d470     libucrt:87tran.obj
 0001:0002c670       $$000000                   1002d670     libucrt:87disp.obj
 0001:0002c870       $$000000                   1002d870     libucrt:genexcep.obj
 0001:0002c8d0       $$000000                   1002d8d0     libucrt:common.obj
 0001:0002ce76       ?<lambda_invoker_cdecl>@<lambda_86056e3c024bff449830248dc1621ed2>@@CAHPBX0@Z 1002de76 f   libucrt:argv_wildcards.obj
 0001:0002ce8e       ??$common_expand_argv_wildcards@D@@YAHQAPADQAPAPAD@Z 1002de8e f   libucrt:argv_wildcards.obj
 0001:0002d06e       ??$copy_and_add_argument_to_buffer@D@@YAHQBD0IAAV?$argument_list@D@?A0x5f5c8891@@@Z 1002e06e f   libucrt:argv_wildcards.obj
 0001:0002d122       ??$expand_argument_wildcards@D@@YAHQAD0AAV?$argument_list@D@?A0x5f5c8891@@@Z 1002e122 f   libucrt:argv_wildcards.obj
 0001:0002d2a6       ?expand_if_necessary@?$argument_list@D@?A0x5f5c8891@@AAEHXZ 1002e2a6 f   libucrt:argv_wildcards.obj
 0001:0002d3a3       ??R<lambda_ae742caa10f662c28703da3d2ea5e57e>@@QBEXXZ 1002e3a3 f   libucrt:mbctype.obj
 0001:0002d426       ?CPtoLocaleName@@YAPB_WH@Z 1002e426 f   libucrt:mbctype.obj
 0001:0002d464       ?getSystemCP@@YAHH@Z       1002e464 f   libucrt:mbctype.obj
 0001:0002d4d7       ?setSBCS@@YAXPAU__crt_multibyte_data@@@Z 1002e4d7 f   libucrt:mbctype.obj
 0001:0002d53c       ?setSBUpLow@@YAXPAU__crt_multibyte_data@@@Z 1002e53c f   libucrt:mbctype.obj
 0001:0002d6d0       ?setmbcp_internal@@YAHH_NQAU__acrt_ptd@@QAPAU__crt_multibyte_data@@@Z 1002e6d0 f   libucrt:mbctype.obj
 0001:0002d7dd       ?update_thread_multibyte_data_internal@@YAPAU__crt_multibyte_data@@QAU__acrt_ptd@@QAU1@@Z 1002e7dd f   libucrt:mbctype.obj
 0001:0002dac2       ?x_ismbbtype_l@@YAHPAU__crt_locale_pointers@@IHH@Z 1002eac2 f   libucrt:ismbbyte.obj
 0001:0002db4c       ?find_end_of_double_null_terminated_sequence@@YAPB_WQB_W@Z 1002eb4c f   libucrt:get_environment_from_os.obj
 0001:0002ddda       ?GetTableIndexFromLocaleName@@YAHPB_W@Z 1002edda f   libucrt:lcidtoname_downlevel.obj
 0001:0002e191       ?write_double_translated_ansi_nolock@@YA?AUwrite_result@?A0x17268360@@HQBDI@Z 1002f191 f   libucrt:write.obj
 0001:0002e356       ?write_double_translated_unicode_nolock@@YA?AUwrite_result@?A0x17268360@@QBDI@Z 1002f356 f   libucrt:write.obj
 0001:0002e3c3       ?write_requires_double_translation_nolock@@YA_NH@Z 1002f3c3 f   libucrt:write.obj
 0001:0002e439       ?write_text_ansi_nolock@@YA?AUwrite_result@?A0x17268360@@HQBDI@Z 1002f439 f   libucrt:write.obj
 0001:0002e518       ?write_text_utf16le_nolock@@YA?AUwrite_result@?A0x17268360@@HQBDI@Z 1002f518 f   libucrt:write.obj
 0001:0002e606       ?write_text_utf8_nolock@@YA?AUwrite_result@?A0x17268360@@HQBDI@Z 1002f606 f   libucrt:write.obj
 0001:00030500       ??$common_flush_and_write_nolock@D@@YAHHV__crt_stdio_stream@@@Z 10031500 f   libucrt:_flsbuf.obj
 0001:00030611       ??$common_flush_and_write_nolock@_W@@YAHHV__crt_stdio_stream@@@Z 10031611 f   libucrt:_flsbuf.obj
 0001:00030726       ??$write_buffer_nolock@D@@YA_NDV__crt_stdio_stream@@@Z 10031726 f   libucrt:_flsbuf.obj
 0001:000307f2       ??$write_buffer_nolock@_W@@YA_N_WV__crt_stdio_stream@@@Z 100317f2 f   libucrt:_flsbuf.obj
 0001:00031071       ?free_crt_array_internal@@YAXQAPBXI@Z 10032071 f   libucrt:inittime.obj
 0001:000310ad       ?initialize_lc_time@@YA_NQAU__crt_lc_time_data@@QAU__crt_locale_data@@@Z 100320ad f   libucrt:inittime.obj
 0001:0003148d       ??$common_tcsncpy_s@_W@@YAHQA_WIQB_WI@Z 1003248d f   libucrt:wcsncpy_s.obj
 0001:000315fa       _GetLocaleNameFromDefault  100325fa f   libucrt:get_qualified_locale.obj
 0001:00031683       _GetLocaleNameFromLangCountry 10032683 f   libucrt:get_qualified_locale.obj
 0001:0003171d       _GetLocaleNameFromLanguage 1003271d f   libucrt:get_qualified_locale.obj
 0001:00031778       _GetPrimaryLen             10032778 f   libucrt:get_qualified_locale.obj
 0001:000317ac       _LangCountryEnumProcEx@12  100327ac f   libucrt:get_qualified_locale.obj
 0001:00031a96       _LanguageEnumProcEx@12     10032a96 f   libucrt:get_qualified_locale.obj
 0001:00031b57       _ProcessCodePage           10032b57 f   libucrt:get_qualified_locale.obj
 0001:00031c3e       _TestDefaultCountry        10032c3e f   libucrt:get_qualified_locale.obj
 0001:00031c89       _TranslateName             10032c89 f   libucrt:get_qualified_locale.obj
 0001:00031ec7       _CountryEnumProc@4         10032ec7 f   libucrt:getqloc_downlevel.obj
 0001:00031f70       _GetLcidFromCountry        10032f70 f   libucrt:getqloc_downlevel.obj
 0001:00031fbb       _GetLcidFromLangCountry    10032fbb f   libucrt:getqloc_downlevel.obj
 0001:00032056       _GetLcidFromLanguage       10033056 f   libucrt:getqloc_downlevel.obj
 0001:000320b7       _GetPrimaryLen             100330b7 f   libucrt:getqloc_downlevel.obj
 0001:000320e3       _LangCountryEnumProc@4     100330e3 f   libucrt:getqloc_downlevel.obj
 0001:00032333       _LanguageEnumProc@4        10033333 f   libucrt:getqloc_downlevel.obj
 0001:0003240b       _LcidFromHexString         1003340b f   libucrt:getqloc_downlevel.obj
 0001:0003245c       _ProcessCodePage           1003345c f   libucrt:getqloc_downlevel.obj
 0001:0003253f       _TestDefaultCountry        1003353f f   libucrt:getqloc_downlevel.obj
 0001:00032563       _TestDefaultLanguage       10033563 f   libucrt:getqloc_downlevel.obj
 0001:000325d3       _TranslateName             100335d3 f   libucrt:getqloc_downlevel.obj
 0001:00032837       ??$common_tcsncpy_s@D@@YAHQADIQBDI@Z 10033837 f   libucrt:strncpy_s.obj
 0001:000328f3       ___get_abstract_control_sse2 100338f3 f   libucrt:_fenvutils.obj
 0001:00032970       ___get_abstract_control_x87 10033970 f   libucrt:_fenvutils.obj
 0001:000329e3       ___get_machine_control     100339e3 f   libucrt:_fenvutils.obj
 0001:00032a54       ___get_machine_control_sse2 10033a54 f   libucrt:_fenvutils.obj
 0001:00032ad4       ___get_machine_status_sse2 10033ad4 f   libucrt:_fenvutils.obj
 0001:00032b35       ___get_machine_status_x87  10033b35 f   libucrt:_fenvutils.obj
 0001:00033190       ?shortsort@@YAXPAD0IP6AHPBX1@Z@Z 10034190 f   libucrt:qsort.obj
 0001:00033230       ?swap@@YAXPAD0I@Z          10034230 f   libucrt:qsort.obj
 0001:00033610       $$000000                   10034610     libucrt:strpbrk.obj
 0001:000336f4       ?initialize_multibyte@@YAHXZ 100346f4 f   libucrt:multibyte_initializer.obj
 0001:00033941       ??$common_lseek@_J@@YA_JH_JH@Z 10034941 f   libucrt:lseek.obj
 0001:00033a46       ??$common_lseek_nolock@_J@@YA_JH_JH@Z 10034a46 f   libucrt:lseek.obj
 0001:00033c00       $$000000                   10034c00     libucrt:log10.obj
 0001:00033d50       $$000000                   10034d50     libucrt:ceil_pentium4.obj
 0001:000341e0       $$000000                   100351e0     libucrt:log10_pentium4.obj
 0001:00034530       $$000000                   10035530     libucrt:_strnicm.obj
 0001:000346f0       $$000000                   100356f0     LIBCMT:ulldvrm.obj
 0001:00034790       $$000000                   10035790     LIBCMT:_sehprolg4gs_.obj
 0001:000347f0       $$000000                   100357f0     LIBCMT:llshl.obj
 0001:00034810       $$000000                   10035810     LIBCMT:ullshr.obj
 0001:00034830       $$000000                   10035830     LIBCMT:lldvrm.obj
 0001:00034910       $$000000                   10035910     LIBCMT:_ftol2_.obj
 0001:000349d0       $$000000                   100359d0     libvcruntime:strrchr.obj
 0001:00034b10       $$000000                   10035b10     libvcruntime:strchr.obj
 0001:00034d10       $$000000                   10035d10     LIBCMT:_ftol3_.obj
 0001:00035087       __ehhandler$??1_Fac_node@std@@QAE@XZ 10036087 f   libcpmt:locale0.obj
 0001:000350a2       __ehhandler$??1_Init_atexit@@QAE@XZ 100360a2 f   libcpmt:iosptrs.obj
 0001:000350a2       __ehhandler$??1_Locimp@locale@std@@MAE@XZ 100360a2 f   libcpmt:locale0.obj
 0001:000350bd       __unwindfunclet$?_Init@locale@std@@CAPAV_Locimp@12@_N@Z$0 100360bd f   libcpmt:locale0.obj
 0001:000350c5       __ehhandler$?_Init@locale@std@@CAPAV_Locimp@12@_N@Z 100360c5 f   libcpmt:locale0.obj
 0001:000350e0       __unwindfunclet$?_Locimp_dtor@_Locimp@locale@std@@CAXPAV123@@Z$0 100360e0 f   libcpmt:locale0.obj
 0001:000350e8       __ehhandler$?_Locimp_dtor@_Locimp@locale@std@@CAXPAV123@@Z 100360e8 f   libcpmt:locale0.obj
 0001:00035103       __ehhandler$?CallUnexpected@@YAXPBU_s_ESTypeList@@@Z 10036103 f   libvcruntime:frame.obj
 0001:00035120       ??__F?s_ct@Java@@0V?$Persistent@VFunctionTemplate@v8@@V?$NonCopyablePersistentTraits@VFunctionTemplate@v8@@@2@@Nan@@A@@YAXXZ 10036120 f   java.obj
 0001:00035130       ??__F?s_nativeBindingLocation@Java@@0V?$basic_string@DU?$char_traits@D@std@@V?$allocator@D@2@@std@@A@@YAXXZ 10036130 f   java.obj
 0001:00035190       ??__F?sFunctionTemplates@JavaObject@@0V?$map@V?$basic_string@DU?$char_traits@D@std@@V?$allocator@D@2@@std@@PAV?$Persistent@VFunctionTemplate@v8@@V?$NonCopyablePersistentTraits@VFunctionTemplate@v8@@@2@@Nan@@U?$less@V?$basic_string@DU?$char_traits@D@std@@V?$allocator@D@2@@std@@@2@V?$allocator@U?$pair@$$CBV?$basic_string@DU?$char_traits@D@std@@V?$allocator@D@2@@std@@PAV?$Persistent@VFunctionTemplate@v8@@V?$NonCopyablePersistentTraits@VFunctionTemplate@v8@@@2@@Nan@@@std@@@2@@std@@A@@YAXXZ 10036190 f   javaObject.obj
 0001:000351c0       ??__F?s_proxyCt@JavaProxyObject@@0V?$Persistent@VFunctionTemplate@v8@@V?$NonCopyablePersistentTraits@VFunctionTemplate@v8@@@2@@Nan@@A@@YAXXZ 100361c0 f   javaObject.obj
 0001:000351d0       ??__FkObject@@YAXXZ        100361d0 f   utils.obj
 0001:00035230       ??__FkString@@YAXXZ        10036230 f   utils.obj
 0001:00035290       ??__FkInteger@@YAXXZ       10036290 f   utils.obj
 0001:000352f0       ??__FkNumber@@YAXXZ        100362f0 f   utils.obj
 0001:00035350       ??__FkLong@@YAXXZ          10036350 f   utils.obj
 0001:000353b0       ??__FkDouble@@YAXXZ        100363b0 f   utils.obj
 0001:00035410       ??__FkBoolean@@YAXXZ       10036410 f   utils.obj
 0001:00035466       ??__Finitlocks@std@@YAXXZ  10036466 f   libcpmt:xlock.obj
 0001:00035470       ??__F_Fac_tidy_reg@std@@YAXXZ 10036470 f   libcpmt:locale0.obj
 0001:0003547a       ??__Fclassic_locale@std@@YAXXZ 1003647a f   libcpmt:locale0.obj
 0001:00035484       ??__Finit_atexit@@YAXXZ    10036484 f   libcpmt:iosptrs.obj
 0001:0003548e       ??__Finitlocks@std@@YAXXZ  1003648e f   libcpmt:iosptrs.obj
 0002:000002c8       ?initlocks$initializer$@std@@3P6AXXZA 100372c8     libcpmt:xlock.obj
 0002:000002cc       ?initlocks$initializer$@std@@3P6AXXZA 100372cc     libcpmt:iosptrs.obj
 0002:000002d0       ?init_atexit$initializer$@@3P6AXXZA 100372d0     libcpmt:iosptrs.obj
 0002:000002d4       ?_Fac_tidy_reg$initializer$@std@@3P6AXXZA 100372d4     libcpmt:locale0.obj
 0002:000002d8       ?classic_locale$initializer$@std@@3P6AXXZA 100372d8     libcpmt:locale0.obj
 0002:000002dc       ??s_nativeBindingLocation$initializer$@Java@@0P6AXXZA@@3P6AXXZA 100372dc     java.obj
 0002:000002e0       ??s_ct$initializer$@Java@@0P6AXXZA@@3P6AXXZA 100372e0     java.obj
 0002:000002e4       ??sFunctionTemplates$initializer$@JavaObject@@0P6AXXZA@@3P6AXXZA 100372e4     javaObject.obj
 0002:000002e8       ??s_proxyCt$initializer$@JavaProxyObject@@0P6AXXZA@@3P6AXXZA 100372e8     javaObject.obj
 0002:000002ec       ?kNumber$initializer$@@3P6AXXZA 100372ec     utils.obj
 0002:000002f0       ?kDouble$initializer$@@3P6AXXZA 100372f0     utils.obj
 0002:000002f4       ?kInteger$initializer$@@3P6AXXZA 100372f4     utils.obj
 0002:000002f8       ?kLong$initializer$@@3P6AXXZA 100372f8     utils.obj
 0002:000002fc       ?kBoolean$initializer$@@3P6AXXZA 100372fc     utils.obj
 0002:00000300       ?kString$initializer$@@3P6AXXZA 10037300     utils.obj
 0002:00000304       ?kObject$initializer$@@3P6AXXZA 10037304     utils.obj
 0002:00000314       ?pinit@@3P6AHXZA           10037314     libcpmt:winapisupp.obj
 0002:00000408       ?_Sys_errtab@std@@3QBU_Sys_errtab_t@1@B 10037408     libcpmt:syserror.obj
 0002:00000678       ?_Win_errtab@std@@3QBU_Win_errtab_t@1@B 10037678     libcpmt:syserror.obj
 0002:0000132c       _digits                    1003832c     libcpmt:xstoul.obj
 0002:00001354       _ndigs                     10038354     libcpmt:xstoul.obj
 0002:0000137c       _digits                    1003837c     libcpmt:xstoull.obj
 0002:000013a4       _ndigs                     100383a4     libcpmt:xstoull.obj
 0002:000013d0       ?LcidToLocaleNameTable@@3QBULcidToLocaleName@@B 100383d0     libcpmt:winapinls.obj
 0002:00001af0       ?LocaleNameToIndexTable@@3QBULocaleNameIndex@@B 10038af0     libcpmt:winapinls.obj
 0002:0000348c       _GS_ExceptionPointers      1003a48c     LIBCMT:gs_report.obj
 0002:000034b8       ?ExceptionTemplate@?1??_CxxThrowException@@9@8@4UEHExceptionRecord@@B 1003a4b8     libvcruntime:throw.obj
 0002:000034f8       ?module_names@?A0x03f7da57@@3QBQB_WB 1003a4f8     libvcruntime:winapi_downlevel.obj
 0002:000035b0       ?candidate_modules@?1??try_get_FlsAlloc@@YAP6GKP6GXPAX@Z@ZXZ@4QBW4module_id@?A0x03f7da57@@B 1003a5b0     libvcruntime:winapi_downlevel.obj
 0002:000035b8       ?candidate_modules@?1??try_get_FlsFree@@YAP6GHK@ZXZ@4QBW4module_id@?A0x03f7da57@@B 1003a5b8     libvcruntime:winapi_downlevel.obj
 0002:000035c0       ?candidate_modules@?1??try_get_FlsGetValue@@YAP6GPAXK@ZXZ@4QBW4module_id@?A0x03f7da57@@B 1003a5c0     libvcruntime:winapi_downlevel.obj
 0002:000035c8       ?candidate_modules@?1??try_get_FlsSetValue@@YAP6GHKPAX@ZXZ@4QBW4module_id@?A0x03f7da57@@B 1003a5c8     libvcruntime:winapi_downlevel.obj
 0002:000035d0       ?candidate_modules@?1??try_get_InitializeCriticalSectionEx@@YAP6GHPAU_RTL_CRITICAL_SECTION@@KK@ZXZ@4QBW4module_id@?A0x03f7da57@@B 1003a5d0     libvcruntime:winapi_downlevel.obj
 0002:000035d8       ?tokenTable@@3QBQBDB       1003a5d8     libvcruntime:undname.obj
 0002:00003618       ?nameTable@@3QBQBDB        1003a618     libvcruntime:undname.obj
 0002:00003760       ?rttiTable@@3QBQBDB        1003a760     libvcruntime:undname.obj
 0002:00004910       ?errtable@@3QBUerrentry@?A0x31fdb9ec@@B 1003b910     libucrt:errno.obj
 0002:00005440       POW_name                   1003c440     libucrt:pow.obj
 0002:00005518       ___acrt_initializers       1003c518     libucrt:initialization.obj
 0002:00005590       ?module_names@?A0x391cf84c@@3QBQB_WB 1003c590     libucrt:winapi_thunks.obj
 0002:00005a78       ?candidate_modules@?1??try_get_AreFileApisANSI@@YAP6GHXZXZ@4QBW4module_id@?A0x391cf84c@@B 1003ca78     libucrt:winapi_thunks.obj
 0002:00005a8c       ?candidate_modules@?1??try_get_CompareStringEx@@YAP6GHPB_WK0H0HPAU_nlsversioninfo@@PAXJ@ZXZ@4QBW4module_id@?A0x391cf84c@@B 1003ca8c     libucrt:winapi_thunks.obj
 0002:00005aa4       ?candidate_modules@?1??try_get_EnumSystemLocalesEx@@YAP6GHP6GHPA_WKJ@ZKJPAX@ZXZ@4QBW4module_id@?A0x391cf84c@@B 1003caa4     libucrt:winapi_thunks.obj
 0002:00005ac0       ?candidate_modules@?1??try_get_FlsAlloc@@YAP6GKP6GXPAX@Z@ZXZ@4QBW4module_id@?A0x391cf84c@@B 1003cac0     libucrt:winapi_thunks.obj
 0002:00005ad4       ?candidate_modules@?1??try_get_FlsFree@@YAP6GHK@ZXZ@4QBW4module_id@?A0x391cf84c@@B 1003cad4     libucrt:winapi_thunks.obj
 0002:00005ae4       ?candidate_modules@?1??try_get_FlsGetValue@@YAP6GPAXK@ZXZ@4QBW4module_id@?A0x391cf84c@@B 1003cae4     libucrt:winapi_thunks.obj
 0002:00005af8       ?candidate_modules@?1??try_get_FlsSetValue@@YAP6GHKPAX@ZXZ@4QBW4module_id@?A0x391cf84c@@B 1003caf8     libucrt:winapi_thunks.obj
 0002:00005b0c       ?candidate_modules@?1??try_get_GetActiveWindow@@YAP6GPAUHWND__@@XZXZ@4QBW4module_id@?A0x391cf84c@@B 1003cb0c     libucrt:winapi_thunks.obj
 0002:00005b24       ?candidate_modules@?1??try_get_GetDateFormatEx@@YAP6GHPB_WKPBU_SYSTEMTIME@@0PA_WH0@ZXZ@4QBW4module_id@?A0x391cf84c@@B 1003cb24     libucrt:winapi_thunks.obj
 0002:00005b3c       ?candidate_modules@?1??try_get_GetLastActivePopup@@YAP6GPAUHWND__@@PAU2@@ZXZ@4QBW4module_id@?A0x391cf84c@@B 1003cb3c     libucrt:winapi_thunks.obj
 0002:00005b58       ?candidate_modules@?1??try_get_GetLocaleInfoEx@@YAP6GHPB_WKPA_WH@ZXZ@4QBW4module_id@?A0x391cf84c@@B 1003cb58     libucrt:winapi_thunks.obj
 0002:00005b70       ?candidate_modules@?1??try_get_GetProcessWindowStation@@YAP6GPAUHWINSTA__@@XZXZ@4QBW4module_id@?A0x391cf84c@@B 1003cb70     libucrt:winapi_thunks.obj
 0002:00005b90       ?candidate_modules@?1??try_get_GetTimeFormatEx@@YAP6GHPB_WKPBU_SYSTEMTIME@@0PA_WH@ZXZ@4QBW4module_id@?A0x391cf84c@@B 1003cb90     libucrt:winapi_thunks.obj
 0002:00005ba8       ?candidate_modules@?1??try_get_GetUserDefaultLocaleName@@YAP6GHPA_WH@ZXZ@4QBW4module_id@?A0x391cf84c@@B 1003cba8     libucrt:winapi_thunks.obj
 0002:00005bcc       ?candidate_modules@?1??try_get_GetUserObjectInformationW@@YAP6GHPAXH0KPAK@ZXZ@4QBW4module_id@?A0x391cf84c@@B 1003cbcc     libucrt:winapi_thunks.obj
 0002:00005bf0       ?candidate_modules@?1??try_get_InitializeCriticalSectionEx@@YAP6GHPAU_RTL_CRITICAL_SECTION@@KK@ZXZ@4QBW4module_id@?A0x391cf84c@@B 1003cbf0     libucrt:winapi_thunks.obj
 0002:00005c14       ?candidate_modules@?1??try_get_IsValidLocaleName@@YAP6GHPB_W@ZXZ@4QBW4module_id@?A0x391cf84c@@B 1003cc14     libucrt:winapi_thunks.obj
 0002:00005c30       ?candidate_modules@?1??try_get_LCMapStringEx@@YAP6GHPB_WK0HPA_WHPAU_nlsversioninfo@@PAXJ@ZXZ@4QBW4module_id@?A0x391cf84c@@B 1003cc30     libucrt:winapi_thunks.obj
 0002:00005c48       ?candidate_modules@?1??try_get_LCIDToLocaleName@@YAP6GHKPA_WHK@ZXZ@4QBW4module_id@?A0x391cf84c@@B 1003cc48     libucrt:winapi_thunks.obj
 0002:00005c64       ?candidate_modules@?1??try_get_LocaleNameToLCID@@YAP6GKPB_WK@ZXZ@4QBW4module_id@?A0x391cf84c@@B 1003cc64     libucrt:winapi_thunks.obj
 0002:00005c80       ?candidate_modules@?1??try_get_MessageBoxA@@YAP6GHPAUHWND__@@PBD1I@ZXZ@4QBW4module_id@?A0x391cf84c@@B 1003cc80     libucrt:winapi_thunks.obj
 0002:00005c94       ?candidate_modules@?1??try_get_MessageBoxW@@YAP6GHPAUHWND__@@PB_W1I@ZXZ@4QBW4module_id@?A0x391cf84c@@B 1003cc94     libucrt:winapi_thunks.obj
 0002:00005ca8       ?candidate_modules@?1??try_get_AppPolicyGetProcessTerminationMethod@@YAP6GJPAXPAW4AppPolicyProcessTerminationMethod@@@ZXZ@4QBW4module_id@?A0x391cf84c@@B 1003cca8     libucrt:winapi_thunks.obj
 0002:00005cd4       ?candidate_modules@?1??try_get_AppPolicyGetShowDeveloperDiagnostic@@YAP6GJPAXPAW4AppPolicyShowDeveloperDiagnostic@@@ZXZ@4QBW4module_id@?A0x391cf84c@@B 1003ccd4     libucrt:winapi_thunks.obj
 0002:00005cfc       ?candidate_modules@?1??try_get_AppPolicyGetWindowingModel@@YAP6GJPAXPAW4AppPolicyWindowingModel@@@ZXZ@4QBW4module_id@?A0x391cf84c@@B 1003ccfc     libucrt:winapi_thunks.obj
 0002:00005e30       __first_127char            1003ce30     libucrt:wsetlocale.obj
 0002:00006398       ?_names@?1??_get_fname@@9@9 1003d398     libucrt:fpexcept.obj
 0002:00006560       _over                      1003d560     libucrt:fpctrl.obj
 0002:0000656c       _under                     1003d56c     libucrt:fpctrl.obj
 0002:00006580       Shifter                    1003d580     libucrt:pow_pentium4.obj
 0002:00006590       SIGMASK                    1003d590     libucrt:pow_pentium4.obj
 0002:000065a0       ONEMASK                    1003d5a0     libucrt:pow_pentium4.obj
 0002:000065b0       ABSVALMASK                 1003d5b0     libucrt:pow_pentium4.obj
 0002:000065c0       cev                        1003d5c0     libucrt:pow_pentium4.obj
 0002:000065e8       HALFSIG                    1003d5e8     libucrt:pow_pentium4.obj
 0002:000065f0       LHN                        1003d5f0     libucrt:pow_pentium4.obj
 0002:000065f8       sNaN                       1003d5f8     libucrt:pow_pentium4.obj
 0002:00006600       INF                        1003d600     libucrt:pow_pentium4.obj
 0002:00006608       NEG_INF                    1003d608     libucrt:pow_pentium4.obj
 0002:00006610       NEG_ZERO                   1003d610     libucrt:pow_pentium4.obj
 0002:00006618       NEG_BIG                    1003d618     libucrt:pow_pentium4.obj
 0002:00006620       POS_BIG                    1003d620     libucrt:pow_pentium4.obj
 0002:00006628       EMIN                       1003d628     libucrt:pow_pentium4.obj
 0002:00006630       QIND                       1003d630     libucrt:pow_pentium4.obj
 0002:0000665e       _log2max                   1003d65e     libucrt:87tran.obj
 0002:00006668       _smallarg                  1003d668     libucrt:87tran.obj
 0002:00006672       _half                      1003d672     libucrt:87tran.obj
 0002:000066be       One                        1003d6be     libucrt:87disp.obj
 0002:000066c6       Three                      1003d6c6     libucrt:87disp.obj
 0002:000066ce       XAMtoTagTab                1003d6ce     libucrt:87disp.obj
 0002:000066e0       One                        1003d6e0     libucrt:common.obj
 0002:000066f4       DblMax                     1003d6f4     libucrt:common.obj
 0002:000066fc       DblMin                     1003d6fc     libucrt:common.obj
 0002:00006704       IeeeAdjO                   1003d704     libucrt:common.obj
 0002:0000670c       IeeeAdjU                   1003d70c     libucrt:common.obj
 0002:00006714       _infinity                  1003d714     libucrt:common.obj
 0002:0000671c       _zero                      1003d71c     libucrt:common.obj
 0002:00006730       ?_mb_locale_names@@3QBQB_WB 1003d730     libucrt:mbctype.obj
 0002:00006770       ?LcidToLocaleNameTable@?A0x881e4c05@@3QBULcidToLocaleName@1@B 1003d770     libucrt:lcidtoname_downlevel.obj
 0002:00007898       ?LocaleNameToIndexTable@?A0x881e4c05@@3QBULocaleNameIndex@1@B 1003e898     libucrt:lcidtoname_downlevel.obj
 0002:0000ce40       LOG_name                   10043e40     libucrt:log10.obj
 0002:0000ce50       _One                       10043e50     libucrt:ceil_pentium4.obj
 0002:0000ce60       _Bns                       10043e60     libucrt:ceil_pentium4.obj
 0002:0000ce70       _Zero                      10043e70     libucrt:ceil_pentium4.obj
 0002:0000ce80       _S                         10043e80     libucrt:ceil_pentium4.obj
 0002:0000ce90       _NegZero                   10043e90     libucrt:ceil_pentium4.obj
 0002:0000ceb0       emask                      10043eb0     libucrt:log10_pentium4.obj
 0002:0000cec0       CC                         10043ec0     libucrt:log10_pentium4.obj
 0002:0000ced0       Magic                      10043ed0     libucrt:log10_pentium4.obj
 0002:0000cee0       hi_mask                    10043ee0     libucrt:log10_pentium4.obj
 0002:0000cef0       LOG10_2                    10043ef0     libucrt:log10_pentium4.obj
 0002:0000cf00       place_L                    10043f00     libucrt:log10_pentium4.obj
 0002:0000cf20       One                        10043f20     libucrt:log10_pentium4.obj
 0002:0000cf30       Zero                       10043f30     libucrt:log10_pentium4.obj
 0002:0000cf40       Two52                      10043f40     libucrt:log10_pentium4.obj
 0002:0000cf50       Infs                       10043f50     libucrt:log10_pentium4.obj
 0002:0000cf60       NaN                        10043f60     libucrt:log10_pentium4.obj
 0002:0000cf70       coeff                      10043f70     libucrt:log10_pentium4.obj
 0002:0000eb1c       ?piecewise_construct@std@@3Upiecewise_construct_t@1@B 10045b1c     javaObject.obj
 0002:0000f4f0       _Int32ToUInt32             100464f0     LIBCMT:_ftol3_.obj
 0002:0000f4f8       _DP2to32                   100464f8     LIBCMT:_ftol3_.obj
 0002:0000f500       _MantissaMask              10046500     LIBCMT:_ftol3_.obj
 0002:0000f508       _IntegerBit                10046508     LIBCMT:_ftol3_.obj
 0002:0000f510       _SignBit64                 10046510     LIBCMT:_ftol3_.obj
 0002:0000f518       _MinFP64                   10046518     LIBCMT:_ftol3_.obj
 0002:0000f520       _MinInt64                  10046520     LIBCMT:_ftol3_.obj
 0002:0000f528       _MaxInt64                  10046528     LIBCMT:_ftol3_.obj
 0002:0000f530       _MaxUInt64                 10046530     LIBCMT:_ftol3_.obj
 0002:0000f538       _MaxFP32                   10046538     LIBCMT:_ftol3_.obj
 0002:0000f540       _MinFP32                   10046540     LIBCMT:_ftol3_.obj
 0002:0000f548       _MinSubInexact             10046548     LIBCMT:_ftol3_.obj
 0002:0000f550       _FpExcptTable              10046550     LIBCMT:_ftol3_.obj
 0002:0000f560       _i1075                     10046560     LIBCMT:_ftol3_.obj
 0002:0000f564       _i1087                     10046564     LIBCMT:_ftol3_.obj
 0002:0000f568       _x0800                     10046568     LIBCMT:_ftol3_.obj
 0002:0000f56c       _x17FF                     1004656c     LIBCMT:_ftol3_.obj
 0002:0000f570       _CWMask                    10046570     LIBCMT:_ftol3_.obj
 0002:0000ffdc       __ehfuncinfo$??1_Fac_node@std@@QAE@XZ 10046fdc     libcpmt:locale0.obj
 0002:0000ffdc       __ehfuncinfo$??1_Locimp@locale@std@@MAE@XZ 10046fdc     libcpmt:locale0.obj
 0002:0000ffdc       __ehfuncinfo$??1_Init_atexit@@QAE@XZ 10046fdc     libcpmt:iosptrs.obj
 0002:00010000       __unwindtable$?_Locimp_dtor@_Locimp@locale@std@@CAXPAV123@@Z 10047000     libcpmt:locale0.obj
 0002:00010008       __ehfuncinfo$?_Locimp_dtor@_Locimp@locale@std@@CAXPAV123@@Z 10047008     libcpmt:locale0.obj
 0002:0001002c       __unwindtable$?_Init@locale@std@@CAPAV_Locimp@12@_N@Z 1004702c     libcpmt:locale0.obj
 0002:00010034       __ehfuncinfo$?_Init@locale@std@@CAPAV_Locimp@12@_N@Z 10047034     libcpmt:locale0.obj
 0002:00010128       __sehtable$___scrt_is_nonwritable_in_current_image 10047128     LIBCMT:utility.obj
 0002:00010148       __sehtable$?dllmain_crt_process_attach@@YAHQAUHINSTANCE__@@QAX@Z 10047148     LIBCMT:dll_dllmain.obj
 0002:00010168       __sehtable$?dllmain_crt_process_detach@@YAH_N@Z 10047168     LIBCMT:dll_dllmain.obj
 0002:00010188       __sehtable$?dllmain_dispatch@@YAHQAUHINSTANCE__@@KQAX@Z 10047188     LIBCMT:dll_dllmain.obj
 0002:000101e0       __sehtable$___DestructExceptionObject 100471e0     libvcruntime:ehhelpers.obj
 0002:00010200       __sehtable$?FrameUnwindToState@__FrameHandler3@@SAXPAUEHRegistrationNode@@PAXPBU_s_FuncInfo@@H@Z 10047200     libvcruntime:frame.obj
 0002:00010228       __sehtable$?CallCatchBlock@@YAPAXPAUEHExceptionRecord@@PAUEHRegistrationNode@@PAU_CONTEXT@@PBU_s_FuncInfo@@PAXHK@Z 10047228     libvcruntime:frame.obj
 0002:00010250       __catchsym$?CallUnexpected@@YAXPBU_s_ESTypeList@@@Z$2 10047250     libvcruntime:frame.obj
 0002:00010260       __unwindtable$?CallUnexpected@@YAXPBU_s_ESTypeList@@@Z 10047260     libvcruntime:frame.obj
 0002:00010270       __tryblocktable$?CallUnexpected@@YAXPBU_s_ESTypeList@@@Z 10047270     libvcruntime:frame.obj
 0002:00010284       __ehfuncinfo$?CallUnexpected@@YAXPBU_s_ESTypeList@@@Z 10047284     libvcruntime:frame.obj
 0002:000102a8       __sehtable$??$BuildCatchObjectHelperInternal@$$CBU_s_HandlerType@@@@YAHPAUEHExceptionRecord@@PAXPBU_s_HandlerType@@PBU_s_CatchableType@@@Z 100472a8     libvcruntime:frame.obj
 0002:000102c8       __sehtable$??$BuildCatchObjectInternal@$$CBU_s_HandlerType@@@@YAXPAUEHExceptionRecord@@PAXPBU_s_HandlerType@@PBU_s_CatchableType@@@Z 100472c8     libvcruntime:frame.obj
 0002:00010320       __sehtable$??$?RV<lambda_80d7abc6eae2375db70be92ccaaf9b57>@@AAV<lambda_df52180bf14694d51fdefd82613e8f07>@@V<lambda_4fa1155033dff2042363dba4e2dc3802>@@@?$__crt_seh_guarded_call@H@@QAEH$$QAV<lambda_80d7abc6eae2375db70be92ccaaf9b57>@@AAV<lambda_df52180bf14694d51fdefd82613e8f07>@@$$QAV<lambda_4fa1155033dff2042363dba4e2dc3802>@@@Z 10047320     libucrt:output.obj
 0002:00010340       __sehtable$??$?RV<lambda_75d23329f2fb3d02b2e1cf5509bb1caf>@@AAV<lambda_c4f131f91cb4ec00a5b0a26aa161b8b4>@@V<lambda_114dc79c86b00c313cb0b6b3b001aaf8>@@@?$__crt_seh_guarded_call@H@@QAEH$$QAV<lambda_75d23329f2fb3d02b2e1cf5509bb1caf>@@AAV<lambda_c4f131f91cb4ec00a5b0a26aa161b8b4>@@$$QAV<lambda_114dc79c86b00c313cb0b6b3b001aaf8>@@@Z 10047340     libucrt:output.obj
 0002:00010360       __sehtable$_terminate      10047360     libucrt:terminate.obj
 0002:00010380       __sehtable$??$?RV<lambda_0fef6fff2b5e6b53303c9058db11ae1f>@@AAV<lambda_082c17da81b0962e08c0587ee0fac50c>@@V<lambda_fa6e051aed0a38726081083cc7c328e9>@@@?$__crt_seh_guarded_call@PAD@@QAEPAD$$QAV<lambda_0fef6fff2b5e6b53303c9058db11ae1f>@@AAV<lambda_082c17da81b0962e08c0587ee0fac50c>@@$$QAV<lambda_fa6e051aed0a38726081083cc7c328e9>@@@Z 10047380     libucrt:setlocale.obj
 0002:000103a0       __sehtable$__query_new_handler 100473a0     libucrt:new_handler.obj
 0002:000103c0       __sehtable$??R<lambda_6e4b09c48022b2350581041d5f6b0c4c>@@QBE@XZ 100473c0     libucrt:exit.obj
 0002:000103e0       __sehtable$??$?RV<lambda_03b1d95aef87969028cfba75ccab2455>@@AAV<lambda_6e4b09c48022b2350581041d5f6b0c4c>@@V<lambda_22bdf7517842c4b3e53723af5aa32b9e>@@@?$__crt_seh_guarded_call@X@@QAEX$$QAV<lambda_03b1d95aef87969028cfba75ccab2455>@@AAV<lambda_6e4b09c48022b2350581041d5f6b0c4c>@@$$QAV<lambda_22bdf7517842c4b3e53723af5aa32b9e>@@@Z 100473e0     libucrt:exit.obj
 0002:00010400       __sehtable$??$?RV<lambda_8e746cf0007f6ed984d6f78af1fec997>@@AAV<lambda_22ebabd17bc4fa466a2aca6d8deb888d>@@V<lambda_18ed0c0b38a6dc0daf1e7ac6d6adf05e>@@@?$__crt_seh_guarded_call@H@@QAEH$$QAV<lambda_8e746cf0007f6ed984d6f78af1fec997>@@AAV<lambda_22ebabd17bc4fa466a2aca6d8deb888d>@@$$QAV<lambda_18ed0c0b38a6dc0daf1e7ac6d6adf05e>@@@Z 10047400     libucrt:onexit.obj
 0002:00010420       __sehtable$??$?RV<lambda_69a2805e680e0e292e8ba93315fe43a8>@@AAV<lambda_f03950bc5685219e0bcd2087efbe011e>@@V<lambda_03fcd07e894ec930e3f35da366ca99d6>@@@?$__crt_seh_guarded_call@H@@QAEH$$QAV<lambda_69a2805e680e0e292e8ba93315fe43a8>@@AAV<lambda_f03950bc5685219e0bcd2087efbe011e>@@$$QAV<lambda_03fcd07e894ec930e3f35da366ca99d6>@@@Z 10047420     libucrt:onexit.obj
 0002:00010440       __sehtable$_raise          10047440     libucrt:signal.obj
 0002:00010460       __sehtable$??$?RV<lambda_cbab9ec6f41b0180b23cc171c22676b0>@@AAV<lambda_44731a7d0e6d81c3e6aa82d741081786>@@V<lambda_4b292cb8dd18144e164572427af410ab>@@@?$__crt_seh_guarded_call@P6AXH@Z@@QAEP6AXH@Z$$QAV<lambda_cbab9ec6f41b0180b23cc171c22676b0>@@AAV<lambda_44731a7d0e6d81c3e6aa82d741081786>@@$$QAV<lambda_4b292cb8dd18144e164572427af410ab>@@@Z 10047460     libucrt:signal.obj
 0002:00010480       __sehtable$??$?RV<lambda_93797fb4802c957ba6a7f08e1250235b>@@AAV<lambda_1f3ce6bd48e0aa2e72a71c02eee379d3>@@V<lambda_56cae30c9364c9b6c15aeaac05d0418e>@@@?$__crt_seh_guarded_call@H@@QAEH$$QAV<lambda_93797fb4802c957ba6a7f08e1250235b>@@AAV<lambda_1f3ce6bd48e0aa2e72a71c02eee379d3>@@$$QAV<lambda_56cae30c9364c9b6c15aeaac05d0418e>@@@Z 10047480     libucrt:winapi_thunks.obj
 0002:000104a0       __sehtable$__fcloseall     100474a0     libucrt:closeall.obj
 0002:000104c0       __sehtable$??$?RV<lambda_2866be3712abc81a800a822484c830d8>@@AAV<lambda_39ca0ed439415581b5b15c265174cece>@@V<lambda_2b24c74d71094a6cd0cb82e44167d71b>@@@?$__crt_seh_guarded_call@X@@QAEX$$QAV<lambda_2866be3712abc81a800a822484c830d8>@@AAV<lambda_39ca0ed439415581b5b15c265174cece>@@$$QAV<lambda_2b24c74d71094a6cd0cb82e44167d71b>@@@Z 100474c0     libucrt:fflush.obj
 0002:000104e0       __sehtable$??$?RV<lambda_2cc53f568c5a2bb6f192f930a45d44ea>@@AAV<lambda_ab61a845afdef5b7c387490eaf3616ee>@@V<lambda_c2ffc0b7726aa6be21d5f0026187e748>@@@?$__crt_seh_guarded_call@X@@QAEX$$QAV<lambda_2cc53f568c5a2bb6f192f930a45d44ea>@@AAV<lambda_ab61a845afdef5b7c387490eaf3616ee>@@$$QAV<lambda_c2ffc0b7726aa6be21d5f0026187e748>@@@Z 100474e0     libucrt:fflush.obj
 0002:00010500       __sehtable$??$?RV<lambda_6d20deecaf4856105ebacbad442d1079>@@AAV<lambda_9a32fed5bf61b6b509b2d3f6003082a1>@@V<lambda_63ea2239ed67c638ddbae41947fdf875>@@@?$__crt_seh_guarded_call@H@@QAEH$$QAV<lambda_6d20deecaf4856105ebacbad442d1079>@@AAV<lambda_9a32fed5bf61b6b509b2d3f6003082a1>@@$$QAV<lambda_63ea2239ed67c638ddbae41947fdf875>@@@Z 10047500     libucrt:fflush.obj
 0002:00010520       __sehtable$___acrt_initialize_lowio 10047520     libucrt:ioinit.obj
 0002:00010540       __sehtable$??$?RV<lambda_15ade71b0218206bbe3333a0c9b79046>@@AAV<lambda_da44e0f8b0f19ba52fefafb335991732>@@V<lambda_207f2d024fc103971653565357d6cd41>@@@?$__crt_seh_guarded_call@X@@QAEX$$QAV<lambda_15ade71b0218206bbe3333a0c9b79046>@@AAV<lambda_da44e0f8b0f19ba52fefafb335991732>@@$$QAV<lambda_207f2d024fc103971653565357d6cd41>@@@Z 10047540     libucrt:per_thread_data.obj
 0002:00010560       __sehtable$??$?RV<lambda_a7e850c220f1c8d1e6efeecdedd162c6>@@AAV<lambda_46720907175c18b6c9d2717bc0d2d362>@@V<lambda_9048902d66e8d99359bc9897bbb930a8>@@@?$__crt_seh_guarded_call@X@@QAEX$$QAV<lambda_a7e850c220f1c8d1e6efeecdedd162c6>@@AAV<lambda_46720907175c18b6c9d2717bc0d2d362>@@$$QAV<lambda_9048902d66e8d99359bc9897bbb930a8>@@@Z 10047560     libucrt:per_thread_data.obj
 0002:00010580       __sehtable$??$?RV<lambda_38edbb1296d33220d7e4dd0ed76b244a>@@AAV<lambda_5ce1d447e08cb34b2473517608e21441>@@V<lambda_fb385d3da700c9147fc39e65dd577a8c>@@@?$__crt_seh_guarded_call@X@@QAEX$$QAV<lambda_38edbb1296d33220d7e4dd0ed76b244a>@@AAV<lambda_5ce1d447e08cb34b2473517608e21441>@@$$QAV<lambda_fb385d3da700c9147fc39e65dd577a8c>@@@Z 10047580     libucrt:per_thread_data.obj
 0002:000105a0       __sehtable$??$?RV<lambda_6affb1475c98b40b75cdec977db92e3c>@@AAV<lambda_b8d4b9c228a6ecc3f80208dbb4b4a104>@@V<lambda_608742c3c92a14382c1684fc64f96c88>@@@?$__crt_seh_guarded_call@X@@QAEX$$QAV<lambda_6affb1475c98b40b75cdec977db92e3c>@@AAV<lambda_b8d4b9c228a6ecc3f80208dbb4b4a104>@@$$QAV<lambda_608742c3c92a14382c1684fc64f96c88>@@@Z 100475a0     libucrt:per_thread_data.obj
 0002:000105c0       __sehtable$??$?RV<lambda_e5124f882df8998aaf41531e079ba474>@@AAV<lambda_3e16ef9562a7dcce91392c22ab16ea36>@@V<lambda_e25ca0880e6ef98be67edffd8c599615>@@@?$__crt_seh_guarded_call@X@@QAEX$$QAV<lambda_e5124f882df8998aaf41531e079ba474>@@AAV<lambda_3e16ef9562a7dcce91392c22ab16ea36>@@$$QAV<lambda_e25ca0880e6ef98be67edffd8c599615>@@@Z 100475c0     libucrt:wsetlocale.obj
 0002:000105e0       __sehtable$??$?RV<lambda_303d0ad9bde654cb3f803a73716ce7a4>@@AAV<lambda_92fe181106aff629c9a2e25713a64969>@@V<lambda_184325e10b6cff6f771390cbceab281b>@@@?$__crt_seh_guarded_call@X@@QAEX$$QAV<lambda_303d0ad9bde654cb3f803a73716ce7a4>@@AAV<lambda_92fe181106aff629c9a2e25713a64969>@@$$QAV<lambda_184325e10b6cff6f771390cbceab281b>@@@Z 100475e0     libucrt:wsetlocale.obj
 0002:00010600       __sehtable$??$?RV<lambda_38c1253c7a74f5d2d430989951395d98>@@AAV<lambda_b163b37eafe0a13f2c371fafeb0365c9>@@AAV<lambda_8dff2cf36a5417162780cd64fa2883ef>@@@?$__crt_seh_guarded_call@X@@QAEX$$QAV<lambda_38c1253c7a74f5d2d430989951395d98>@@AAV<lambda_b163b37eafe0a13f2c371fafeb0365c9>@@AAV<lambda_8dff2cf36a5417162780cd64fa2883ef>@@@Z 10047600     libucrt:wsetlocale.obj
 0002:00010620       __sehtable$??$?RV<lambda_70c0770dcc4f6ec6272bb01dc82d3c91>@@AAV<lambda_ca71763b3c0644891230e4f79ea54fa6>@@V<lambda_ca266f0f09348b8765c113e3a39a2bc1>@@@?$__crt_seh_guarded_call@H@@QAEH$$QAV<lambda_70c0770dcc4f6ec6272bb01dc82d3c91>@@AAV<lambda_ca71763b3c0644891230e4f79ea54fa6>@@$$QAV<lambda_ca266f0f09348b8765c113e3a39a2bc1>@@@Z 10047620     libucrt:setvbuf.obj
 0002:00010640       __sehtable$?update_thread_multibyte_data_internal@@YAPAU__crt_multibyte_data@@QAU__acrt_ptd@@QAU1@@Z 10047640     libucrt:mbctype.obj
 0002:00010660       __sehtable$??$?RV<lambda_ceb1ee4838e85a9d631eb091e2fbe199>@@AAV<lambda_ae742caa10f662c28703da3d2ea5e57e>@@V<lambda_cd08b5d6af4937fe54fc07d0c9bf6b37>@@@?$__crt_seh_guarded_call@X@@QAEX$$QAV<lambda_ceb1ee4838e85a9d631eb091e2fbe199>@@AAV<lambda_ae742caa10f662c28703da3d2ea5e57e>@@$$QAV<lambda_cd08b5d6af4937fe54fc07d0c9bf6b37>@@@Z 10047660     libucrt:mbctype.obj
 0002:00010680       __sehtable$_fclose         10047680     libucrt:fclose.obj
 0002:000106a0       __sehtable$??$?RV<lambda_9e9de3de5fa147e2223d7db92bc10aa6>@@AAV<lambda_38ce7e780aa69e748d6df282ebc68efe>@@V<lambda_8ca6da459f0f6780f1cff60fdc3d00e5>@@@?$__crt_seh_guarded_call@H@@QAEH$$QAV<lambda_9e9de3de5fa147e2223d7db92bc10aa6>@@AAV<lambda_38ce7e780aa69e748d6df282ebc68efe>@@$$QAV<lambda_8ca6da459f0f6780f1cff60fdc3d00e5>@@@Z 100476a0     libucrt:commit.obj
 0002:000106c0       __sehtable$__write         100476c0     libucrt:write.obj
 0002:000106e0       __sehtable$___acrt_lowio_ensure_fh_exists 100476e0     libucrt:osfinfo.obj
 0002:00010700       __sehtable$___acrt_update_thread_locale_data 10047700     libucrt:locale_refcounting.obj
 0002:00010720       __sehtable$??$?RV<lambda_218ce3db14220d0be481dae8ef3383b6>@@AAV<lambda_628dfdc04ba53c8bfc02c9951375f3f5>@@V<lambda_57dc472bd5c9d5f3b2cbca59b8a843ae>@@@?$__crt_seh_guarded_call@H@@QAEH$$QAV<lambda_218ce3db14220d0be481dae8ef3383b6>@@AAV<lambda_628dfdc04ba53c8bfc02c9951375f3f5>@@$$QAV<lambda_57dc472bd5c9d5f3b2cbca59b8a843ae>@@@Z 10047720     libucrt:close.obj
 0002:00010740       __sehtable$??$common_lseek@_J@@YA_JH_JH@Z 10047740     libucrt:lseek.obj
 0002:00010760       __sehtable$__IsNonwritableInCurrentImage 10047760     LIBCMT:pesect.obj
 0002:00010780       .edata                     10047780     nodejavabridge_bindings.exp
 0002:000107a8       rgpv                       100477a8     nodejavabridge_bindings.exp
 0002:000107b4       rgszName                   100477b4     nodejavabridge_bindings.exp
 0002:000107c0       rgwOrd                     100477c0     nodejavabridge_bindings.exp
 0002:000107c6       szName                     100477c6     nodejavabridge_bindings.exp
 0002:000107e3       $N00001                    100477e3     nodejavabridge_bindings.exp
 0002:0001080e       $N00002                    1004780e     nodejavabridge_bindings.exp
 0002:00010838       $N00003                    10047838     nodejavabridge_bindings.exp
 0002:00010bb0       .idata$6                   10047bb0     kernel32:KERNEL32.dll
 0002:000124dc       .idata$6                   100494dc     nw:nw.dll
 0002:00012674       .idata$6                   10049674     node:node.dll
 0002:00012692       .idata$6                   10049692     jvm:jvm.dll
 0003:00000000       ?init@std@@3JA             1004a000     libcpmt:xlock.obj
 0003:0000005c       ?atcount_cdecl@@3IA        1004a05c     libcpmt:iosptrs.obj
 0003:00000080       ?__vcrt_flsindex@@3KA      1004a080     libvcruntime:per_thread_data.obj
 0003:000001b4       ?errno_no_memory@@3HA      1004a1b4     libucrt:errno.obj
 0003:000001b8       ?doserrno_no_memory@@3KA   1004a1b8     libucrt:errno.obj
 0003:000001f0       ?__acrt_flsindex@@3KA      1004a1f0     libucrt:per_thread_data.obj
 0003:000001f4       __ctype_loc_style          1004a1f4     libucrt:wsetlocale.obj
 0003:000002d0       ?tzstd_program@@3PADA      1004a2d0     libucrt:timeset.obj
 0003:00000310       ?tzdst_program@@3PADA      1004a310     libucrt:timeset.obj
 0003:00000350       ?tzname_states@@3PAY01PADA 1004a350     libucrt:timeset.obj
 0003:00000358       __mbctypes                 1004a358     libucrt:mbctype.obj
 0003:00000460       __mbcasemaps               1004a460     libucrt:mbctype.obj
 0003:00000560       ?__rgctypeflag@@3PADA      1004a560     libucrt:mbctype.obj
 0003:00000568       ?__rgcode_page_info@@3PAUcode_page_info@@A 1004a568     libucrt:mbctype.obj
 0003:00000890       __module                   1004a890     nodeJavaBridge.obj
 0003:00000b38       ?initlocks@std@@3V_Init_locks@1@A 1004ab38     libcpmt:xlock.obj
 0003:00000b40       ?mtx@std@@3PAU_RTL_CRITICAL_SECTION@@A 1004ab40     libcpmt:xlock.obj
 0003:00000c1c       ?classic_locale@std@@3Vlocale@1@A 1004ac1c     libcpmt:locale0.obj
 0003:00000c24       ?_Fac_tidy_reg@std@@3U_Fac_tidy_reg_t@1@B 1004ac24     libcpmt:locale0.obj
 0003:00000c28       ?_Fac_head@std@@3PAU_Fac_node@1@A 1004ac28     libcpmt:locale0.obj
 0003:00000c2c       _global_locale             1004ac2c     libcpmt:locale0.obj
 0003:00000c30       ?registered@?1??_Setgloballocale@locale@std@@CAXPAX@Z@4_NA 1004ac30     libcpmt:locale0.obj
 0003:00000c38       ?stdstr@std@@3PAPAVios_base@1@A 1004ac38     libcpmt:ios.obj
 0003:00000c60       ?stdopens@std@@3PADA       1004ac60     libcpmt:ios.obj
 0003:00000d38       ?initlocks@std@@3V_Init_locks@1@A 1004ad38     libcpmt:iosptrs.obj
 0003:00000d39       ?init_atexit@@3U_Init_atexit@@A 1004ad39     libcpmt:iosptrs.obj
 0003:00000d3c       ?atfuns_cdecl@@3PAP6AXXZA  1004ad3c     libcpmt:iosptrs.obj
 0003:00000de4       ?is_initialized_as_dll@@3_NA 1004ade4     LIBCMT:utility.obj
 0003:00000de5       ?module_local_atexit_table_initialized@@3_NA 1004ade5     LIBCMT:utility.obj
 0003:00000de8       ?module_local_atexit_table@@3U_onexit_table_t@@A 1004ade8     LIBCMT:utility.obj
 0003:00000df4       ?module_local_at_quick_exit_table@@3U_onexit_table_t@@A 1004adf4     LIBCMT:utility.obj
 0003:00000e00       ?__proc_attached@@3HA      1004ae00     LIBCMT:dll_dllmain.obj
 0003:00000e08       _GS_ExceptionRecord        1004ae08     LIBCMT:gs_report.obj
 0003:00000e58       _GS_ContextRecord          1004ae58     LIBCMT:gs_report.obj
 0003:00001148       ?__vcrt_startup_thread_ptd@@3U__vcrt_ptd@@A 1004b148     libvcruntime:per_thread_data.obj
 0003:00001170       ___vcrt_lock_table         1004b170     libvcruntime:locks.obj
 0003:00001188       ___vcrt_locks_initialized  1004b188     libvcruntime:locks.obj
 0003:0000118c       ?module_handles@@3PAPAUHINSTANCE__@@A 1004b18c     libvcruntime:winapi_downlevel.obj
 0003:00001198       ?encoded_function_pointers@@3PAPAXA 1004b198     libvcruntime:winapi_downlevel.obj
 0003:000011d4       ?heap@@3V_HeapManager@@A   1004b1d4     libvcruntime:undname.obj
 0003:000011f4       ?__acrt_invalid_parameter_handler@@3V?$dual_state_global@P6AXPB_W00II@Z@__crt_state_management@@A 1004b1f4     libucrt:invalid_parameter.obj
 0003:00001200       ?__acrt_lock_table@@3PAU_RTL_CRITICAL_SECTION@@A 1004b200     libucrt:locks.obj
 0003:00001350       ?__acrt_locks_initialized@@3IA 1004b350     libucrt:locks.obj
 0003:00001354       ?__acrt_new_handler@@3V?$dual_state_global@P6AHI@Z@__crt_state_management@@A 1004b354     libucrt:new_handler.obj
 0003:00001358       ?c_termination_complete@@3JA 1004b358     libucrt:exit.obj
 0003:0000135c       ?thread_local_exit_callback_func@@3P6GXPAXK0@ZA 1004b35c     libucrt:exit.obj
 0003:00001368       ?program_name@?1???$common_configure_argv@D@@YAHW4_crt_argv_mode@@@Z@4PADA 1004b368     libucrt:argv_parsing.obj
 0003:00001498       ?ctrlc_action@@3V?$dual_state_global@P6AXH@Z@__crt_state_management@@A 1004b498     libucrt:signal.obj
 0003:0000149c       ?ctrlbreak_action@@3V?$dual_state_global@P6AXH@Z@__crt_state_management@@A 1004b49c     libucrt:signal.obj
 0003:000014a0       ?abort_action@@3V?$dual_state_global@P6AXH@Z@__crt_state_management@@A 1004b4a0     libucrt:signal.obj
 0003:000014a4       ?term_action@@3V?$dual_state_global@P6AXH@Z@__crt_state_management@@A 1004b4a4     libucrt:signal.obj
 0003:000014a8       ?module_handles@@3PAPAUHINSTANCE__@@A 1004b4a8     libucrt:winapi_thunks.obj
 0003:000014f8       ?encoded_function_pointers@@3PAPAXA 1004b4f8     libucrt:winapi_thunks.obj
 0003:00001580       ?static_enum_proc@?1??enum_system_locales_ex_nolock@@YAHQ6GHPA_WKJ@Z@Z@4P6GH0KJ@ZA 1004b580     libucrt:winapi_thunks.obj
 0003:0000178c       ?enable_percent_n@@3IA     1004b78c     libucrt:printf_count_output.obj
 0003:000017a0       ?__acrt_app_type@@3W4_crt_app_type@@A 1004b7a0     libucrt:report_runtime_error.obj
 0003:000017a4       ___acrt_error_mode         1004b7a4     libucrt:set_error_mode.obj
 0003:000017b8       ?_tzname@@3V?$dual_state_global@PAPAD@__crt_state_management@@A 1004b7b8     libucrt:timeset.obj
 0003:000017c0       ?tz_api_used@@3HA          1004b7c0     libucrt:tzset.obj
 0003:000017c8       ?tz_info@@3U_TIME_ZONE_INFORMATION@@A 1004b7c8     libucrt:tzset.obj
 0003:00001874       ?state_cache@?1???$get_cached_win_policy@Udeveloper_information_policy_properties@?1??__acrt_get_developer_information_policy@@YA?AW4developer_information_policy@@XZ@@@YA?AW4developer_information_policy@@W4AppPolicyShowDeveloperDiagnostic@@@Z@4JA 1004b874     libucrt:win_policies.obj
 0003:00001878       ?state_cache@?1???$get_cached_win_policy@Uwindowing_model_policy_properties@?1??__acrt_get_windowing_model_policy@@YA?AW4windowing_model_policy@@XZ@@@YA?AW4windowing_model_policy@@W4AppPolicyWindowingModel@@@Z@4JA 1004b878     libucrt:win_policies.obj
 0003:00001888       ?fSystemSet@@3HA           1004b888     libucrt:mbctype.obj
 0003:0000188c       ?initialized@?1??__acrt_initialize_multibyte@@9@4_NA 1004b88c     libucrt:mbctype.obj
 0003:000018ac       ?user_matherr@@3V?$dual_state_global@P6AHPAU_exception@@@Z@__crt_state_management@@A 1004b8ac     libucrt:matherr.obj
 0003:000018b0       ?__acrt_global_new_mode@@3V?$dual_state_global@J@__crt_state_management@@A 1004b8b0     libucrt:new_mode.obj
 0003:000018b4       __pmatherr_set             1004b8b4     libucrt:libm_error.obj
 0003:000018e8       ?kObject@@3V?$basic_string@DU?$char_traits@D@std@@V?$allocator@D@2@@std@@B 1004b8e8     utils.obj
 0003:00001900       ?kLong@@3V?$basic_string@DU?$char_traits@D@std@@V?$allocator@D@2@@std@@B 1004b900     utils.obj
 0003:00001918       ?kInteger@@3V?$basic_string@DU?$char_traits@D@std@@V?$allocator@D@2@@std@@B 1004b918     utils.obj
 0003:00001930       ?kDouble@@3V?$basic_string@DU?$char_traits@D@std@@V?$allocator@D@2@@std@@B 1004b930     utils.obj
 0003:00001948       ?kNumber@@3V?$basic_string@DU?$char_traits@D@std@@V?$allocator@D@2@@std@@B 1004b948     utils.obj
 0003:00001960       ?kString@@3V?$basic_string@DU?$char_traits@D@std@@V?$allocator@D@2@@std@@B 1004b960     utils.obj
 0003:00001978       ?kBoolean@@3V?$basic_string@DU?$char_traits@D@std@@V?$allocator@D@2@@std@@B 1004b978     utils.obj
 0003:00001990       ?node_dll@@3PAUHINSTANCE__@@A 1004b990     win_delay_load_hook.obj
 0003:00001994       ?nw_dll@@3PAUHINSTANCE__@@A 1004b994     win_delay_load_hook.obj
 0004:00000060       $R000000                   1004c060     * linker generated manifest res *

 Exports

  ordinal    name

        1    _Java_node_NodeDynamicProxyClass_callJs@24
        2    _Java_node_NodeDynamicProxyClass_unref@16
        3    __register_nodejavabridge_bindings_
               exported name: _register_nodejavabridge_bindings_
